TN:
SF:/Library/Developer/CommandLineTools/SDKs/MacOSX.sdk/usr/include/___wctype.h
FNL:0,156,158
FNA:0,0,_Z8towloweri
FNF:1
FNH:0
DA:156,0
DA:158,0
LF:2
LH:0
end_of_record
TN:
SF:/Library/Developer/CommandLineTools/SDKs/MacOSX.sdk/usr/include/_ctype.h
FNL:0,140,142
FNA:0,0,_Z7isasciii
FNL:1,158,164
FNA:1,0,_Z8__istypeim
FNL:2,169,175
FNA:2,0,_Z9__isctypeim
FNL:3,235,237
FNA:3,0,_Z7iscntrli
FNL:4,242,244
FNA:4,0,_Z7isdigiti
FNL:5,272,274
FNA:5,0,_Z7isspacei
FNL:6,285,287
FNA:6,0,_Z8isxdigiti
FNL:7,303,305
FNA:7,472,_Z7toupperi
FNF:8
FNH:1
DA:140,0
DA:142,0
DA:158,0
DA:163,0
DA:164,0
DA:169,0
DA:174,0
DA:175,0
DA:235,0
DA:237,0
DA:242,0
DA:244,0
DA:272,0
DA:274,0
DA:285,0
DA:287,0
DA:303,472
DA:305,472
LF:18
LH:2
end_of_record
TN:
SF:/Library/Developer/CommandLineTools/SDKs/MacOSX.sdk/usr/include/c++/v1/__algorithm/any_of.h
FNL:0,23,28
FNA:0,54,_ZNSt3__16any_ofB8ne190102INS_11__wrap_iterIPKNS_12basic_stringIcNS_11char_traitsIcEENS_9allocatorIcEEEEEEZNK7testing8internal12_GLOBAL__N_114UnitTestFilter11MatchesNameERS8_EUlSF_E_EEbT_SH_T0_
FNA:0,12,_ZNSt3__16any_ofB8ne190102INS_11__wrap_iterIPKcEEZN7testing8internal12_GLOBAL__N_113IsGlobPatternERKNS_12basic_stringIcNS_11char_traitsIcEENS_9allocatorIcEEEEE3$_0EEbT_SH_T0_
FNF:1
FNH:1
DA:23,66
DA:24,131
DA:25,90
DA:26,25
DA:27,41
DA:28,66
LF:6
LH:6
end_of_record
TN:
SF:/Library/Developer/CommandLineTools/SDKs/MacOSX.sdk/usr/include/c++/v1/__algorithm/comp.h
FNL:0,39,40
FNA:0,0,_ZNKSt3__16__lessIvvEclB8ne190102IPKPN7testing9TestSuiteES7_EEbRKT_RKT0_
FNA:0,0,_ZNKSt3__16__lessIvvEclB8ne190102IddEEbRKT_RKT0_
FNA:0,94,_ZNKSt3__16__lessIvvEclB8ne190102ImmEEbRKT_RKT0_
FNF:1
FNH:1
DA:39,94
DA:40,94
LF:2
LH:2
end_of_record
TN:
SF:/Library/Developer/CommandLineTools/SDKs/MacOSX.sdk/usr/include/c++/v1/__algorithm/copy.h
FNL:0,101,102
FNA:0,0,_ZNKSt3__111__copy_implINS_17_ClassicAlgPolicyEEclB8ne190102IN7testing8internal13edit_distance8EditTypeES7_Li0EEENS_4pairIPT_PT0_EESA_SA_SC_
FNA:0,0,_ZNKSt3__111__copy_implINS_17_ClassicAlgPolicyEEclB8ne190102IddLi0EEENS_4pairIPT_PT0_EES6_S6_S8_
FNL:1,108,110
FNA:1,0,_ZNSt3__16__copyB8ne190102INS_17_ClassicAlgPolicyEPN7testing8internal13edit_distance8EditTypeES6_S6_EENS_4pairIT0_T2_EES8_T1_S9_
FNA:1,0,_ZNSt3__16__copyB8ne190102INS_17_ClassicAlgPolicyEPdS2_S2_EENS_4pairIT0_T2_EES4_T1_S5_
FNL:2,115,116
FNA:2,0,_ZNSt3__14copyB8ne190102IPN7testing8internal13edit_distance8EditTypeES5_EET0_T_S7_S6_
FNA:2,0,_ZNSt3__14copyB8ne190102IPdS1_EET0_T_S3_S2_
FNF:3
FNH:0
DA:101,0
DA:102,0
DA:108,0
DA:109,0
DA:110,0
DA:115,0
DA:116,0
LF:7
LH:0
end_of_record
TN:
SF:/Library/Developer/CommandLineTools/SDKs/MacOSX.sdk/usr/include/c++/v1/__algorithm/copy_move_common.h
FNL:0,62,67
FNA:0,0,_ZNSt3__119__copy_trivial_implB8ne190102IN7testing8internal13edit_distance8EditTypeES4_EENS_4pairIPT_PT0_EES7_S7_S9_
FNA:0,0,_ZNSt3__119__copy_trivial_implB8ne190102IPN7testing17TestEventListenerES3_EENS_4pairIPT_PT0_EES6_S6_S8_
FNA:0,0,_ZNSt3__119__copy_trivial_implB8ne190102IPN7testing8TestInfoES3_EENS_4pairIPT_PT0_EES6_S6_S8_
FNA:0,0,_ZNSt3__119__copy_trivial_implB8ne190102IPN7testing9TestSuiteES3_EENS_4pairIPT_PT0_EES6_S6_S8_
FNA:0,0,_ZNSt3__119__copy_trivial_implB8ne190102IddEENS_4pairIPT_PT0_EES3_S3_S5_
FNL:1,72,78
FNA:1,0,_ZNSt3__128__copy_backward_trivial_implB8ne190102IPN7testing8TestInfoES3_EENS_4pairIPT_PT0_EES6_S6_S8_
FNA:1,0,_ZNSt3__128__copy_backward_trivial_implB8ne190102IPN7testing9TestSuiteES3_EENS_4pairIPT_PT0_EES6_S6_S8_
FNL:2,93,97
FNA:2,0,_ZNSt3__124__copy_move_unwrap_itersB8ne190102INS_11__copy_implINS_17_ClassicAlgPolicyEEEPN7testing8internal13edit_distance8EditTypeES8_S8_Li0EEENS_4pairIT0_T2_EESA_T1_SB_
FNA:2,0,_ZNSt3__124__copy_move_unwrap_itersB8ne190102INS_11__copy_implINS_17_ClassicAlgPolicyEEEPdS4_S4_Li0EEENS_4pairIT0_T2_EES6_T1_S7_
FNA:2,7,_ZNSt3__124__copy_move_unwrap_itersB8ne190102INS_11__move_implINS_17_ClassicAlgPolicyEEENS_11__wrap_iterIPNS_12basic_stringIcNS_11char_traitsIcEENS_9allocatorIcEEEEEESC_NS_15insert_iteratorINS_13unordered_setISA_NS_4hashISA_EENS_8equal_toISA_EENS8_ISA_EEEEEELi0EEENS_4pairIT0_T2_EESN_T1_SO_
FNA:2,7,_ZNSt3__124__copy_move_unwrap_itersB8ne190102INS_11__move_implINS_17_ClassicAlgPolicyEEENS_11__wrap_iterIPNS_12basic_stringIcNS_11char_traitsIcEENS_9allocatorIcEEEEEESC_NS_15insert_iteratorINS_6vectorISA_NS8_ISA_EEEEEELi0EEENS_4pairIT0_T2_EESJ_T1_SK_
FNA:2,0,_ZNSt3__124__copy_move_unwrap_itersB8ne190102INS_11__move_implINS_17_ClassicAlgPolicyEEENS_11__wrap_iterIPPN7testing8TestInfoEEES9_S9_Li0EEENS_4pairIT0_T2_EESB_T1_SC_
FNA:2,0,_ZNSt3__124__copy_move_unwrap_itersB8ne190102INS_11__move_implINS_17_ClassicAlgPolicyEEENS_16reverse_iteratorIPPN7testing8TestInfoEEES9_NS4_INS_11__wrap_iterIS8_EEEELi0EEENS_4pairIT0_T2_EESE_T1_SF_
FNA:2,0,_ZNSt3__124__copy_move_unwrap_itersB8ne190102INS_11__move_implINS_17_ClassicAlgPolicyEEEPNS_12basic_stringIcNS_11char_traitsIcEENS_9allocatorIcEEEESA_SA_Li0EEENS_4pairIT0_T2_EESC_T1_SD_
FNA:2,0,_ZNSt3__124__copy_move_unwrap_itersB8ne190102INS_11__move_implINS_17_ClassicAlgPolicyEEEPPN7testing17TestEventListenerES7_S7_Li0EEENS_4pairIT0_T2_EES9_T1_SA_
FNA:2,0,_ZNSt3__124__copy_move_unwrap_itersB8ne190102INS_11__move_implINS_17_ClassicAlgPolicyEEEPPN7testing8TestInfoES7_NS_11__wrap_iterIS7_EELi0EEENS_4pairIT0_T2_EESB_T1_SC_
FNA:2,0,_ZNSt3__124__copy_move_unwrap_itersB8ne190102INS_11__move_implINS_17_ClassicAlgPolicyEEEPPN7testing9TestSuiteES7_S7_Li0EEENS_4pairIT0_T2_EES9_T1_SA_
FNA:2,0,_ZNSt3__124__copy_move_unwrap_itersB8ne190102INS_20__move_backward_implINS_17_ClassicAlgPolicyEEENS_11__wrap_iterIPPN7testing8TestInfoEEES9_S9_Li0EEENS_4pairIT0_T2_EESB_T1_SC_
FNA:2,0,_ZNSt3__124__copy_move_unwrap_itersB8ne190102INS_20__move_backward_implINS_17_ClassicAlgPolicyEEEPNS_12basic_stringIcNS_11char_traitsIcEENS_9allocatorIcEEEESA_SA_Li0EEENS_4pairIT0_T2_EESC_T1_SD_
FNA:2,0,_ZNSt3__124__copy_move_unwrap_itersB8ne190102INS_20__move_backward_implINS_17_ClassicAlgPolicyEEEPPN7testing9TestSuiteES7_S7_Li0EEENS_4pairIT0_T2_EES9_T1_SA_
FNF:3
FNH:1
DA:62,0
DA:63,0
DA:65,0
DA:67,0
DA:72,0
DA:73,0
DA:74,0
DA:76,0
DA:78,0
DA:93,14
DA:94,14
DA:95,14
DA:96,28
DA:97,14
LF:14
LH:5
end_of_record
TN:
SF:/Library/Developer/CommandLineTools/SDKs/MacOSX.sdk/usr/include/c++/v1/__algorithm/fill_n.h
FNL:0,82,85
FNA:0,13,_ZNSt3__18__fill_nB8ne190102IPcmcEET_S2_T0_RKT1_
FNL:1,90,91
FNA:1,13,_ZNSt3__16fill_nB8ne190102IPcmcEET_S2_T0_RKT1_
FNF:2
FNH:2
DA:82,13
DA:83,26
DA:84,13
DA:85,13
DA:90,13
DA:91,13
LF:6
LH:6
end_of_record
TN:
SF:/Library/Developer/CommandLineTools/SDKs/MacOSX.sdk/usr/include/c++/v1/__algorithm/find.h
FNL:0,175,178
FNA:0,0,_ZNSt3__14findB8ne190102INS_11__wrap_iterIPKNS_12basic_stringIcNS_11char_traitsIcEENS_9allocatorIcEEEEEES7_EET_SB_SB_RKT0_
FNL:1,46,50
FNA:1,0,_ZNSt3__16__findB8ne190102IPKNS_12basic_stringIcNS_11char_traitsIcEENS_9allocatorIcEEEES8_S6_NS_10__identityEEET_SA_T0_RKT1_RT2_
FNF:2
FNH:0
DA:46,0
DA:47,0
DA:48,0
DA:49,0
DA:50,0
DA:175,0
DA:177,0
DA:178,0
LF:8
LH:0
end_of_record
TN:
SF:/Library/Developer/CommandLineTools/SDKs/MacOSX.sdk/usr/include/c++/v1/__algorithm/find_if.h
FNL:0,23,27
FNA:0,0,_ZNSt3__17find_ifB8ne190102INS_11__wrap_iterIPN7testing12TestPropertyEEENS2_8internal17TestPropertyKeyIsEEET_S8_S8_T0_
FNF:1
FNH:0
DA:23,0
DA:24,0
DA:25,0
DA:26,0
DA:27,0
LF:5
LH:0
end_of_record
TN:
SF:/Library/Developer/CommandLineTools/SDKs/MacOSX.sdk/usr/include/c++/v1/__algorithm/for_each.h
FNL:0,32,35
FNA:0,2,_ZNSt3__18for_eachB8ne190102INS_11__wrap_iterIPKPN7testing11EnvironmentEEEPFvS4_EEET0_T_SB_SA_
FNA:0,0,_ZNSt3__18for_eachB8ne190102INS_11__wrap_iterIPKPN7testing17TestEventListenerEEEPFvS4_EEET0_T_SB_SA_
FNA:0,4,_ZNSt3__18for_eachB8ne190102INS_11__wrap_iterIPKPN7testing8TestInfoEEEPFvS4_EEET0_T_SB_SA_
FNA:0,1,_ZNSt3__18for_eachB8ne190102INS_11__wrap_iterIPKPN7testing9TestSuiteEEEPFvS4_EEET0_T_SB_SA_
FNA:0,1,_ZNSt3__18for_eachB8ne190102INS_16reverse_iteratorINS_11__wrap_iterIPPN7testing11EnvironmentEEEEEPFvS5_EEET0_T_SC_SB_
FNF:1
FNH:1
DA:32,8
DA:33,24
DA:34,16
DA:35,8
LF:4
LH:4
end_of_record
TN:
SF:/Library/Developer/CommandLineTools/SDKs/MacOSX.sdk/usr/include/c++/v1/__algorithm/half_positive.h
FNL:0,26,27
FNA:0,0,_ZNSt3__115__half_positiveB8ne190102IlLi0EEET_S1_
FNF:1
FNH:0
DA:26,0
DA:27,0
LF:2
LH:0
end_of_record
TN:
SF:/Library/Developer/CommandLineTools/SDKs/MacOSX.sdk/usr/include/c++/v1/__algorithm/inplace_merge.h
FNL:0,126,204
FNA:0,0,_ZNSt3__115__inplace_mergeINS_17_ClassicAlgPolicyERZN7testing9TestSuite3RunEvE3$_0NS_11__wrap_iterIPPNS2_8TestInfoEEEEEvT1_SB_SB_OT0_NS_15iterator_traitsISB_E15difference_typeESG_PNSF_10value_typeEl
FNL:1,50,50
FNA:1,0,_ZNSt3__18__invertIRZN7testing9TestSuite3RunEvE3$_0EC1B8ne190102ES4_
FNA:1,0,_ZNSt3__18__invertIRZN7testing9TestSuite3RunEvE3$_0EC2B8ne190102ES4_
FNL:2,58,59
FNA:2,0,_ZNSt3__18__invertIRZN7testing9TestSuite3RunEvE3$_0EclB8ne190102IPNS1_8TestInfoES8_EEbRKT_RKT0_
FNL:3,70,92
FNA:3,0,_ZNSt3__120__half_inplace_mergeB8ne190102INS_17_ClassicAlgPolicyENS_8__invertIRZN7testing9TestSuite3RunEvE3$_0EENS_16reverse_iteratorIPPNS3_8TestInfoEEESC_NS8_INS_11__wrap_iterISB_EEEESF_SF_EEvT1_T2_T3_T4_T5_OT0_
FNA:3,0,_ZNSt3__120__half_inplace_mergeB8ne190102INS_17_ClassicAlgPolicyERZN7testing9TestSuite3RunEvE3$_0PPNS2_8TestInfoES8_NS_11__wrap_iterIS8_EESA_SA_EEvT1_T2_T3_T4_T5_OT0_
FNL:4,95,123
FNA:4,0,_ZNSt3__124__buffered_inplace_mergeB8ne190102INS_17_ClassicAlgPolicyERZN7testing9TestSuite3RunEvE3$_0NS_11__wrap_iterIPPNS2_8TestInfoEEEEEvT1_SB_SB_OT0_NS_15iterator_traitsISB_E15difference_typeESG_PNSF_10value_typeE
FNF:5
FNH:0
DA:50,0
DA:58,0
DA:59,0
DA:70,0
DA:77,0
DA:78,0
DA:79,0
DA:80,0
DA:83,0
DA:84,0
DA:85,0
DA:86,0
DA:87,0
DA:88,0
DA:90,0
DA:92,0
DA:95,0
DA:104,0
DA:105,0
DA:106,0
DA:107,0
DA:108,0
DA:109,0
DA:110,0
DA:111,0
DA:112,0
DA:113,0
DA:114,0
DA:115,0
DA:116,0
DA:120,0
DA:121,0
DA:123,0
DA:126,0
DA:138,0
DA:140,0
DA:141,0
DA:142,0
DA:143,0
DA:145,0
DA:146,0
DA:147,0
DA:148,0
DA:149,0
DA:150,0
DA:159,0
DA:160,0
DA:164,0
DA:165,0
DA:166,0
DA:167,0
DA:168,0
DA:169,0
DA:170,0
DA:171,0
DA:173,0
DA:174,0
DA:177,0
DA:178,0
DA:179,0
DA:180,0
DA:181,0
DA:183,0
DA:184,0
DA:187,0
DA:190,0
DA:191,0
DA:192,0
DA:193,0
DA:194,0
DA:195,0
DA:196,0
DA:197,0
DA:198,0
DA:199,0
DA:200,0
DA:201,0
DA:204,0
LF:78
LH:0
end_of_record
TN:
SF:/Library/Developer/CommandLineTools/SDKs/MacOSX.sdk/usr/include/c++/v1/__algorithm/iter_swap.h
FNL:0,23,27
FNA:0,0,_ZNSt3__19iter_swapB8ne190102INS_11__wrap_iterIPN7testing8internal13edit_distance8EditTypeEEES7_EEvT_T0_
FNA:0,0,_ZNSt3__19iter_swapB8ne190102INS_11__wrap_iterIPNS_12basic_stringIcNS_11char_traitsIcEENS_9allocatorIcEEEEEES9_EEvT_T0_
FNA:0,0,_ZNSt3__19iter_swapB8ne190102INS_11__wrap_iterIPPN7testing8TestInfoEEES6_EEvT_T0_
FNF:1
FNH:0
DA:23,0
DA:26,0
DA:27,0
LF:3
LH:0
end_of_record
TN:
SF:/Library/Developer/CommandLineTools/SDKs/MacOSX.sdk/usr/include/c++/v1/__algorithm/iterator_operations.h
FNL:0,103,109
FNA:0,0,_ZNSt3__18_IterOpsINS_17_ClassicAlgPolicyEE25__validate_iter_referenceB8ne190102IRNS_11__wrap_iterIPPN7testing8TestInfoEEEEEvv
FNA:0,0,_ZNSt3__18_IterOpsINS_17_ClassicAlgPolicyEE25__validate_iter_referenceB8ne190102IRNS_16reverse_iteratorINS_11__wrap_iterIPPN7testing8TestInfoEEEEEEEvv
FNA:0,0,_ZNSt3__18_IterOpsINS_17_ClassicAlgPolicyEE25__validate_iter_referenceB8ne190102IRNS_16reverse_iteratorIPPN7testing8TestInfoEEEEEvv
FNA:0,12,_ZNSt3__18_IterOpsINS_17_ClassicAlgPolicyEE25__validate_iter_referenceB8ne190102IRPNS_12basic_stringIcNS_11char_traitsIcEENS_9allocatorIcEEEEEEvv
FNA:0,0,_ZNSt3__18_IterOpsINS_17_ClassicAlgPolicyEE25__validate_iter_referenceB8ne190102IRPPN7testing8TestInfoEEEvv
FNL:1,117,120
FNA:1,0,_ZNSt3__18_IterOpsINS_17_ClassicAlgPolicyEE11__iter_moveB8ne190102IRNS_11__wrap_iterIPPN7testing8TestInfoEEELi0EEEDTclsr3stdE4movedeclsr3stdE7declvalIRT_EEEEOSB_
FNA:1,0,_ZNSt3__18_IterOpsINS_17_ClassicAlgPolicyEE11__iter_moveB8ne190102IRNS_16reverse_iteratorINS_11__wrap_iterIPPN7testing8TestInfoEEEEELi0EEEDTclsr3stdE4movedeclsr3stdE7declvalIRT_EEEEOSD_
FNA:1,0,_ZNSt3__18_IterOpsINS_17_ClassicAlgPolicyEE11__iter_moveB8ne190102IRNS_16reverse_iteratorIPPN7testing8TestInfoEEELi0EEEDTclsr3stdE4movedeclsr3stdE7declvalIRT_EEEEOSB_
FNA:1,12,_ZNSt3__18_IterOpsINS_17_ClassicAlgPolicyEE11__iter_moveB8ne190102IRPNS_12basic_stringIcNS_11char_traitsIcEENS_9allocatorIcEEEELi0EEEDTclsr3stdE4movedeclsr3stdE7declvalIRT_EEEEOSC_
FNA:1,0,_ZNSt3__18_IterOpsINS_17_ClassicAlgPolicyEE11__iter_moveB8ne190102IRPPN7testing8TestInfoELi0EEEDTclsr3stdE4movedeclsr3stdE7declvalIRT_EEEEOS9_
FNL:2,137,139
FNA:2,0,_ZNSt3__18_IterOpsINS_17_ClassicAlgPolicyEE9iter_swapB8ne190102IRNS_11__wrap_iterIPN7testing8internal13edit_distance8EditTypeEEESB_EEvOT_OT0_
FNA:2,0,_ZNSt3__18_IterOpsINS_17_ClassicAlgPolicyEE9iter_swapB8ne190102IRNS_11__wrap_iterIPNS_12basic_stringIcNS_11char_traitsIcEENS_9allocatorIcEEEEEESD_EEvOT_OT0_
FNA:2,0,_ZNSt3__18_IterOpsINS_17_ClassicAlgPolicyEE9iter_swapB8ne190102IRNS_11__wrap_iterIPPN7testing8TestInfoEEESA_EEvOT_OT0_
FNL:3,143,144
FNA:3,7,_ZNSt3__18_IterOpsINS_17_ClassicAlgPolicyEE4nextB8ne190102INS_11__wrap_iterIPNS_12basic_stringIcNS_11char_traitsIcEENS_9allocatorIcEEEEEEEET_SD_SD_
FNA:3,0,_ZNSt3__18_IterOpsINS_17_ClassicAlgPolicyEE4nextB8ne190102INS_11__wrap_iterIPPN7testing8TestInfoEEEEET_SA_SA_
FNA:3,0,_ZNSt3__18_IterOpsINS_17_ClassicAlgPolicyEE4nextB8ne190102IPNS_12basic_stringIcNS_11char_traitsIcEENS_9allocatorIcEEEEEET_SB_SB_
FNL:4,149,150
FNA:4,0,_ZNSt3__18_IterOpsINS_17_ClassicAlgPolicyEE4nextB8ne190102IRNS_11__wrap_iterIPPN7testing8TestInfoEEEEEu14__remove_cvrefIT_EOSB_NS_15iterator_traitsISC_E15difference_typeE
FNL:5,156,157
FNA:5,0,_ZNSt3__18_IterOpsINS_17_ClassicAlgPolicyEE4prevB8ne190102IRNS_11__wrap_iterIPPN7testing8TestInfoEEEEEu14__remove_cvrefIT_EOSB_NS_15iterator_traitsISC_E15difference_typeE
FNL:6,85,87
FNA:6,0,_ZNSt3__18_IterOpsINS_17_ClassicAlgPolicyEE7advanceB8ne190102INS_11__wrap_iterIPPN7testing8TestInfoEEElEEvRT_T0_
FNL:7,92,93
FNA:7,0,_ZNSt3__18_IterOpsINS_17_ClassicAlgPolicyEE8distanceB8ne190102INS_11__wrap_iterIPPN7testing8TestInfoEEEEENS_15iterator_traitsIT_E15difference_typeESB_SB_
FNF:8
FNH:3
DA:85,0
DA:86,0
DA:87,0
DA:92,0
DA:93,0
DA:103,12
DA:109,12
DA:117,12
DA:118,12
DA:120,12
DA:137,0
DA:138,0
DA:139,0
DA:143,7
DA:144,7
DA:149,0
DA:150,0
DA:156,0
DA:157,0
LF:19
LH:7
end_of_record
TN:
SF:/Library/Developer/CommandLineTools/SDKs/MacOSX.sdk/usr/include/c++/v1/__algorithm/lower_bound.h
FNL:0,31,48
FNA:0,0,_ZNSt3__123__lower_bound_bisectingB8ne190102INS_17_ClassicAlgPolicyENS_11__wrap_iterIPPN7testing8TestInfoEEES5_NS_10__identityEZNS3_9TestSuite3RunEvE3$_0EET0_SB_RKT1_NS_15iterator_traitsISB_E15difference_typeERT3_RT2_
FNL:1,88,90
FNA:1,0,_ZNSt3__113__lower_boundB8ne190102INS_17_ClassicAlgPolicyENS_11__wrap_iterIPPN7testing8TestInfoEEES7_S5_NS_10__identityEZNS3_9TestSuite3RunEvE3$_0EET0_SB_T1_RKT2_RT4_RT3_
FNL:2,95,98
FNA:2,0,_ZNSt3__111lower_boundB8ne190102INS_11__wrap_iterIPPN7testing8TestInfoEEES4_ZNS2_9TestSuite3RunEvE3$_0EET_S9_S9_RKT0_T1_
FNF:3
FNH:0
DA:31,0
DA:37,0
DA:38,0
DA:39,0
DA:40,0
DA:41,0
DA:42,0
DA:43,0
DA:44,0
DA:45,0
DA:48,0
DA:88,0
DA:89,0
DA:90,0
DA:95,0
DA:97,0
DA:98,0
LF:17
LH:0
end_of_record
TN:
SF:/Library/Developer/CommandLineTools/SDKs/MacOSX.sdk/usr/include/c++/v1/__algorithm/max.h
FNL:0,29,30
FNA:0,44,_ZNSt3__13maxB8ne190102ImNS_6__lessIvvEEEERKT_S5_S5_T0_
FNL:1,35,36
FNA:1,44,_ZNSt3__13maxB8ne190102ImEERKT_S3_S3_
FNF:2
FNH:2
DA:29,44
DA:30,44
DA:35,44
DA:36,44
LF:4
LH:4
end_of_record
TN:
SF:/Library/Developer/CommandLineTools/SDKs/MacOSX.sdk/usr/include/c++/v1/__algorithm/min.h
FNL:0,29,30
FNA:0,0,_ZNSt3__13minB8ne190102IdNS_6__lessIvvEEEERKT_S5_S5_T0_
FNA:0,50,_ZNSt3__13minB8ne190102ImNS_6__lessIvvEEEERKT_S5_S5_T0_
FNL:1,35,36
FNA:1,0,_ZNSt3__13minB8ne190102IdEERKT_S3_S3_
FNA:1,50,_ZNSt3__13minB8ne190102ImEERKT_S3_S3_
FNF:2
FNH:2
DA:29,50
DA:30,50
DA:35,50
DA:36,50
LF:4
LH:4
end_of_record
TN:
SF:/Library/Developer/CommandLineTools/SDKs/MacOSX.sdk/usr/include/c++/v1/__algorithm/move.h
FNL:0,102,103
FNA:0,0,_ZNKSt3__111__move_implINS_17_ClassicAlgPolicyEEclB8ne190102IPN7testing17TestEventListenerES6_Li0EEENS_4pairIPT_PT0_EES9_S9_SB_
FNA:0,0,_ZNKSt3__111__move_implINS_17_ClassicAlgPolicyEEclB8ne190102IPN7testing8TestInfoES6_Li0EEENS_4pairIPT_PT0_EES9_S9_SB_
FNA:0,0,_ZNKSt3__111__move_implINS_17_ClassicAlgPolicyEEclB8ne190102IPN7testing9TestSuiteES6_Li0EEENS_4pairIPT_PT0_EES9_S9_SB_
FNL:1,109,111
FNA:1,7,_ZNSt3__16__moveB8ne190102INS_17_ClassicAlgPolicyENS_11__wrap_iterIPNS_12basic_stringIcNS_11char_traitsIcEENS_9allocatorIcEEEEEESA_NS_15insert_iteratorINS_13unordered_setIS8_NS_4hashIS8_EENS_8equal_toIS8_EENS6_IS8_EEEEEEEENS_4pairIT0_T2_EESL_T1_SM_
FNA:1,7,_ZNSt3__16__moveB8ne190102INS_17_ClassicAlgPolicyENS_11__wrap_iterIPNS_12basic_stringIcNS_11char_traitsIcEENS_9allocatorIcEEEEEESA_NS_15insert_iteratorINS_6vectorIS8_NS6_IS8_EEEEEEEENS_4pairIT0_T2_EESH_T1_SI_
FNA:1,0,_ZNSt3__16__moveB8ne190102INS_17_ClassicAlgPolicyENS_11__wrap_iterIPPN7testing8TestInfoEEES7_S7_EENS_4pairIT0_T2_EES9_T1_SA_
FNA:1,0,_ZNSt3__16__moveB8ne190102INS_17_ClassicAlgPolicyENS_16reverse_iteratorIPPN7testing8TestInfoEEES7_NS2_INS_11__wrap_iterIS6_EEEEEENS_4pairIT0_T2_EESC_T1_SD_
FNA:1,0,_ZNSt3__16__moveB8ne190102INS_17_ClassicAlgPolicyEPNS_12basic_stringIcNS_11char_traitsIcEENS_9allocatorIcEEEES8_S8_EENS_4pairIT0_T2_EESA_T1_SB_
FNA:1,0,_ZNSt3__16__moveB8ne190102INS_17_ClassicAlgPolicyEPPN7testing17TestEventListenerES5_S5_EENS_4pairIT0_T2_EES7_T1_S8_
FNA:1,0,_ZNSt3__16__moveB8ne190102INS_17_ClassicAlgPolicyEPPN7testing8TestInfoES5_NS_11__wrap_iterIS5_EEEENS_4pairIT0_T2_EES9_T1_SA_
FNA:1,0,_ZNSt3__16__moveB8ne190102INS_17_ClassicAlgPolicyEPPN7testing9TestSuiteES5_S5_EENS_4pairIT0_T2_EES7_T1_S8_
FNL:2,116,120
FNA:2,7,_ZNSt3__14moveB8ne190102INS_11__wrap_iterIPNS_12basic_stringIcNS_11char_traitsIcEENS_9allocatorIcEEEEEENS_15insert_iteratorINS_13unordered_setIS7_NS_4hashIS7_EENS_8equal_toIS7_EENS5_IS7_EEEEEEEET0_T_SK_SJ_
FNA:2,7,_ZNSt3__14moveB8ne190102INS_11__wrap_iterIPNS_12basic_stringIcNS_11char_traitsIcEENS_9allocatorIcEEEEEENS_15insert_iteratorINS_6vectorIS7_NS5_IS7_EEEEEEEET0_T_SG_SF_
FNA:2,0,_ZNSt3__14moveB8ne190102IPNS_12basic_stringIcNS_11char_traitsIcEENS_9allocatorIcEEEES7_EET0_T_S9_S8_
FNA:2,0,_ZNSt3__14moveB8ne190102IPPN7testing17TestEventListenerES4_EET0_T_S6_S5_
FNA:2,0,_ZNSt3__14moveB8ne190102IPPN7testing9TestSuiteES4_EET0_T_S6_S5_
FNL:3,40,46
FNA:3,0,_ZNKSt3__111__move_implINS_17_ClassicAlgPolicyEEclB8ne190102INS_16reverse_iteratorIPPN7testing8TestInfoEEES9_NS4_INS_11__wrap_iterIS8_EEEEEENS_4pairIT_T1_EESE_T0_SF_
FNA:3,7,_ZNKSt3__111__move_implINS_17_ClassicAlgPolicyEEclB8ne190102IPNS_12basic_stringIcNS_11char_traitsIcEENS_9allocatorIcEEEESA_NS_15insert_iteratorINS_13unordered_setIS9_NS_4hashIS9_EENS_8equal_toIS9_EENS7_IS9_EEEEEEEENS_4pairIT_T1_EESL_T0_SM_
FNA:3,7,_ZNKSt3__111__move_implINS_17_ClassicAlgPolicyEEclB8ne190102IPNS_12basic_stringIcNS_11char_traitsIcEENS_9allocatorIcEEEESA_NS_15insert_iteratorINS_6vectorIS9_NS7_IS9_EEEEEEEENS_4pairIT_T1_EESH_T0_SI_
FNA:3,0,_ZNKSt3__111__move_implINS_17_ClassicAlgPolicyEEclB8ne190102IPNS_12basic_stringIcNS_11char_traitsIcEENS_9allocatorIcEEEESA_SA_EENS_4pairIT_T1_EESC_T0_SD_
FNF:4
FNH:3
DA:40,14
DA:41,26
DA:42,12
DA:43,12
DA:44,12
DA:46,14
DA:102,0
DA:103,0
DA:109,14
DA:110,14
DA:111,14
DA:116,14
DA:120,14
LF:13
LH:11
end_of_record
TN:
SF:/Library/Developer/CommandLineTools/SDKs/MacOSX.sdk/usr/include/c++/v1/__algorithm/move_backward.h
FNL:0,111,112
FNA:0,0,_ZNKSt3__120__move_backward_implINS_17_ClassicAlgPolicyEEclB8ne190102IPN7testing8TestInfoES6_Li0EEENS_4pairIPT_PT0_EES9_S9_SB_
FNA:0,0,_ZNKSt3__120__move_backward_implINS_17_ClassicAlgPolicyEEclB8ne190102IPN7testing9TestSuiteES6_Li0EEENS_4pairIPT_PT0_EES9_S9_SB_
FNL:1,118,124
FNA:1,0,_ZNSt3__115__move_backwardB8ne190102INS_17_ClassicAlgPolicyENS_11__wrap_iterIPPN7testing8TestInfoEEES7_S7_EENS_4pairIT0_T2_EES9_T1_SA_
FNA:1,0,_ZNSt3__115__move_backwardB8ne190102INS_17_ClassicAlgPolicyEPNS_12basic_stringIcNS_11char_traitsIcEENS_9allocatorIcEEEES8_S8_EENS_4pairIT0_T2_EESA_T1_SB_
FNA:1,0,_ZNSt3__115__move_backwardB8ne190102INS_17_ClassicAlgPolicyEPPN7testing9TestSuiteES5_S5_EENS_4pairIT0_T2_EES7_T1_S8_
FNL:2,129,130
FNA:2,0,_ZNSt3__113move_backwardB8ne190102IPNS_12basic_stringIcNS_11char_traitsIcEENS_9allocatorIcEEEES7_EET0_T_S9_S8_
FNA:2,0,_ZNSt3__113move_backwardB8ne190102IPPN7testing9TestSuiteES4_EET0_T_S6_S5_
FNL:3,39,47
FNA:3,0,_ZNKSt3__120__move_backward_implINS_17_ClassicAlgPolicyEEclB8ne190102IPNS_12basic_stringIcNS_11char_traitsIcEENS_9allocatorIcEEEESA_SA_EENS_4pairIT_T1_EESC_T0_SD_
FNF:4
FNH:0
DA:39,0
DA:40,0
DA:41,0
DA:43,0
DA:44,0
DA:47,0
DA:111,0
DA:112,0
DA:118,0
DA:123,0
DA:124,0
DA:129,0
DA:130,0
LF:13
LH:0
end_of_record
TN:
SF:/Library/Developer/CommandLineTools/SDKs/MacOSX.sdk/usr/include/c++/v1/__algorithm/partition.h
FNL:0,50,69
FNA:0,7,_ZNSt3__116__partition_implB8ne190102IRPFbRKNS_12basic_stringIcNS_11char_traitsIcEENS_9allocatorIcEEEEENS_17_ClassicAlgPolicyENS_11__wrap_iterIPS6_EESF_EENS_4pairIT1_SH_EESH_T2_T_NS_26bidirectional_iterator_tagE
FNL:1,73,75
FNA:1,7,_ZNSt3__111__partitionB8ne190102INS_17_ClassicAlgPolicyENS_11__wrap_iterIPNS_12basic_stringIcNS_11char_traitsIcEENS_9allocatorIcEEEEEESA_RPFbRKS8_ENS_26random_access_iterator_tagEEENS_4pairIT0_SI_EESI_T1_OT2_T3_
FNL:2,80,83
FNA:2,7,_ZNSt3__19partitionB8ne190102INS_11__wrap_iterIPNS_12basic_stringIcNS_11char_traitsIcEENS_9allocatorIcEEEEEEPFbRKS7_EEET_SE_SE_T0_
FNF:3
FNH:3
DA:50,7
DA:51,7
DA:52,7
DA:54,7
DA:55,19
DA:56,19
DA:57,7
DA:58,12
DA:59,0
DA:60,12
DA:62,0
DA:63,0
DA:64,0
DA:65,0
DA:66,0
DA:67,0
DA:69,7
DA:73,7
DA:74,7
DA:75,7
DA:80,7
DA:82,7
DA:83,7
LF:23
LH:16
end_of_record
TN:
SF:/Library/Developer/CommandLineTools/SDKs/MacOSX.sdk/usr/include/c++/v1/__algorithm/reverse.h
FNL:0,40,44
FNA:0,0,_ZNSt3__114__reverse_implB8ne190102INS_17_ClassicAlgPolicyENS_11__wrap_iterIPN7testing8internal13edit_distance8EditTypeEEEEEvT0_S9_NS_26random_access_iterator_tagE
FNL:1,47,50
FNA:1,0,_ZNSt3__19__reverseB8ne190102INS_17_ClassicAlgPolicyENS_11__wrap_iterIPN7testing8internal13edit_distance8EditTypeEEES8_EEvT0_T1_
FNL:2,54,56
FNA:2,0,_ZNSt3__17reverseB8ne190102INS_11__wrap_iterIPN7testing8internal13edit_distance8EditTypeEEEEEvT_S8_
FNF:3
FNH:0
DA:40,0
DA:41,0
DA:42,0
DA:43,0
DA:44,0
DA:47,0
DA:49,0
DA:50,0
DA:54,0
DA:55,0
DA:56,0
LF:11
LH:0
end_of_record
TN:
SF:/Library/Developer/CommandLineTools/SDKs/MacOSX.sdk/usr/include/c++/v1/__algorithm/rotate.h
FNL:0,155,169
FNA:0,0,_ZNSt3__113__rotate_implB8ne190102INS_17_ClassicAlgPolicyENS_11__wrap_iterIPPN7testing8TestInfoEEEEET0_S8_S8_S8_NS_26random_access_iterator_tagE
FNL:1,173,186
FNA:1,0,_ZNSt3__18__rotateB8ne190102INS_17_ClassicAlgPolicyENS_11__wrap_iterIPPN7testing8TestInfoEEES7_EENS_4pairIT0_S9_EES9_S9_T1_
FNL:2,33,40
FNA:2,0,_ZNSt3__113__rotate_leftB8ne190102INS_17_ClassicAlgPolicyENS_11__wrap_iterIPPN7testing8TestInfoEEEEET0_S8_S8_
FNL:3,45,53
FNA:3,0,_ZNSt3__114__rotate_rightB8ne190102INS_17_ClassicAlgPolicyENS_11__wrap_iterIPPN7testing8TestInfoEEEEET0_S8_S8_
FNL:4,86,92
FNA:4,0,_ZNSt3__110__algo_gcdB8ne190102IlEET_S1_S1_
FNL:5,97,125
FNA:5,0,_ZNSt3__112__rotate_gcdB8ne190102INS_17_ClassicAlgPolicyENS_11__wrap_iterIPPN7testing8TestInfoEEEEET0_S8_S8_S8_
FNF:6
FNH:0
DA:33,0
DA:37,0
DA:38,0
DA:39,0
DA:40,0
DA:45,0
DA:49,0
DA:50,0
DA:51,0
DA:52,0
DA:53,0
DA:86,0
DA:87,0
DA:88,0
DA:89,0
DA:90,0
DA:91,0
DA:92,0
DA:97,0
DA:102,0
DA:103,0
DA:104,0
DA:105,0
DA:106,0
DA:108,0
DA:109,0
DA:110,0
DA:111,0
DA:112,0
DA:113,0
DA:114,0
DA:115,0
DA:116,0
DA:117,0
DA:118,0
DA:120,0
DA:121,0
DA:122,0
DA:124,0
DA:125,0
DA:155,0
DA:162,0
DA:163,0
DA:164,0
DA:165,0
DA:166,0
DA:169,0
DA:173,0
DA:175,0
DA:177,0
DA:178,0
DA:179,0
DA:180,0
DA:183,0
DA:185,0
DA:186,0
LF:56
LH:0
end_of_record
TN:
SF:/Library/Developer/CommandLineTools/SDKs/MacOSX.sdk/usr/include/c++/v1/__algorithm/sort.h
FNL:0,284,305
FNA:0,3,_ZNSt3__116__insertion_sortB8ne190102INS_17_ClassicAlgPolicyERZN7testing9TestSuite3RunEvE3$_0NS_11__wrap_iterIPPNS2_8TestInfoEEEEEvT1_SB_T0_
FNF:1
FNH:1
DA:284,3
DA:288,3
DA:289,0
DA:290,3
DA:291,11
DA:292,8
DA:293,8
DA:294,8
DA:295,0
DA:296,0
DA:297,0
DA:298,0
DA:299,0
DA:300,0
DA:301,0
DA:302,0
DA:303,0
DA:304,8
DA:305,3
LF:19
LH:9
end_of_record
TN:
SF:/Library/Developer/CommandLineTools/SDKs/MacOSX.sdk/usr/include/c++/v1/__algorithm/stable_sort.h
FNL:0,109,134
FNA:0,0,_ZNSt3__119__merge_move_assignB8ne190102INS_17_ClassicAlgPolicyERZN7testing9TestSuite3RunEvE3$_0PPNS2_8TestInfoES8_NS_11__wrap_iterIS8_EEEEvT1_SB_T2_SC_T3_T0_
FNL:1,145,185
FNA:1,0,_ZNSt3__118__stable_sort_moveINS_17_ClassicAlgPolicyERZN7testing9TestSuite3RunEvE3$_0NS_11__wrap_iterIPPNS2_8TestInfoEEEEEvT1_SB_T0_NS_15iterator_traitsISB_E15difference_typeEPNSE_10value_typeE
FNL:2,193,235
FNA:2,4,_ZNSt3__113__stable_sortINS_17_ClassicAlgPolicyERZN7testing9TestSuite3RunEvE3$_0NS_11__wrap_iterIPPNS2_8TestInfoEEEEEvT1_SB_T0_NS_15iterator_traitsISB_E15difference_typeEPNSE_10value_typeEl
FNL:3,239,256
FNA:3,4,_ZNSt3__118__stable_sort_implB8ne190102INS_17_ClassicAlgPolicyENS_11__wrap_iterIPPN7testing8TestInfoEEEZNS3_9TestSuite3RunEvE3$_0EEvT0_SA_RT1_
FNL:4,260,262
FNA:4,4,_ZNSt3__111stable_sortB8ne190102INS_11__wrap_iterIPPN7testing8TestInfoEEEZNS2_9TestSuite3RunEvE3$_0EEvT_S9_T0_
FNL:5,38,68
FNA:5,0,_ZNSt3__121__insertion_sort_moveB8ne190102INS_17_ClassicAlgPolicyERZN7testing9TestSuite3RunEvE3$_0NS_11__wrap_iterIPPNS2_8TestInfoEEEEEvT1_SB_PNS_15iterator_traitsISB_E10value_typeET0_
FNL:6,71,106
FNA:6,0,_ZNSt3__122__merge_move_constructB8ne190102INS_17_ClassicAlgPolicyERZN7testing9TestSuite3RunEvE3$_0NS_11__wrap_iterIPPNS2_8TestInfoEEESA_EEvT1_SB_T2_SC_PNS_15iterator_traitsISB_E10value_typeET0_
FNF:7
FNH:3
DA:38,0
DA:46,0
DA:47,0
DA:48,0
DA:49,0
DA:50,0
DA:51,0
DA:52,0
DA:53,0
DA:54,0
DA:55,0
DA:56,0
DA:57,0
DA:58,0
DA:59,0
DA:60,0
DA:61,0
DA:62,0
DA:63,0
DA:65,0
DA:66,0
DA:67,0
DA:68,0
DA:71,0
DA:81,0
DA:82,0
DA:83,0
DA:84,0
DA:85,0
DA:86,0
DA:87,0
DA:88,0
DA:90,0
DA:91,0
DA:92,0
DA:93,0
DA:94,0
DA:96,0
DA:97,0
DA:98,0
DA:99,0
DA:100,0
DA:101,0
DA:102,0
DA:103,0
DA:105,0
DA:106,0
DA:109,0
DA:118,0
DA:119,0
DA:120,0
DA:121,0
DA:122,0
DA:124,0
DA:125,0
DA:126,0
DA:127,0
DA:128,0
DA:129,0
DA:131,0
DA:132,0
DA:133,0
DA:134,0
DA:145,0
DA:153,0
DA:155,0
DA:157,0
DA:158,0
DA:160,0
DA:161,0
DA:162,0
DA:163,0
DA:164,0
DA:165,0
DA:166,0
DA:167,0
DA:168,0
DA:169,0
DA:170,0
DA:171,0
DA:173,0
DA:175,0
DA:176,0
DA:177,0
DA:178,0
DA:180,0
DA:181,0
DA:182,0
DA:183,0
DA:184,0
DA:185,0
DA:193,4
DA:201,4
DA:204,1
DA:206,0
DA:207,0
DA:208,0
DA:210,3
DA:211,3
DA:212,3
DA:214,0
DA:215,0
DA:216,0
DA:217,0
DA:218,0
DA:219,0
DA:220,0
DA:221,0
DA:222,0
DA:223,0
DA:224,0
DA:231,0
DA:232,0
DA:233,0
DA:234,0
DA:235,4
DA:239,4
DA:243,4
DA:244,4
DA:245,4
DA:246,4
DA:249,0
DA:251,0
DA:252,0
DA:254,4
DA:255,4
DA:256,4
DA:260,4
DA:261,4
DA:262,4
LF:130
LH:18
end_of_record
TN:
SF:/Library/Developer/CommandLineTools/SDKs/MacOSX.sdk/usr/include/c++/v1/__algorithm/swap_ranges.h
FNL:0,29,36
FNA:0,0,_ZNSt3__113__swap_rangesB8ne190102INS_17_ClassicAlgPolicyENS_11__wrap_iterIPPN7testing8TestInfoEEES7_S7_S7_EENS_4pairIT0_T2_EES9_T1_SA_T3_
FNF:1
FNH:0
DA:29,0
DA:30,0
DA:31,0
DA:32,0
DA:33,0
DA:36,0
LF:6
LH:0
end_of_record
TN:
SF:/Library/Developer/CommandLineTools/SDKs/MacOSX.sdk/usr/include/c++/v1/__algorithm/unwrap_iter.h
FNL:0,39,39
FNA:0,7,_ZNSt3__118__unwrap_iter_implINS_15insert_iteratorINS_13unordered_setINS_12basic_stringIcNS_11char_traitsIcEENS_9allocatorIcEEEENS_4hashIS8_EENS_8equal_toIS8_EENS6_IS8_EEEEEELb0EE8__rewrapB8ne190102ESF_SF_
FNA:0,7,_ZNSt3__118__unwrap_iter_implINS_15insert_iteratorINS_6vectorINS_12basic_stringIcNS_11char_traitsIcEENS_9allocatorIcEEEENS6_IS8_EEEEEELb0EE8__rewrapB8ne190102ESB_SB_
FNA:0,0,_ZNSt3__118__unwrap_iter_implINS_16reverse_iteratorINS_11__wrap_iterIPPN7testing8TestInfoEEEEELb0EE8__rewrapB8ne190102ES8_S8_
FNA:0,0,_ZNSt3__118__unwrap_iter_implINS_16reverse_iteratorIPPN7testing8TestInfoEEELb0EE8__rewrapB8ne190102ES6_S6_
FNL:1,40,40
FNA:1,7,_ZNSt3__118__unwrap_iter_implINS_15insert_iteratorINS_13unordered_setINS_12basic_stringIcNS_11char_traitsIcEENS_9allocatorIcEEEENS_4hashIS8_EENS_8equal_toIS8_EENS6_IS8_EEEEEELb0EE8__unwrapB8ne190102ESF_
FNA:1,7,_ZNSt3__118__unwrap_iter_implINS_15insert_iteratorINS_6vectorINS_12basic_stringIcNS_11char_traitsIcEENS_9allocatorIcEEEENS6_IS8_EEEEEELb0EE8__unwrapB8ne190102ESB_
FNA:1,0,_ZNSt3__118__unwrap_iter_implINS_16reverse_iteratorINS_11__wrap_iterIPPN7testing8TestInfoEEEEELb0EE8__unwrapB8ne190102ES8_
FNA:1,0,_ZNSt3__118__unwrap_iter_implINS_16reverse_iteratorIPPN7testing8TestInfoEEELb0EE8__unwrapB8ne190102ES6_
FNL:2,51,52
FNA:2,0,_ZNSt3__118__unwrap_iter_implINS_11__wrap_iterIPKNS_12basic_stringIcNS_11char_traitsIcEENS_9allocatorIcEEEEEELb1EE8__rewrapB8ne190102ESA_S9_
FNA:2,14,_ZNSt3__118__unwrap_iter_implINS_11__wrap_iterIPNS_12basic_stringIcNS_11char_traitsIcEENS_9allocatorIcEEEEEELb1EE8__rewrapB8ne190102ES9_S8_
FNA:2,0,_ZNSt3__118__unwrap_iter_implINS_11__wrap_iterIPPN7testing8TestInfoEEELb1EE8__rewrapB8ne190102ES6_S5_
FNA:2,0,_ZNSt3__118__unwrap_iter_implIPN7testing8internal13edit_distance8EditTypeELb1EE8__rewrapB8ne190102ES5_S5_
FNA:2,1,_ZNSt3__118__unwrap_iter_implIPNS_12basic_stringIcNS_11char_traitsIcEENS_9allocatorIcEEEELb1EE8__rewrapB8ne190102ES7_S7_
FNA:2,0,_ZNSt3__118__unwrap_iter_implIPPN7testing17TestEventListenerELb1EE8__rewrapB8ne190102ES4_S4_
FNA:2,0,_ZNSt3__118__unwrap_iter_implIPPN7testing8TestInfoELb1EE8__rewrapB8ne190102ES4_S4_
FNA:2,0,_ZNSt3__118__unwrap_iter_implIPPN7testing9TestSuiteELb1EE8__rewrapB8ne190102ES4_S4_
FNA:2,0,_ZNSt3__118__unwrap_iter_implIPdLb1EE8__rewrapB8ne190102ES1_S1_
FNL:3,55,56
FNA:3,0,_ZNSt3__118__unwrap_iter_implINS_11__wrap_iterIPKNS_12basic_stringIcNS_11char_traitsIcEENS_9allocatorIcEEEEEELb1EE8__unwrapB8ne190102ESA_
FNA:3,28,_ZNSt3__118__unwrap_iter_implINS_11__wrap_iterIPNS_12basic_stringIcNS_11char_traitsIcEENS_9allocatorIcEEEEEELb1EE8__unwrapB8ne190102ES9_
FNA:3,0,_ZNSt3__118__unwrap_iter_implINS_11__wrap_iterIPPN7testing8TestInfoEEELb1EE8__unwrapB8ne190102ES6_
FNA:3,0,_ZNSt3__118__unwrap_iter_implIPKPKcLb1EE8__unwrapB8ne190102ES4_
FNA:3,0,_ZNSt3__118__unwrap_iter_implIPN7testing8internal13edit_distance8EditTypeELb1EE8__unwrapB8ne190102ES5_
FNA:3,3,_ZNSt3__118__unwrap_iter_implIPNS_12basic_stringIcNS_11char_traitsIcEENS_9allocatorIcEEEELb1EE8__unwrapB8ne190102ES7_
FNA:3,0,_ZNSt3__118__unwrap_iter_implIPPN7testing17TestEventListenerELb1EE8__unwrapB8ne190102ES4_
FNA:3,0,_ZNSt3__118__unwrap_iter_implIPPN7testing8TestInfoELb1EE8__unwrapB8ne190102ES4_
FNA:3,0,_ZNSt3__118__unwrap_iter_implIPPN7testing9TestSuiteELb1EE8__unwrapB8ne190102ES4_
FNA:3,0,_ZNSt3__118__unwrap_iter_implIPdLb1EE8__unwrapB8ne190102ES1_
FNL:4,64,65
FNA:4,0,_ZNSt3__113__unwrap_iterB8ne190102INS_11__wrap_iterIPKNS_12basic_stringIcNS_11char_traitsIcEENS_9allocatorIcEEEEEENS_18__unwrap_iter_implISA_Lb1EEELi0EEEDTclsrT0_8__unwrapclsr3stdE7declvalIT_EEEESE_
FNA:4,28,_ZNSt3__113__unwrap_iterB8ne190102INS_11__wrap_iterIPNS_12basic_stringIcNS_11char_traitsIcEENS_9allocatorIcEEEEEENS_18__unwrap_iter_implIS9_Lb1EEELi0EEEDTclsrT0_8__unwrapclsr3stdE7declvalIT_EEEESD_
FNA:4,0,_ZNSt3__113__unwrap_iterB8ne190102INS_11__wrap_iterIPPN7testing8TestInfoEEENS_18__unwrap_iter_implIS6_Lb1EEELi0EEEDTclsrT0_8__unwrapclsr3stdE7declvalIT_EEEESA_
FNA:4,7,_ZNSt3__113__unwrap_iterB8ne190102INS_15insert_iteratorINS_13unordered_setINS_12basic_stringIcNS_11char_traitsIcEENS_9allocatorIcEEEENS_4hashIS8_EENS_8equal_toIS8_EENS6_IS8_EEEEEENS_18__unwrap_iter_implISF_Lb0EEELi0EEEDTclsrT0_8__unwrapclsr3stdE7declvalIT_EEEESJ_
FNA:4,7,_ZNSt3__113__unwrap_iterB8ne190102INS_15insert_iteratorINS_6vectorINS_12basic_stringIcNS_11char_traitsIcEENS_9allocatorIcEEEENS6_IS8_EEEEEENS_18__unwrap_iter_implISB_Lb0EEELi0EEEDTclsrT0_8__unwrapclsr3stdE7declvalIT_EEEESF_
FNA:4,0,_ZNSt3__113__unwrap_iterB8ne190102INS_16reverse_iteratorINS_11__wrap_iterIPPN7testing8TestInfoEEEEENS_18__unwrap_iter_implIS8_Lb0EEELi0EEEDTclsrT0_8__unwrapclsr3stdE7declvalIT_EEEESC_
FNA:4,0,_ZNSt3__113__unwrap_iterB8ne190102INS_16reverse_iteratorIPPN7testing8TestInfoEEENS_18__unwrap_iter_implIS6_Lb0EEELi0EEEDTclsrT0_8__unwrapclsr3stdE7declvalIT_EEEESA_
FNA:4,0,_ZNSt3__113__unwrap_iterB8ne190102IPKPKcNS_18__unwrap_iter_implIS4_Lb1EEELi0EEEDTclsrT0_8__unwrapclsr3stdE7declvalIT_EEEES8_
FNA:4,0,_ZNSt3__113__unwrap_iterB8ne190102IPN7testing8internal13edit_distance8EditTypeENS_18__unwrap_iter_implIS5_Lb1EEELi0EEEDTclsrT0_8__unwrapclsr3stdE7declvalIT_EEEES9_
FNA:4,3,_ZNSt3__113__unwrap_iterB8ne190102IPNS_12basic_stringIcNS_11char_traitsIcEENS_9allocatorIcEEEENS_18__unwrap_iter_implIS7_Lb1EEELi0EEEDTclsrT0_8__unwrapclsr3stdE7declvalIT_EEEESB_
FNA:4,0,_ZNSt3__113__unwrap_iterB8ne190102IPPN7testing17TestEventListenerENS_18__unwrap_iter_implIS4_Lb1EEELi0EEEDTclsrT0_8__unwrapclsr3stdE7declvalIT_EEEES8_
FNA:4,0,_ZNSt3__113__unwrap_iterB8ne190102IPPN7testing8TestInfoENS_18__unwrap_iter_implIS4_Lb1EEELi0EEEDTclsrT0_8__unwrapclsr3stdE7declvalIT_EEEES8_
FNA:4,0,_ZNSt3__113__unwrap_iterB8ne190102IPPN7testing9TestSuiteENS_18__unwrap_iter_implIS4_Lb1EEELi0EEEDTclsrT0_8__unwrapclsr3stdE7declvalIT_EEEES8_
FNA:4,0,_ZNSt3__113__unwrap_iterB8ne190102IPdNS_18__unwrap_iter_implIS1_Lb1EEELi0EEEDTclsrT0_8__unwrapclsr3stdE7declvalIT_EEEES5_
FNL:5,77,78
FNA:5,0,_ZNSt3__113__rewrap_iterB8ne190102INS_11__wrap_iterIPKNS_12basic_stringIcNS_11char_traitsIcEENS_9allocatorIcEEEEEES9_NS_18__unwrap_iter_implISA_Lb1EEEEET_SD_T0_
FNA:5,14,_ZNSt3__113__rewrap_iterB8ne190102INS_11__wrap_iterIPNS_12basic_stringIcNS_11char_traitsIcEENS_9allocatorIcEEEEEES8_NS_18__unwrap_iter_implIS9_Lb1EEEEET_SC_T0_
FNA:5,0,_ZNSt3__113__rewrap_iterB8ne190102INS_11__wrap_iterIPPN7testing8TestInfoEEES5_NS_18__unwrap_iter_implIS6_Lb1EEEEET_S9_T0_
FNA:5,7,_ZNSt3__113__rewrap_iterB8ne190102INS_15insert_iteratorINS_13unordered_setINS_12basic_stringIcNS_11char_traitsIcEENS_9allocatorIcEEEENS_4hashIS8_EENS_8equal_toIS8_EENS6_IS8_EEEEEESF_NS_18__unwrap_iter_implISF_Lb0EEEEET_SI_T0_
FNA:5,7,_ZNSt3__113__rewrap_iterB8ne190102INS_15insert_iteratorINS_6vectorINS_12basic_stringIcNS_11char_traitsIcEENS_9allocatorIcEEEENS6_IS8_EEEEEESB_NS_18__unwrap_iter_implISB_Lb0EEEEET_SE_T0_
FNA:5,0,_ZNSt3__113__rewrap_iterB8ne190102INS_16reverse_iteratorINS_11__wrap_iterIPPN7testing8TestInfoEEEEES8_NS_18__unwrap_iter_implIS8_Lb0EEEEET_SB_T0_
FNA:5,0,_ZNSt3__113__rewrap_iterB8ne190102INS_16reverse_iteratorIPPN7testing8TestInfoEEES6_NS_18__unwrap_iter_implIS6_Lb0EEEEET_S9_T0_
FNA:5,0,_ZNSt3__113__rewrap_iterB8ne190102IPN7testing8internal13edit_distance8EditTypeES5_NS_18__unwrap_iter_implIS5_Lb1EEEEET_S8_T0_
FNA:5,1,_ZNSt3__113__rewrap_iterB8ne190102IPNS_12basic_stringIcNS_11char_traitsIcEENS_9allocatorIcEEEES7_NS_18__unwrap_iter_implIS7_Lb1EEEEET_SA_T0_
FNA:5,0,_ZNSt3__113__rewrap_iterB8ne190102IPPN7testing17TestEventListenerES4_NS_18__unwrap_iter_implIS4_Lb1EEEEET_S7_T0_
FNA:5,0,_ZNSt3__113__rewrap_iterB8ne190102IPPN7testing8TestInfoES4_NS_18__unwrap_iter_implIS4_Lb1EEEEET_S7_T0_
FNA:5,0,_ZNSt3__113__rewrap_iterB8ne190102IPPN7testing9TestSuiteES4_NS_18__unwrap_iter_implIS4_Lb1EEEEET_S7_T0_
FNA:5,0,_ZNSt3__113__rewrap_iterB8ne190102IPdS1_NS_18__unwrap_iter_implIS1_Lb1EEEEET_S4_T0_
FNF:6
FNH:6
DA:39,14
DA:40,14
DA:51,15
DA:52,15
DA:55,31
DA:56,31
DA:64,45
DA:65,45
DA:77,29
DA:78,29
LF:10
LH:10
end_of_record
TN:
SF:/Library/Developer/CommandLineTools/SDKs/MacOSX.sdk/usr/include/c++/v1/__algorithm/unwrap_range.h
FNL:0,85,86
FNA:0,0,_ZNSt3__114__unwrap_rangeB8ne190102INS_11__wrap_iterIPKNS_12basic_stringIcNS_11char_traitsIcEENS_9allocatorIcEEEEEES9_EENS_4pairIT0_SC_EET_SE_
FNA:0,14,_ZNSt3__114__unwrap_rangeB8ne190102INS_11__wrap_iterIPNS_12basic_stringIcNS_11char_traitsIcEENS_9allocatorIcEEEEEES8_EENS_4pairIT0_SB_EET_SD_
FNA:0,0,_ZNSt3__114__unwrap_rangeB8ne190102INS_11__wrap_iterIPPN7testing8TestInfoEEES5_EENS_4pairIT0_S8_EET_SA_
FNA:0,0,_ZNSt3__114__unwrap_rangeB8ne190102INS_16reverse_iteratorIPPN7testing8TestInfoEEES6_EENS_4pairIT0_S8_EET_SA_
FNA:0,0,_ZNSt3__114__unwrap_rangeB8ne190102IPKPKcS4_EENS_4pairIT0_S6_EET_S8_
FNA:0,0,_ZNSt3__114__unwrap_rangeB8ne190102IPN7testing8internal13edit_distance8EditTypeES5_EENS_4pairIT0_S7_EET_S9_
FNA:0,1,_ZNSt3__114__unwrap_rangeB8ne190102IPNS_12basic_stringIcNS_11char_traitsIcEENS_9allocatorIcEEEES7_EENS_4pairIT0_S9_EET_SB_
FNA:0,0,_ZNSt3__114__unwrap_rangeB8ne190102IPPN7testing17TestEventListenerES4_EENS_4pairIT0_S6_EET_S8_
FNA:0,0,_ZNSt3__114__unwrap_rangeB8ne190102IPPN7testing8TestInfoES4_EENS_4pairIT0_S6_EET_S8_
FNA:0,0,_ZNSt3__114__unwrap_rangeB8ne190102IPPN7testing9TestSuiteES4_EENS_4pairIT0_S6_EET_S8_
FNA:0,0,_ZNSt3__114__unwrap_rangeB8ne190102IPdS1_EENS_4pairIT0_S3_EET_S5_
FNL:1,90,91
FNA:1,14,_ZNSt3__114__rewrap_rangeB8ne190102INS_11__wrap_iterIPNS_12basic_stringIcNS_11char_traitsIcEENS_9allocatorIcEEEEEES8_EET_SA_T0_
FNA:1,0,_ZNSt3__114__rewrap_rangeB8ne190102INS_11__wrap_iterIPPN7testing8TestInfoEEES5_EET_S7_T0_
FNA:1,0,_ZNSt3__114__rewrap_rangeB8ne190102INS_16reverse_iteratorIPPN7testing8TestInfoEEES6_EET_S7_T0_
FNA:1,0,_ZNSt3__114__rewrap_rangeB8ne190102IPN7testing8internal13edit_distance8EditTypeES5_EET_S6_T0_
FNA:1,0,_ZNSt3__114__rewrap_rangeB8ne190102IPNS_12basic_stringIcNS_11char_traitsIcEENS_9allocatorIcEEEES7_EET_S8_T0_
FNA:1,0,_ZNSt3__114__rewrap_rangeB8ne190102IPPN7testing17TestEventListenerES4_EET_S5_T0_
FNA:1,0,_ZNSt3__114__rewrap_rangeB8ne190102IPPN7testing8TestInfoES4_EET_S5_T0_
FNA:1,0,_ZNSt3__114__rewrap_rangeB8ne190102IPPN7testing9TestSuiteES4_EET_S5_T0_
FNA:1,0,_ZNSt3__114__rewrap_rangeB8ne190102IPdS1_EET_S2_T0_
FNF:2
FNH:2
DA:85,15
DA:86,15
DA:90,14
DA:91,14
LF:4
LH:4
end_of_record
TN:
SF:/Library/Developer/CommandLineTools/SDKs/MacOSX.sdk/usr/include/c++/v1/__algorithm/upper_bound.h
FNL:0,35,47
FNA:0,0,_ZNSt3__113__upper_boundB8ne190102INS_17_ClassicAlgPolicyERZN7testing9TestSuite3RunEvE3$_0NS_11__wrap_iterIPPNS2_8TestInfoEEESA_S8_NS_10__identityEEET1_SC_T2_RKT3_OT0_OT4_
FNF:1
FNH:0
DA:35,0
DA:36,0
DA:37,0
DA:38,0
DA:39,0
DA:40,0
DA:41,0
DA:43,0
DA:44,0
DA:47,0
LF:10
LH:0
end_of_record
TN:
SF:/Library/Developer/CommandLineTools/SDKs/MacOSX.sdk/usr/include/c++/v1/__atomic/atomic.h
FNL:0,49,49
FNA:0,0,_ZNSt3__16atomicIiEC1B8ne190102Ei
FNA:0,0,_ZNSt3__16atomicIiEC2B8ne190102Ei
FNF:1
FNH:0
DA:49,0
LF:1
LH:0
end_of_record
TN:
SF:/Library/Developer/CommandLineTools/SDKs/MacOSX.sdk/usr/include/c++/v1/__atomic/atomic_base.h
FNL:0,127,127
FNA:0,0,_ZNSt3__113__atomic_baseIiLb0EEC2B8ne190102Ei
FNL:1,140,140
FNA:1,0,_ZNSt3__113__atomic_baseIiLb1EEC2B8ne190102Ei
FNL:2,151,152
FNA:2,0,_ZNSt3__113__atomic_baseIiLb1EE9fetch_subB8ne190102EiNS_12memory_orderE
FNF:3
FNH:0
DA:127,0
DA:140,0
DA:151,0
DA:152,0
LF:4
LH:0
end_of_record
TN:
SF:/Library/Developer/CommandLineTools/SDKs/MacOSX.sdk/usr/include/c++/v1/__atomic/cxx_atomic_impl.h
FNL:0,273,273
FNA:0,0,_ZNSt3__122__cxx_atomic_base_implIiEC2Ei
FNL:1,442,444
FNA:1,0,_ZNSt3__122__cxx_atomic_fetch_subB8ne190102IiEET_PNS_22__cxx_atomic_base_implIS1_EES1_NS_12memory_orderE
FNL:2,505,505
FNA:2,0,_ZNSt3__117__cxx_atomic_implIiNS_22__cxx_atomic_base_implIiEEEC1B8ne190102Ei
FNA:2,0,_ZNSt3__117__cxx_atomic_implIiNS_22__cxx_atomic_base_implIiEEEC2B8ne190102Ei
FNF:3
FNH:0
DA:273,0
DA:442,0
DA:443,0
DA:444,0
DA:505,0
LF:5
LH:0
end_of_record
TN:
SF:/Library/Developer/CommandLineTools/SDKs/MacOSX.sdk/usr/include/c++/v1/__bit/countl.h
FNL:0,34,35
FNA:0,0,_ZNSt3__112__libcpp_clzB8ne190102Em
FNF:1
FNH:0
DA:34,0
DA:35,0
LF:2
LH:0
end_of_record
TN:
SF:/Library/Developer/CommandLineTools/SDKs/MacOSX.sdk/usr/include/c++/v1/__chrono/duration.h
FNL:0,106,107
FNA:0,17,_ZNSt3__16chrono13duration_castB8ne190102INS0_8durationIxNS_5ratioILl1ELl1000EEEEExNS3_ILl1ELl1000000000EEELi0EEET_RKNS2_IT0_T1_EE
FNA:0,18,_ZNSt3__16chrono13duration_castB8ne190102INS0_8durationIxNS_5ratioILl1ELl1000EEEEExNS3_ILl1ELl1000000EEELi0EEET_RKNS2_IT0_T1_EE
FNL:1,210,210
FNA:1,17,_ZNSt3__16chrono8durationIxNS_5ratioILl1ELl1000000000EEEEC1B8ne190102IxLi0EEERKT_
FNA:1,17,_ZNSt3__16chrono8durationIxNS_5ratioILl1ELl1000000000EEEEC2B8ne190102IxLi0EEERKT_
FNA:1,18,_ZNSt3__16chrono8durationIxNS_5ratioILl1ELl1000000EEEEC1B8ne190102IxLi0EEERKT_
FNA:1,18,_ZNSt3__16chrono8durationIxNS_5ratioILl1ELl1000000EEEEC2B8ne190102IxLi0EEERKT_
FNA:1,35,_ZNSt3__16chrono8durationIxNS_5ratioILl1ELl1000EEEEC1B8ne190102IxLi0EEERKT_
FNA:1,35,_ZNSt3__16chrono8durationIxNS_5ratioILl1ELl1000EEEEC2B8ne190102IxLi0EEERKT_
FNL:2,224,224
FNA:2,51,_ZNKSt3__16chrono8durationIxNS_5ratioILl1ELl1000000000EEEE5countB8ne190102Ev
FNA:2,54,_ZNKSt3__16chrono8durationIxNS_5ratioILl1ELl1000000EEEE5countB8ne190102Ev
FNA:2,35,_ZNKSt3__16chrono8durationIxNS_5ratioILl1ELl1000EEEE5countB8ne190102Ev
FNL:3,405,407
FNA:3,17,_ZNSt3__16chronomiB8ne190102IxNS_5ratioILl1ELl1000000000EEExS3_EENS_11common_typeIJNS0_8durationIT_T0_EENS5_IT1_T2_EEEE4typeERKS8_RKSB_
FNA:3,18,_ZNSt3__16chronomiB8ne190102IxNS_5ratioILl1ELl1000000EEExS3_EENS_11common_typeIJNS0_8durationIT_T0_EENS5_IT1_T2_EEEE4typeERKS8_RKSB_
FNL:4,80,83
FNA:4,17,_ZNKSt3__16chrono15__duration_castINS0_8durationIxNS_5ratioILl1ELl1000000000EEEEENS2_IxNS3_ILl1ELl1000EEEEENS3_ILl1ELl1000000EEELb1ELb0EEclB8ne190102ERKS5_
FNA:4,18,_ZNKSt3__16chrono15__duration_castINS0_8durationIxNS_5ratioILl1ELl1000000EEEEENS2_IxNS3_ILl1ELl1000EEEEES6_Lb1ELb0EEclB8ne190102ERKS5_
FNF:5
FNH:5
DA:80,35
DA:82,35
DA:83,35
DA:106,35
DA:107,35
DA:210,140
DA:224,140
DA:405,35
DA:407,35
LF:9
LH:9
end_of_record
TN:
SF:/Library/Developer/CommandLineTools/SDKs/MacOSX.sdk/usr/include/c++/v1/__chrono/time_point.h
FNL:0,210,211
FNA:0,17,_ZNSt3__16chronomiB8ne190102INS0_12steady_clockENS0_8durationIxNS_5ratioILl1ELl1000000000EEEEES6_EENS_11common_typeIJT0_T1_EE4typeERKNS0_10time_pointIT_S8_EERKNSC_ISD_S9_EE
FNA:0,18,_ZNSt3__16chronomiB8ne190102INS0_12system_clockENS0_8durationIxNS_5ratioILl1ELl1000000EEEEES6_EENS_11common_typeIJT0_T1_EE4typeERKNS0_10time_pointIT_S8_EERKNSC_ISD_S9_EE
FNL:1,58,58
FNA:1,34,_ZNKSt3__16chrono10time_pointINS0_12steady_clockENS0_8durationIxNS_5ratioILl1ELl1000000000EEEEEE16time_since_epochB8ne190102Ev
FNA:1,36,_ZNKSt3__16chrono10time_pointINS0_12system_clockENS0_8durationIxNS_5ratioILl1ELl1000000EEEEEE16time_since_epochB8ne190102Ev
FNF:2
FNH:2
DA:58,70
DA:210,35
DA:211,35
LF:3
LH:3
end_of_record
TN:
SF:/Library/Developer/CommandLineTools/SDKs/MacOSX.sdk/usr/include/c++/v1/__debug_utils/strict_weak_ordering_check.h
FNL:0,28,73
FNA:0,4,_ZNSt3__135__check_strict_weak_ordering_sortedB8ne190102INS_11__wrap_iterIPPN7testing8TestInfoEEEZNS2_9TestSuite3RunEvE3$_0EEvT_S9_RT0_
FNF:1
FNH:1
DA:28,4
DA:71,4
DA:73,4
LF:3
LH:3
end_of_record
TN:
SF:/Library/Developer/CommandLineTools/SDKs/MacOSX.sdk/usr/include/c++/v1/__functional/hash.h
FNL:0,131,132
FNA:0,36,_ZNSt3__121__murmur2_or_cityhashImLm64EE8__rotateB8ne190102Emi
FNL:1,135,136
FNA:1,27,_ZNSt3__121__murmur2_or_cityhashImLm64EE22__rotate_by_at_least_1B8ne190102Emi
FNL:2,139,139
FNA:2,0,_ZNSt3__121__murmur2_or_cityhashImLm64EE11__shift_mixB8ne190102Em
FNL:3,141,148
FNA:3,62,_ZNSt3__121__murmur2_or_cityhashImLm64EE13__hash_len_16B8ne190102Emm
FNL:4,152,176
FNA:4,50,_ZNSt3__121__murmur2_or_cityhashImLm64EE18__hash_len_0_to_16B8ne190102EPKcm
FNL:5,179,185
FNA:5,12,_ZNSt3__121__murmur2_or_cityhashImLm64EE19__hash_len_17_to_32B8ne190102EPKcm
FNL:6,191,198
FNA:6,0,_ZNSt3__121__murmur2_or_cityhashImLm64EE29__weak_hash_len_32_with_seedsB8ne190102Emmmmmm
FNL:7,203,210
FNA:7,0,_ZNSt3__121__murmur2_or_cityhashImLm64EE29__weak_hash_len_32_with_seedsB8ne190102EPKcmm
FNL:8,215,235
FNA:8,0,_ZNSt3__121__murmur2_or_cityhashImLm64EE19__hash_len_33_to_64B8ne190102EPKcm
FNL:9,33,36
FNA:9,46,_ZNSt3__110__loadwordB8ne190102IjEET_PKv
FNA:9,102,_ZNSt3__110__loadwordB8ne190102ImEET_PKv
FNL:10,84,122
FNA:10,62,_ZNKSt3__121__murmur2_or_cityhashImLm64EEclB8ne190102EPKvm
FNF:11
FNH:7
DA:33,148
DA:35,148
DA:36,148
DA:84,62
DA:85,62
DA:86,62
DA:87,62
DA:88,50
DA:90,12
DA:92,0
DA:93,0
DA:98,0
DA:99,0
DA:100,0
DA:101,0
DA:102,0
DA:103,0
DA:104,0
DA:107,0
DA:108,0
DA:109,0
DA:110,0
DA:111,0
DA:112,0
DA:113,0
DA:114,0
DA:115,0
DA:116,0
DA:117,0
DA:118,0
DA:119,0
DA:120,0
DA:121,0
DA:122,62
DA:131,36
DA:132,36
DA:135,27
DA:136,27
DA:139,0
DA:141,62
DA:142,62
DA:143,62
DA:144,62
DA:145,62
DA:146,62
DA:147,62
DA:148,62
DA:152,50
DA:153,50
DA:154,27
DA:155,27
DA:156,27
DA:158,23
DA:159,23
DA:160,23
DA:164,23
DA:167,0
DA:168,0
DA:169,0
DA:170,0
DA:171,0
DA:172,0
DA:173,0
DA:175,0
DA:176,50
DA:179,12
DA:180,12
DA:181,12
DA:182,12
DA:183,12
DA:184,12
DA:185,12
DA:191,0
DA:192,0
DA:193,0
DA:194,0
DA:195,0
DA:196,0
DA:197,0
DA:198,0
DA:203,0
DA:204,0
DA:205,0
DA:206,0
DA:207,0
DA:208,0
DA:209,0
DA:210,0
DA:215,0
DA:216,0
DA:217,0
DA:218,0
DA:219,0
DA:220,0
DA:221,0
DA:222,0
DA:223,0
DA:224,0
DA:225,0
DA:226,0
DA:227,0
DA:228,0
DA:229,0
DA:230,0
DA:231,0
DA:232,0
DA:233,0
DA:234,0
DA:235,0
LF:109
LH:39
end_of_record
TN:
SF:/Library/Developer/CommandLineTools/SDKs/MacOSX.sdk/usr/include/c++/v1/__functional/identity.h
FNL:0,29,30
FNA:0,0,_ZNKSt3__110__identityclB8ne190102IRKNS_12basic_stringIcNS_11char_traitsIcEENS_9allocatorIcEEEEEEOT_SB_
FNA:0,0,_ZNKSt3__110__identityclB8ne190102IRPN7testing8TestInfoEEEOT_S7_
FNF:1
FNH:0
DA:29,0
DA:30,0
LF:2
LH:0
end_of_record
TN:
SF:/Library/Developer/CommandLineTools/SDKs/MacOSX.sdk/usr/include/c++/v1/__functional/operations.h
FNL:0,297,298
FNA:0,0,_ZNKSt3__18equal_toINS_12basic_stringIcNS_11char_traitsIcEENS_9allocatorIcEEEEEclB8ne190102ERKS6_S9_
FNL:1,307,310
FNA:1,0,_ZNKSt3__18equal_toIvEclB8ne190102IRKNS_12basic_stringIcNS_11char_traitsIcEENS_9allocatorIcEEEESA_EEDTeqclsr3stdE7forwardIT_Efp_Eclsr3stdE7forwardIT0_Efp0_EEOSB_OSC_
FNA:1,0,_ZNKSt3__18equal_toIvEclB8ne190102IRKNS_17basic_string_viewIcNS_11char_traitsIcEEEERKNS_12basic_stringIcS5_NS_9allocatorIcEEEEEEDTeqclsr3stdE7forwardIT_Efp_Eclsr3stdE7forwardIT0_Efp0_EEOSF_OSG_
FNL:2,358,359
FNA:2,0,_ZNKSt3__14lessINS_12basic_stringIcNS_11char_traitsIcEENS_9allocatorIcEEEEEclB8ne190102ERKS6_S9_
FNL:3,371,374
FNA:3,0,_ZNKSt3__14lessIvEclB8ne190102IRKNS_12basic_stringIcNS_11char_traitsIcEENS_9allocatorIcEEEESA_EEDTltclsr3stdE7forwardIT_Efp_Eclsr3stdE7forwardIT0_Efp0_EEOSB_OSC_
FNF:4
FNH:0
DA:297,0
DA:298,0
DA:307,0
DA:310,0
DA:358,0
DA:359,0
DA:371,0
DA:374,0
LF:8
LH:0
end_of_record
TN:
SF:/Library/Developer/CommandLineTools/SDKs/MacOSX.sdk/usr/include/c++/v1/__hash_table
FNL:0,100
FNA:0,0,_ZNSt3__116__hash_node_baseIPNS_11__hash_nodeINS_12basic_stringIcNS_11char_traitsIcEENS_9allocatorIcEEEEPvEEEC2B8ne190102EPSB_
FNA:0,4,_ZNSt3__116__hash_node_baseIPNS_11__hash_nodeINS_17__hash_value_typeINS_12basic_stringIcNS_11char_traitsIcEENS_9allocatorIcEEEEPN7testing9TestSuiteEEEPvEEEC2B8ne190102EPSG_
FNL:1,1004
FNA:1,2,_ZNSt3__112__hash_tableINS_12basic_stringIcNS_11char_traitsIcEENS_9allocatorIcEEEENS_4hashIS6_EENS_8equal_toIS6_EENS4_IS6_EEE19__move_assign_allocB8ne190102ERSC_NS_17integral_constantIbLb1EEE
FNL:2,1021
FNA:2,11,_ZNSt3__112__hash_tableINS_12basic_stringIcNS_11char_traitsIcEENS_9allocatorIcEEEENS_4hashIS6_EENS_8equal_toIS6_EENS4_IS6_EEEC1Ev
FNA:2,11,_ZNSt3__112__hash_tableINS_12basic_stringIcNS_11char_traitsIcEENS_9allocatorIcEEEENS_4hashIS6_EENS_8equal_toIS6_EENS4_IS6_EEEC2Ev
FNA:2,1,_ZNSt3__112__hash_tableINS_17__hash_value_typeINS_12basic_stringIcNS_11char_traitsIcEENS_9allocatorIcEEEEPN7testing9TestSuiteEEENS_22__unordered_map_hasherIS7_SB_NS_4hashIS7_EENS_8equal_toIS7_EELb1EEENS_21__unordered_map_equalIS7_SB_SG_SE_Lb1EEENS5_ISB_EEEC1Ev
FNA:2,1,_ZNSt3__112__hash_tableINS_17__hash_value_typeINS_12basic_stringIcNS_11char_traitsIcEENS_9allocatorIcEEEEPN7testing9TestSuiteEEENS_22__unordered_map_hasherIS7_SB_NS_4hashIS7_EENS_8equal_toIS7_EELb1EEENS_21__unordered_map_equalIS7_SB_SG_SE_Lb1EEENS5_ISB_EEEC2Ev
FNA:2,1,_ZNSt3__112__hash_tableINS_17__hash_value_typeINS_12basic_stringIcNS_11char_traitsIcEENS_9allocatorIcEEEEmEENS_22__unordered_map_hasherIS7_S8_NS_4hashIS7_EENS_8equal_toIS7_EELb1EEENS_21__unordered_map_equalIS7_S8_SD_SB_Lb1EEENS5_IS8_EEEC1Ev
FNA:2,1,_ZNSt3__112__hash_tableINS_17__hash_value_typeINS_12basic_stringIcNS_11char_traitsIcEENS_9allocatorIcEEEEmEENS_22__unordered_map_hasherIS7_S8_NS_4hashIS7_EENS_8equal_toIS7_EELb1EEENS_21__unordered_map_equalIS7_S8_SD_SB_Lb1EEENS5_IS8_EEEC2Ev
FNL:3,1101
FNA:3,11,_ZNSt3__112__hash_tableINS_12basic_stringIcNS_11char_traitsIcEENS_9allocatorIcEEEENS_4hashIS6_EENS_8equal_toIS6_EENS4_IS6_EEED1Ev
FNA:3,11,_ZNSt3__112__hash_tableINS_12basic_stringIcNS_11char_traitsIcEENS_9allocatorIcEEEENS_4hashIS6_EENS_8equal_toIS6_EENS4_IS6_EEED2Ev
FNA:3,0,_ZNSt3__112__hash_tableINS_17__hash_value_typeINS_12basic_stringIcNS_11char_traitsIcEENS_9allocatorIcEEEEPN7testing9TestSuiteEEENS_22__unordered_map_hasherIS7_SB_NS_4hashIS7_EENS_8equal_toIS7_EELb1EEENS_21__unordered_map_equalIS7_SB_SG_SE_Lb1EEENS5_ISB_EEED1Ev
FNA:3,0,_ZNSt3__112__hash_tableINS_17__hash_value_typeINS_12basic_stringIcNS_11char_traitsIcEENS_9allocatorIcEEEEPN7testing9TestSuiteEEENS_22__unordered_map_hasherIS7_SB_NS_4hashIS7_EENS_8equal_toIS7_EELb1EEENS_21__unordered_map_equalIS7_SB_SG_SE_Lb1EEENS5_ISB_EEED2Ev
FNA:3,0,_ZNSt3__112__hash_tableINS_17__hash_value_typeINS_12basic_stringIcNS_11char_traitsIcEENS_9allocatorIcEEEEmEENS_22__unordered_map_hasherIS7_S8_NS_4hashIS7_EENS_8equal_toIS7_EELb1EEENS_21__unordered_map_equalIS7_S8_SD_SB_Lb1EEENS5_IS8_EEED1Ev
FNA:3,0,_ZNSt3__112__hash_tableINS_17__hash_value_typeINS_12basic_stringIcNS_11char_traitsIcEENS_9allocatorIcEEEEmEENS_22__unordered_map_hasherIS7_S8_NS_4hashIS7_EENS_8equal_toIS7_EELb1EEENS_21__unordered_map_equalIS7_S8_SD_SB_Lb1EEENS5_IS8_EEED2Ev
FNL:4,1134
FNA:4,11,_ZNSt3__112__hash_tableINS_12basic_stringIcNS_11char_traitsIcEENS_9allocatorIcEEEENS_4hashIS6_EENS_8equal_toIS6_EENS4_IS6_EEE17__deallocate_nodeEPNS_16__hash_node_baseIPNS_11__hash_nodeIS6_PvEEEE
FNA:4,0,_ZNSt3__112__hash_tableINS_17__hash_value_typeINS_12basic_stringIcNS_11char_traitsIcEENS_9allocatorIcEEEEPN7testing9TestSuiteEEENS_22__unordered_map_hasherIS7_SB_NS_4hashIS7_EENS_8equal_toIS7_EELb1EEENS_21__unordered_map_equalIS7_SB_SG_SE_Lb1EEENS5_ISB_EEE17__deallocate_nodeEPNS_16__hash_node_baseIPNS_11__hash_nodeISB_PvEEEE
FNA:4,0,_ZNSt3__112__hash_tableINS_17__hash_value_typeINS_12basic_stringIcNS_11char_traitsIcEENS_9allocatorIcEEEEmEENS_22__unordered_map_hasherIS7_S8_NS_4hashIS7_EENS_8equal_toIS7_EELb1EEENS_21__unordered_map_equalIS7_S8_SD_SB_Lb1EEENS5_IS8_EEE17__deallocate_nodeEPNS_16__hash_node_baseIPNS_11__hash_nodeIS8_PvEEEE
FNL:5,1159
FNA:5,2,_ZNSt3__112__hash_tableINS_12basic_stringIcNS_11char_traitsIcEENS_9allocatorIcEEEENS_4hashIS6_EENS_8equal_toIS6_EENS4_IS6_EEE13__move_assignERSC_NS_17integral_constantIbLb1EEE
FNL:6,121
FNA:6,0,_ZNSt3__111__hash_nodeINS_12basic_stringIcNS_11char_traitsIcEENS_9allocatorIcEEEEPvE11__get_valueB8ne190102Ev
FNA:6,4,_ZNSt3__111__hash_nodeINS_17__hash_value_typeINS_12basic_stringIcNS_11char_traitsIcEENS_9allocatorIcEEEEPN7testing9TestSuiteEEEPvE11__get_valueB8ne190102Ev
FNA:6,0,_ZNSt3__111__hash_nodeINS_17__hash_value_typeINS_12basic_stringIcNS_11char_traitsIcEENS_9allocatorIcEEEEmEEPvE11__get_valueB8ne190102Ev
FNL:7,1218
FNA:7,2,_ZNSt3__112__hash_tableINS_12basic_stringIcNS_11char_traitsIcEENS_9allocatorIcEEEENS_4hashIS6_EENS_8equal_toIS6_EENS4_IS6_EEEaSEOSC_
FNL:8,1290
FNA:8,7,_ZNSt3__112__hash_tableINS_12basic_stringIcNS_11char_traitsIcEENS_9allocatorIcEEEENS_4hashIS6_EENS_8equal_toIS6_EENS4_IS6_EEE5beginEv
FNL:9,1296
FNA:9,8,_ZNSt3__112__hash_tableINS_17__hash_value_typeINS_12basic_stringIcNS_11char_traitsIcEENS_9allocatorIcEEEEPN7testing9TestSuiteEEENS_22__unordered_map_hasherIS7_SB_NS_4hashIS7_EENS_8equal_toIS7_EELb1EEENS_21__unordered_map_equalIS7_SB_SG_SE_Lb1EEENS5_ISB_EEE3endEv
FNL:10,1308
FNA:10,108,_ZNKSt3__112__hash_tableINS_12basic_stringIcNS_11char_traitsIcEENS_9allocatorIcEEEENS_4hashIS6_EENS_8equal_toIS6_EENS4_IS6_EEE3endEv
FNL:11,131
FNA:11,0,_ZNSt3__111__hash_nodeINS_12basic_stringIcNS_11char_traitsIcEENS_9allocatorIcEEEEPvEC1B8ne190102EPNS_16__hash_node_baseIPS8_EEm
FNA:11,0,_ZNSt3__111__hash_nodeINS_12basic_stringIcNS_11char_traitsIcEENS_9allocatorIcEEEEPvEC2B8ne190102EPNS_16__hash_node_baseIPS8_EEm
FNA:11,4,_ZNSt3__111__hash_nodeINS_17__hash_value_typeINS_12basic_stringIcNS_11char_traitsIcEENS_9allocatorIcEEEEPN7testing9TestSuiteEEEPvEC1B8ne190102EPNS_16__hash_node_baseIPSD_EEm
FNA:11,4,_ZNSt3__111__hash_nodeINS_17__hash_value_typeINS_12basic_stringIcNS_11char_traitsIcEENS_9allocatorIcEEEEPN7testing9TestSuiteEEEPvEC2B8ne190102EPNS_16__hash_node_baseIPSD_EEm
FNL:12,1313
FNA:12,2,_ZNSt3__112__hash_tableINS_12basic_stringIcNS_11char_traitsIcEENS_9allocatorIcEEEENS_4hashIS6_EENS_8equal_toIS6_EENS4_IS6_EEE5clearEv
FNL:13,132
FNA:13,0,_ZNSt3__111__hash_nodeINS_12basic_stringIcNS_11char_traitsIcEENS_9allocatorIcEEEEPvED1B8ne190102Ev
FNA:13,0,_ZNSt3__111__hash_nodeINS_12basic_stringIcNS_11char_traitsIcEENS_9allocatorIcEEEEPvED2B8ne190102Ev
FNA:13,0,_ZNSt3__111__hash_nodeINS_17__hash_value_typeINS_12basic_stringIcNS_11char_traitsIcEENS_9allocatorIcEEEEPN7testing9TestSuiteEEEPvED1B8ne190102Ev
FNA:13,0,_ZNSt3__111__hash_nodeINS_17__hash_value_typeINS_12basic_stringIcNS_11char_traitsIcEENS_9allocatorIcEEEEPN7testing9TestSuiteEEEPvED2B8ne190102Ev
FNA:13,0,_ZNSt3__111__hash_nodeINS_17__hash_value_typeINS_12basic_stringIcNS_11char_traitsIcEENS_9allocatorIcEEEEmEEPvED1B8ne190102Ev
FNA:13,0,_ZNSt3__111__hash_nodeINS_17__hash_value_typeINS_12basic_stringIcNS_11char_traitsIcEENS_9allocatorIcEEEEmEEPvED2B8ne190102Ev
FNL:14,135
FNA:14,2,_ZNSt3__116__is_hash_power2B8ne190102Em
FNL:15,137
FNA:15,18,_ZNSt3__116__constrain_hashB8ne190102Emm
FNL:16,141
FNA:16,0,_ZNSt3__116__next_hash_pow2B8ne190102Em
FNL:17,1504
FNA:17,0,_ZNSt3__112__hash_tableINS_12basic_stringIcNS_11char_traitsIcEENS_9allocatorIcEEEENS_4hashIS6_EENS_8equal_toIS6_EENS4_IS6_EEE25__emplace_unique_key_argsIS6_JS6_EEENS_4pairINS_15__hash_iteratorIPNS_11__hash_nodeIS6_PvEEEEbEERKT_DpOT0_
FNA:17,4,_ZNSt3__112__hash_tableINS_17__hash_value_typeINS_12basic_stringIcNS_11char_traitsIcEENS_9allocatorIcEEEEPN7testing9TestSuiteEEENS_22__unordered_map_hasherIS7_SB_NS_4hashIS7_EENS_8equal_toIS7_EELb1EEENS_21__unordered_map_equalIS7_SB_SG_SE_Lb1EEENS5_ISB_EEE25__emplace_unique_key_argsIS7_JRKS7_RKSA_EEENS_4pairINS_15__hash_iteratorIPNS_11__hash_nodeISB_PvEEEEbEERKT_DpOT0_
FNL:18,1684
FNA:18,0,_ZNSt3__112__hash_tableINS_12basic_stringIcNS_11char_traitsIcEENS_9allocatorIcEEEENS_4hashIS6_EENS_8equal_toIS6_EENS4_IS6_EEE8__rehashILb1EEEvm
FNA:18,2,_ZNSt3__112__hash_tableINS_17__hash_value_typeINS_12basic_stringIcNS_11char_traitsIcEENS_9allocatorIcEEEEPN7testing9TestSuiteEEENS_22__unordered_map_hasherIS7_SB_NS_4hashIS7_EENS_8equal_toIS7_EELb1EEENS_21__unordered_map_equalIS7_SB_SG_SE_Lb1EEENS5_ISB_EEE8__rehashILb1EEEvm
FNL:19,169
FNA:19,0,_ZNSt3__122__hash_key_value_typesINS_12basic_stringIcNS_11char_traitsIcEENS_9allocatorIcEEEEE9__get_keyB8ne190102ERKS6_
FNL:20,1704
FNA:20,0,_ZNSt3__112__hash_tableINS_12basic_stringIcNS_11char_traitsIcEENS_9allocatorIcEEEENS_4hashIS6_EENS_8equal_toIS6_EENS4_IS6_EEE11__do_rehashILb1EEEvm
FNA:20,2,_ZNSt3__112__hash_tableINS_17__hash_value_typeINS_12basic_stringIcNS_11char_traitsIcEENS_9allocatorIcEEEEPN7testing9TestSuiteEEENS_22__unordered_map_hasherIS7_SB_NS_4hashIS7_EENS_8equal_toIS7_EELb1EEENS_21__unordered_map_equalIS7_SB_SG_SE_Lb1EEENS5_ISB_EEE11__do_rehashILb1EEEvm
FNL:21,171
FNA:21,0,_ZNSt3__122__hash_key_value_typesINS_12basic_stringIcNS_11char_traitsIcEENS_9allocatorIcEEEEE9__get_ptrB8ne190102ERS6_
FNL:22,1747
FNA:22,4,_ZNSt3__112__hash_tableINS_17__hash_value_typeINS_12basic_stringIcNS_11char_traitsIcEENS_9allocatorIcEEEEPN7testing9TestSuiteEEENS_22__unordered_map_hasherIS7_SB_NS_4hashIS7_EENS_8equal_toIS7_EELb1EEENS_21__unordered_map_equalIS7_SB_SG_SE_Lb1EEENS5_ISB_EEE4findIS7_EENS_15__hash_iteratorIPNS_11__hash_nodeISB_PvEEEERKT_
FNL:23,1768
FNA:23,54,_ZNKSt3__112__hash_tableINS_12basic_stringIcNS_11char_traitsIcEENS_9allocatorIcEEEENS_4hashIS6_EENS_8equal_toIS6_EENS4_IS6_EEE4findIS6_EENS_21__hash_const_iteratorIPNS_11__hash_nodeIS6_PvEEEERKT_
FNL:24,1813
FNA:24,0,_ZNSt3__112__hash_tableINS_12basic_stringIcNS_11char_traitsIcEENS_9allocatorIcEEEENS_4hashIS6_EENS_8equal_toIS6_EENS4_IS6_EEE21__construct_node_hashIS6_JEEENS_10unique_ptrINS_11__hash_nodeIS6_PvEENS_22__hash_node_destructorINS4_ISH_EEEEEEmOT_DpOT0_
FNA:24,4,_ZNSt3__112__hash_tableINS_17__hash_value_typeINS_12basic_stringIcNS_11char_traitsIcEENS_9allocatorIcEEEEPN7testing9TestSuiteEEENS_22__unordered_map_hasherIS7_SB_NS_4hashIS7_EENS_8equal_toIS7_EELb1EEENS_21__unordered_map_equalIS7_SB_SG_SE_Lb1EEENS5_ISB_EEE21__construct_node_hashIRKS7_JRKSA_EEENS_10unique_ptrINS_11__hash_nodeISB_PvEENS_22__hash_node_destructorINS5_ISU_EEEEEEmOT_DpOT0_
FNL:25,196
FNA:25,4,_ZNSt3__122__hash_key_value_typesINS_17__hash_value_typeINS_12basic_stringIcNS_11char_traitsIcEENS_9allocatorIcEEEEPN7testing9TestSuiteEEEE9__get_ptrB8ne190102ERSB_
FNA:25,0,_ZNSt3__122__hash_key_value_typesINS_17__hash_value_typeINS_12basic_stringIcNS_11char_traitsIcEENS_9allocatorIcEEEEmEEE9__get_ptrB8ne190102ERS8_
FNL:26,290
FNA:26,0,_ZNKSt3__115__hash_iteratorIPNS_11__hash_nodeINS_17__hash_value_typeINS_12basic_stringIcNS_11char_traitsIcEENS_9allocatorIcEEEEPN7testing9TestSuiteEEEPvEEEptB8ne190102Ev
FNL:27,309
FNA:27,4,_ZNSt3__1eqB8ne190102ERKNS_15__hash_iteratorIPNS_11__hash_nodeINS_17__hash_value_typeINS_12basic_stringIcNS_11char_traitsIcEENS_9allocatorIcEEEEPN7testing9TestSuiteEEEPvEEEESI_
FNL:28,312
FNA:28,4,_ZNSt3__1neB8ne190102ERKNS_15__hash_iteratorIPNS_11__hash_nodeINS_17__hash_value_typeINS_12basic_stringIcNS_11char_traitsIcEENS_9allocatorIcEEEEPN7testing9TestSuiteEEEPvEEEESI_
FNL:29,317
FNA:29,7,_ZNSt3__115__hash_iteratorIPNS_11__hash_nodeINS_12basic_stringIcNS_11char_traitsIcEENS_9allocatorIcEEEEPvEEEC1B8ne190102EPNS_16__hash_node_baseISA_EE
FNA:29,7,_ZNSt3__115__hash_iteratorIPNS_11__hash_nodeINS_12basic_stringIcNS_11char_traitsIcEENS_9allocatorIcEEEEPvEEEC2B8ne190102EPNS_16__hash_node_baseISA_EE
FNA:29,12,_ZNSt3__115__hash_iteratorIPNS_11__hash_nodeINS_17__hash_value_typeINS_12basic_stringIcNS_11char_traitsIcEENS_9allocatorIcEEEEPN7testing9TestSuiteEEEPvEEEC1B8ne190102EPNS_16__hash_node_baseISF_EE
FNA:29,12,_ZNSt3__115__hash_iteratorIPNS_11__hash_nodeINS_17__hash_value_typeINS_12basic_stringIcNS_11char_traitsIcEENS_9allocatorIcEEEEPN7testing9TestSuiteEEEPvEEEC2B8ne190102EPNS_16__hash_node_baseISF_EE
FNL:30,351
FNA:30,7,_ZNSt3__121__hash_const_iteratorIPNS_11__hash_nodeINS_12basic_stringIcNS_11char_traitsIcEENS_9allocatorIcEEEEPvEEEC1B8ne190102ERKNS_15__hash_iteratorISA_EE
FNA:30,7,_ZNSt3__121__hash_const_iteratorIPNS_11__hash_nodeINS_12basic_stringIcNS_11char_traitsIcEENS_9allocatorIcEEEEPvEEEC2B8ne190102ERKNS_15__hash_iteratorISA_EE
FNL:31,364
FNA:31,0,_ZNSt3__121__hash_const_iteratorIPNS_11__hash_nodeINS_12basic_stringIcNS_11char_traitsIcEENS_9allocatorIcEEEEPvEEEppB8ne190102Ev
FNL:32,377
FNA:32,54,_ZNSt3__1eqB8ne190102ERKNS_21__hash_const_iteratorIPNS_11__hash_nodeINS_12basic_stringIcNS_11char_traitsIcEENS_9allocatorIcEEEEPvEEEESD_
FNL:33,380
FNA:33,54,_ZNSt3__1neB8ne190102ERKNS_21__hash_const_iteratorIPNS_11__hash_nodeINS_12basic_stringIcNS_11char_traitsIcEENS_9allocatorIcEEEEPvEEEESD_
FNL:34,385
FNA:34,108,_ZNSt3__121__hash_const_iteratorIPNS_11__hash_nodeINS_12basic_stringIcNS_11char_traitsIcEENS_9allocatorIcEEEEPvEEEC1B8ne190102EPNS_16__hash_node_baseISA_EE
FNA:34,108,_ZNSt3__121__hash_const_iteratorIPNS_11__hash_nodeINS_12basic_stringIcNS_11char_traitsIcEENS_9allocatorIcEEEEPvEEEC2B8ne190102EPNS_16__hash_node_baseISA_EE
FNL:35,562
FNA:35,11,_ZNSt3__125__bucket_list_deallocatorINS_9allocatorIPNS_16__hash_node_baseIPNS_11__hash_nodeINS_12basic_stringIcNS_11char_traitsIcEENS1_IcEEEEPvEEEEEEEC1B8ne190102Ev
FNA:35,11,_ZNSt3__125__bucket_list_deallocatorINS_9allocatorIPNS_16__hash_node_baseIPNS_11__hash_nodeINS_12basic_stringIcNS_11char_traitsIcEENS1_IcEEEEPvEEEEEEEC2B8ne190102Ev
FNA:35,1,_ZNSt3__125__bucket_list_deallocatorINS_9allocatorIPNS_16__hash_node_baseIPNS_11__hash_nodeINS_17__hash_value_typeINS_12basic_stringIcNS_11char_traitsIcEENS1_IcEEEEPN7testing9TestSuiteEEEPvEEEEEEEC1B8ne190102Ev
FNA:35,1,_ZNSt3__125__bucket_list_deallocatorINS_9allocatorIPNS_16__hash_node_baseIPNS_11__hash_nodeINS_17__hash_value_typeINS_12basic_stringIcNS_11char_traitsIcEENS1_IcEEEEPN7testing9TestSuiteEEEPvEEEEEEEC2B8ne190102Ev
FNA:35,1,_ZNSt3__125__bucket_list_deallocatorINS_9allocatorIPNS_16__hash_node_baseIPNS_11__hash_nodeINS_17__hash_value_typeINS_12basic_stringIcNS_11char_traitsIcEENS1_IcEEEEmEEPvEEEEEEEC1B8ne190102Ev
FNA:35,1,_ZNSt3__125__bucket_list_deallocatorINS_9allocatorIPNS_16__hash_node_baseIPNS_11__hash_nodeINS_17__hash_value_typeINS_12basic_stringIcNS_11char_traitsIcEENS1_IcEEEEmEEPvEEEEEEEC2B8ne190102Ev
FNL:36,575
FNA:36,6,_ZNSt3__125__bucket_list_deallocatorINS_9allocatorIPNS_16__hash_node_baseIPNS_11__hash_nodeINS_12basic_stringIcNS_11char_traitsIcEENS1_IcEEEEPvEEEEEEE4sizeB8ne190102Ev
FNA:36,3,_ZNSt3__125__bucket_list_deallocatorINS_9allocatorIPNS_16__hash_node_baseIPNS_11__hash_nodeINS_17__hash_value_typeINS_12basic_stringIcNS_11char_traitsIcEENS1_IcEEEEPN7testing9TestSuiteEEEPvEEEEEEE4sizeB8ne190102Ev
FNA:36,0,_ZNSt3__125__bucket_list_deallocatorINS_9allocatorIPNS_16__hash_node_baseIPNS_11__hash_nodeINS_17__hash_value_typeINS_12basic_stringIcNS_11char_traitsIcEENS1_IcEEEEmEEPvEEEEEEE4sizeB8ne190102Ev
FNL:37,576
FNA:37,54,_ZNKSt3__125__bucket_list_deallocatorINS_9allocatorIPNS_16__hash_node_baseIPNS_11__hash_nodeINS_12basic_stringIcNS_11char_traitsIcEENS1_IcEEEEPvEEEEEEE4sizeB8ne190102Ev
FNA:37,12,_ZNKSt3__125__bucket_list_deallocatorINS_9allocatorIPNS_16__hash_node_baseIPNS_11__hash_nodeINS_17__hash_value_typeINS_12basic_stringIcNS_11char_traitsIcEENS1_IcEEEEPN7testing9TestSuiteEEEPvEEEEEEE4sizeB8ne190102Ev
FNL:38,578
FNA:38,4,_ZNSt3__125__bucket_list_deallocatorINS_9allocatorIPNS_16__hash_node_baseIPNS_11__hash_nodeINS_12basic_stringIcNS_11char_traitsIcEENS1_IcEEEEPvEEEEEEE7__allocB8ne190102Ev
FNA:38,3,_ZNSt3__125__bucket_list_deallocatorINS_9allocatorIPNS_16__hash_node_baseIPNS_11__hash_nodeINS_17__hash_value_typeINS_12basic_stringIcNS_11char_traitsIcEENS1_IcEEEEPN7testing9TestSuiteEEEPvEEEEEEE7__allocB8ne190102Ev
FNA:38,0,_ZNSt3__125__bucket_list_deallocatorINS_9allocatorIPNS_16__hash_node_baseIPNS_11__hash_nodeINS_17__hash_value_typeINS_12basic_stringIcNS_11char_traitsIcEENS1_IcEEEEmEEPvEEEEEEE7__allocB8ne190102Ev
FNL:39,581
FNA:39,0,_ZNSt3__125__bucket_list_deallocatorINS_9allocatorIPNS_16__hash_node_baseIPNS_11__hash_nodeINS_12basic_stringIcNS_11char_traitsIcEENS1_IcEEEEPvEEEEEEEclB8ne190102EPSD_
FNA:39,1,_ZNSt3__125__bucket_list_deallocatorINS_9allocatorIPNS_16__hash_node_baseIPNS_11__hash_nodeINS_17__hash_value_typeINS_12basic_stringIcNS_11char_traitsIcEENS1_IcEEEEPN7testing9TestSuiteEEEPvEEEEEEEclB8ne190102EPSI_
FNA:39,0,_ZNSt3__125__bucket_list_deallocatorINS_9allocatorIPNS_16__hash_node_baseIPNS_11__hash_nodeINS_17__hash_value_typeINS_12basic_stringIcNS_11char_traitsIcEENS1_IcEEEEmEEPvEEEEEEEclB8ne190102EPSF_
FNL:40,606
FNA:40,0,_ZNSt3__122__hash_node_destructorINS_9allocatorINS_11__hash_nodeINS_12basic_stringIcNS_11char_traitsIcEENS1_IcEEEEPvEEEEEC1B8ne190102ERSA_b
FNA:40,0,_ZNSt3__122__hash_node_destructorINS_9allocatorINS_11__hash_nodeINS_12basic_stringIcNS_11char_traitsIcEENS1_IcEEEEPvEEEEEC2B8ne190102ERSA_b
FNA:40,4,_ZNSt3__122__hash_node_destructorINS_9allocatorINS_11__hash_nodeINS_17__hash_value_typeINS_12basic_stringIcNS_11char_traitsIcEENS1_IcEEEEPN7testing9TestSuiteEEEPvEEEEEC1B8ne190102ERSF_b
FNA:40,4,_ZNSt3__122__hash_node_destructorINS_9allocatorINS_11__hash_nodeINS_17__hash_value_typeINS_12basic_stringIcNS_11char_traitsIcEENS1_IcEEEEPN7testing9TestSuiteEEEPvEEEEEC2B8ne190102ERSF_b
FNL:41,610
FNA:41,0,_ZNSt3__122__hash_node_destructorINS_9allocatorINS_11__hash_nodeINS_12basic_stringIcNS_11char_traitsIcEENS1_IcEEEEPvEEEEEclB8ne190102EPS9_
FNA:41,0,_ZNSt3__122__hash_node_destructorINS_9allocatorINS_11__hash_nodeINS_17__hash_value_typeINS_12basic_stringIcNS_11char_traitsIcEENS1_IcEEEEPN7testing9TestSuiteEEEPvEEEEEclB8ne190102EPSE_
FNL:42,724
FNA:42,8,_ZNSt3__112__hash_tableINS_12basic_stringIcNS_11char_traitsIcEENS_9allocatorIcEEEENS_4hashIS6_EENS_8equal_toIS6_EENS4_IS6_EEE4sizeB8ne190102Ev
FNA:42,10,_ZNSt3__112__hash_tableINS_17__hash_value_typeINS_12basic_stringIcNS_11char_traitsIcEENS_9allocatorIcEEEEPN7testing9TestSuiteEEENS_22__unordered_map_hasherIS7_SB_NS_4hashIS7_EENS_8equal_toIS7_EELb1EEENS_21__unordered_map_equalIS7_SB_SG_SE_Lb1EEENS5_ISB_EEE4sizeB8ne190102Ev
FNL:43,729
FNA:43,4,_ZNSt3__112__hash_tableINS_12basic_stringIcNS_11char_traitsIcEENS_9allocatorIcEEEENS_4hashIS6_EENS_8equal_toIS6_EENS4_IS6_EEE13hash_functionB8ne190102Ev
FNA:43,8,_ZNSt3__112__hash_tableINS_17__hash_value_typeINS_12basic_stringIcNS_11char_traitsIcEENS_9allocatorIcEEEEPN7testing9TestSuiteEEENS_22__unordered_map_hasherIS7_SB_NS_4hashIS7_EENS_8equal_toIS7_EELb1EEENS_21__unordered_map_equalIS7_SB_SG_SE_Lb1EEENS5_ISB_EEE13hash_functionB8ne190102Ev
FNL:44,730
FNA:44,54,_ZNKSt3__112__hash_tableINS_12basic_stringIcNS_11char_traitsIcEENS_9allocatorIcEEEENS_4hashIS6_EENS_8equal_toIS6_EENS4_IS6_EEE13hash_functionB8ne190102Ev
FNL:45,732
FNA:45,4,_ZNSt3__112__hash_tableINS_12basic_stringIcNS_11char_traitsIcEENS_9allocatorIcEEEENS_4hashIS6_EENS_8equal_toIS6_EENS4_IS6_EEE15max_load_factorB8ne190102Ev
FNA:45,6,_ZNSt3__112__hash_tableINS_17__hash_value_typeINS_12basic_stringIcNS_11char_traitsIcEENS_9allocatorIcEEEEPN7testing9TestSuiteEEENS_22__unordered_map_hasherIS7_SB_NS_4hashIS7_EENS_8equal_toIS7_EELb1EEENS_21__unordered_map_equalIS7_SB_SG_SE_Lb1EEENS5_ISB_EEE15max_load_factorB8ne190102Ev
FNL:46,735
FNA:46,4,_ZNSt3__112__hash_tableINS_12basic_stringIcNS_11char_traitsIcEENS_9allocatorIcEEEENS_4hashIS6_EENS_8equal_toIS6_EENS4_IS6_EEE6key_eqB8ne190102Ev
FNA:46,0,_ZNSt3__112__hash_tableINS_17__hash_value_typeINS_12basic_stringIcNS_11char_traitsIcEENS_9allocatorIcEEEEPN7testing9TestSuiteEEENS_22__unordered_map_hasherIS7_SB_NS_4hashIS7_EENS_8equal_toIS7_EELb1EEENS_21__unordered_map_equalIS7_SB_SG_SE_Lb1EEENS5_ISB_EEE6key_eqB8ne190102Ev
FNL:47,736
FNA:47,0,_ZNKSt3__112__hash_tableINS_12basic_stringIcNS_11char_traitsIcEENS_9allocatorIcEEEENS_4hashIS6_EENS_8equal_toIS6_EENS4_IS6_EEE6key_eqB8ne190102Ev
FNL:48,738
FNA:48,15,_ZNSt3__112__hash_tableINS_12basic_stringIcNS_11char_traitsIcEENS_9allocatorIcEEEENS_4hashIS6_EENS_8equal_toIS6_EENS4_IS6_EEE12__node_allocB8ne190102Ev
FNA:48,4,_ZNSt3__112__hash_tableINS_17__hash_value_typeINS_12basic_stringIcNS_11char_traitsIcEENS_9allocatorIcEEEEPN7testing9TestSuiteEEENS_22__unordered_map_hasherIS7_SB_NS_4hashIS7_EENS_8equal_toIS7_EELb1EEENS_21__unordered_map_equalIS7_SB_SG_SE_Lb1EEENS5_ISB_EEE12__node_allocB8ne190102Ev
FNA:48,0,_ZNSt3__112__hash_tableINS_17__hash_value_typeINS_12basic_stringIcNS_11char_traitsIcEENS_9allocatorIcEEEEmEENS_22__unordered_map_hasherIS7_S8_NS_4hashIS7_EENS_8equal_toIS7_EELb1EEENS_21__unordered_map_equalIS7_S8_SD_SB_Lb1EEENS5_IS8_EEE12__node_allocB8ne190102Ev
FNL:49,803
FNA:49,4,_ZNSt3__112__hash_tableINS_17__hash_value_typeINS_12basic_stringIcNS_11char_traitsIcEENS_9allocatorIcEEEEPN7testing9TestSuiteEEENS_22__unordered_map_hasherIS7_SB_NS_4hashIS7_EENS_8equal_toIS7_EELb1EEENS_21__unordered_map_equalIS7_SB_SG_SE_Lb1EEENS5_ISB_EEE16__emplace_uniqueB8ne190102IRKS7_RKSA_Li0EEENS_4pairINS_15__hash_iteratorIPNS_11__hash_nodeISB_PvEEEEbEEOT_OT0_
FNL:50,830
FNA:50,0,_ZNSt3__112__hash_tableINS_12basic_stringIcNS_11char_traitsIcEENS_9allocatorIcEEEENS_4hashIS6_EENS_8equal_toIS6_EENS4_IS6_EEE15__insert_uniqueB8ne190102EOS6_
FNL:51,875
FNA:51,0,_ZNSt3__112__hash_tableINS_12basic_stringIcNS_11char_traitsIcEENS_9allocatorIcEEEENS_4hashIS6_EENS_8equal_toIS6_EENS4_IS6_EEE15__rehash_uniqueB8ne190102Em
FNA:51,2,_ZNSt3__112__hash_tableINS_17__hash_value_typeINS_12basic_stringIcNS_11char_traitsIcEENS_9allocatorIcEEEEPN7testing9TestSuiteEEENS_22__unordered_map_hasherIS7_SB_NS_4hashIS7_EENS_8equal_toIS7_EELb1EEENS_21__unordered_map_equalIS7_SB_SG_SE_Lb1EEENS5_ISB_EEE15__rehash_uniqueB8ne190102Em
FNL:52,884
FNA:52,54,_ZNKSt3__112__hash_tableINS_12basic_stringIcNS_11char_traitsIcEENS_9allocatorIcEEEENS_4hashIS6_EENS_8equal_toIS6_EENS4_IS6_EEE12bucket_countB8ne190102Ev
FNA:52,12,_ZNKSt3__112__hash_tableINS_17__hash_value_typeINS_12basic_stringIcNS_11char_traitsIcEENS_9allocatorIcEEEEPN7testing9TestSuiteEEENS_22__unordered_map_hasherIS7_SB_NS_4hashIS7_EENS_8equal_toIS7_EELb1EEENS_21__unordered_map_equalIS7_SB_SG_SE_Lb1EEENS5_ISB_EEE12bucket_countB8ne190102Ev
FNL:53,89
FNA:53,0,_ZNSt3__116__hash_node_baseIPNS_11__hash_nodeINS_12basic_stringIcNS_11char_traitsIcEENS_9allocatorIcEEEEPvEEE5__ptrB8ne190102Ev
FNA:53,10,_ZNSt3__116__hash_node_baseIPNS_11__hash_nodeINS_17__hash_value_typeINS_12basic_stringIcNS_11char_traitsIcEENS_9allocatorIcEEEEPN7testing9TestSuiteEEEPvEEE5__ptrB8ne190102Ev
FNL:54,93
FNA:54,0,_ZNSt3__116__hash_node_baseIPNS_11__hash_nodeINS_12basic_stringIcNS_11char_traitsIcEENS_9allocatorIcEEEEPvEEE8__upcastB8ne190102Ev
FNA:54,0,_ZNSt3__116__hash_node_baseIPNS_11__hash_nodeINS_17__hash_value_typeINS_12basic_stringIcNS_11char_traitsIcEENS_9allocatorIcEEEEPN7testing9TestSuiteEEEPvEEE8__upcastB8ne190102Ev
FNA:54,0,_ZNSt3__116__hash_node_baseIPNS_11__hash_nodeINS_17__hash_value_typeINS_12basic_stringIcNS_11char_traitsIcEENS_9allocatorIcEEEEmEEPvEEE8__upcastB8ne190102Ev
FNL:55,97
FNA:55,0,_ZNKSt3__116__hash_node_baseIPNS_11__hash_nodeINS_12basic_stringIcNS_11char_traitsIcEENS_9allocatorIcEEEEPvEEE6__hashB8ne190102Ev
FNA:55,20,_ZNKSt3__116__hash_node_baseIPNS_11__hash_nodeINS_17__hash_value_typeINS_12basic_stringIcNS_11char_traitsIcEENS_9allocatorIcEEEEPN7testing9TestSuiteEEEPvEEE6__hashB8ne190102Ev
FNL:56,99
FNA:56,11,_ZNSt3__116__hash_node_baseIPNS_11__hash_nodeINS_12basic_stringIcNS_11char_traitsIcEENS_9allocatorIcEEEEPvEEEC1B8ne190102Ev
FNA:56,11,_ZNSt3__116__hash_node_baseIPNS_11__hash_nodeINS_12basic_stringIcNS_11char_traitsIcEENS_9allocatorIcEEEEPvEEEC2B8ne190102Ev
FNA:56,1,_ZNSt3__116__hash_node_baseIPNS_11__hash_nodeINS_17__hash_value_typeINS_12basic_stringIcNS_11char_traitsIcEENS_9allocatorIcEEEEPN7testing9TestSuiteEEEPvEEEC1B8ne190102Ev
FNA:56,1,_ZNSt3__116__hash_node_baseIPNS_11__hash_nodeINS_17__hash_value_typeINS_12basic_stringIcNS_11char_traitsIcEENS_9allocatorIcEEEEPN7testing9TestSuiteEEEPvEEEC2B8ne190102Ev
FNA:56,1,_ZNSt3__116__hash_node_baseIPNS_11__hash_nodeINS_17__hash_value_typeINS_12basic_stringIcNS_11char_traitsIcEENS_9allocatorIcEEEEmEEPvEEEC1B8ne190102Ev
FNA:56,1,_ZNSt3__116__hash_node_baseIPNS_11__hash_nodeINS_17__hash_value_typeINS_12basic_stringIcNS_11char_traitsIcEENS_9allocatorIcEEEEmEEPvEEEC2B8ne190102Ev
FNL:57,999
FNA:57,2,_ZNSt3__112__hash_tableINS_12basic_stringIcNS_11char_traitsIcEENS_9allocatorIcEEEENS_4hashIS6_EENS_8equal_toIS6_EENS4_IS6_EEE19__move_assign_allocB8ne190102ERSC_
FNF:58
FNH:48
DA:89,10
DA:90,10
DA:93,0
DA:94,0
DA:97,20
DA:99,26
DA:100,4
DA:121,4
DA:131,8
DA:132,0
DA:135,2
DA:137,18
DA:138,18
DA:141,0
DA:142,0
DA:169,0
DA:171,0
DA:196,4
DA:197,4
DA:290,0
DA:293,0
DA:309,4
DA:310,4
DA:312,4
DA:313,4
DA:317,38
DA:351,14
DA:364,0
DA:367,0
DA:368,0
DA:377,54
DA:378,54
DA:380,54
DA:381,54
DA:385,216
DA:562,26
DA:563,26
DA:575,9
DA:576,66
DA:578,7
DA:581,1
DA:606,8
DA:607,4
DA:608,8
DA:610,0
DA:611,0
DA:612,0
DA:613,0
DA:614,0
DA:615,0
DA:616,0
DA:617,0
DA:724,18
DA:729,12
DA:730,54
DA:732,10
DA:735,4
DA:736,0
DA:738,19
DA:803,4
DA:804,4
DA:830,0
DA:831,0
DA:875,2
DA:884,66
DA:999,2
DA:1002,2
DA:1003,2
DA:1004,2
DA:1006,2
DA:1007,2
DA:1008,2
DA:1021,26
DA:1025,26
DA:1101,22
DA:1107,11
DA:1108,22
DA:1134,11
DA:1135,11
DA:1136,11
DA:1137,0
DA:1138,0
DA:1139,0
DA:1140,0
DA:1141,0
DA:1142,0
DA:1144,11
DA:1159,2
DA:1162,2
DA:1163,2
DA:1164,2
DA:1165,2
DA:1166,2
DA:1167,2
DA:1168,2
DA:1169,2
DA:1170,2
DA:1171,2
DA:1172,2
DA:1173,0
DA:1174,0
DA:1175,0
DA:1176,0
DA:1177,2
DA:1218,2
DA:1221,2
DA:1222,2
DA:1290,7
DA:1291,7
DA:1296,8
DA:1297,8
DA:1308,108
DA:1309,108
DA:1313,2
DA:1314,2
DA:1315,0
DA:1316,0
DA:1317,0
DA:1318,0
DA:1319,0
DA:1320,0
DA:1321,0
DA:1322,2
DA:1504,4
DA:1505,4
DA:1506,4
DA:1507,4
DA:1510,4
DA:1511,3
DA:1512,3
DA:1513,3
DA:1514,8
DA:1515,4
DA:1516,2
DA:1517,2
DA:1518,0
DA:1519,2
DA:1520,2
DA:1521,3
DA:1523,4
DA:1524,4
DA:1525,2
DA:1526,2
DA:1527,2
DA:1528,2
DA:1529,2
DA:1531,4
DA:1532,4
DA:1533,3
DA:1534,3
DA:1535,3
DA:1537,3
DA:1538,3
DA:1539,2
DA:1540,3
DA:1541,1
DA:1542,1
DA:1544,4
DA:1546,4
DA:1547,4
DA:1548,4
DA:1550,4
DA:1551,0
DA:1684,2
DA:1685,2
DA:1686,1
DA:1687,1
DA:1688,1
DA:1689,2
DA:1690,2
DA:1691,2
DA:1692,0
DA:1693,0
DA:1695,0
DA:1696,0
DA:1697,0
DA:1698,0
DA:1699,0
DA:1700,2
DA:1704,2
DA:1705,2
DA:1706,2
DA:1707,2
DA:1708,2
DA:1709,9
DA:1710,7
DA:1711,2
DA:1712,2
DA:1713,2
DA:1714,1
DA:1715,1
DA:1716,1
DA:1717,2
DA:1718,1
DA:1719,1
DA:1720,1
DA:1722,0
DA:1723,0
DA:1724,0
DA:1725,0
DA:1726,0
DA:1727,0
DA:1734,0
DA:1735,0
DA:1736,0
DA:1739,1
DA:1740,1
DA:1741,2
DA:1742,2
DA:1747,4
DA:1748,4
DA:1749,4
DA:1750,4
DA:1751,3
DA:1752,3
DA:1753,3
DA:1754,8
DA:1755,4
DA:1756,2
DA:1757,2
DA:1758,0
DA:1759,2
DA:1760,2
DA:1761,3
DA:1762,4
DA:1763,4
DA:1768,54
DA:1769,54
DA:1770,54
DA:1771,54
DA:1772,0
DA:1773,0
DA:1774,0
DA:1775,0
DA:1776,0
DA:1777,0
DA:1778,0
DA:1779,0
DA:1780,0
DA:1781,0
DA:1782,0
DA:1783,54
DA:1784,54
DA:1813,4
DA:1815,4
DA:1816,4
DA:1817,4
DA:1818,4
DA:1819,4
DA:1820,4
DA:1821,4
DA:1822,4
LF:252
LH:182
end_of_record
TN:
SF:/Library/Developer/CommandLineTools/SDKs/MacOSX.sdk/usr/include/c++/v1/__iterator/advance.h
FNL:0,57,59
FNA:0,0,_ZNSt3__19__advanceB8ne190102INS_11__wrap_iterIPPN7testing8TestInfoEEEEEvRT_NS_15iterator_traitsIS7_E15difference_typeENS_26random_access_iterator_tagE
FNA:0,8,_ZNSt3__19__advanceB8ne190102INS_11__wrap_iterIPcEEEEvRT_NS_15iterator_traitsIS4_E15difference_typeENS_26random_access_iterator_tagE
FNL:1,65,72
FNA:1,0,_ZNSt3__17advanceB8ne190102INS_11__wrap_iterIPPN7testing8TestInfoEEEllLi0EEEvRT_T0_
FNA:1,8,_ZNSt3__17advanceB8ne190102INS_11__wrap_iterIPcEEllLi0EEEvRT_T0_
FNF:2
FNH:2
DA:57,8
DA:58,8
DA:59,8
DA:65,8
DA:67,8
DA:71,8
DA:72,8
LF:7
LH:7
end_of_record
TN:
SF:/Library/Developer/CommandLineTools/SDKs/MacOSX.sdk/usr/include/c++/v1/__iterator/distance.h
FNL:0,40,41
FNA:0,0,_ZNSt3__110__distanceB8ne190102INS_11__wrap_iterIPKNS_12basic_stringIcNS_11char_traitsIcEENS_9allocatorIcEEEEEEEENS_15iterator_traitsIT_E15difference_typeESC_SC_NS_26random_access_iterator_tagE
FNA:0,7,_ZNSt3__110__distanceB8ne190102INS_11__wrap_iterIPNS_12basic_stringIcNS_11char_traitsIcEENS_9allocatorIcEEEEEEEENS_15iterator_traitsIT_E15difference_typeESB_SB_NS_26random_access_iterator_tagE
FNA:0,0,_ZNSt3__110__distanceB8ne190102INS_11__wrap_iterIPPN7testing8TestInfoEEEEENS_15iterator_traitsIT_E15difference_typeES8_S8_NS_26random_access_iterator_tagE
FNA:0,0,_ZNSt3__110__distanceB8ne190102INS_13move_iteratorIPNS_12basic_stringIcNS_11char_traitsIcEENS_9allocatorIcEEEEEEEENS_15iterator_traitsIT_E15difference_typeESB_SB_NS_26random_access_iterator_tagE
FNA:0,0,_ZNSt3__110__distanceB8ne190102INS_13move_iteratorIPPN7testing9TestSuiteEEEEENS_15iterator_traitsIT_E15difference_typeES8_S8_NS_26random_access_iterator_tagE
FNA:0,0,_ZNSt3__110__distanceB8ne190102IPKPKcEENS_15iterator_traitsIT_E15difference_typeES6_S6_NS_26random_access_iterator_tagE
FNA:0,0,_ZNSt3__110__distanceB8ne190102IPKcEENS_15iterator_traitsIT_E15difference_typeES4_S4_NS_26random_access_iterator_tagE
FNL:1,46,47
FNA:1,0,_ZNSt3__18distanceB8ne190102INS_11__wrap_iterIPKNS_12basic_stringIcNS_11char_traitsIcEENS_9allocatorIcEEEEEEEENS_15iterator_traitsIT_E15difference_typeESC_SC_
FNA:1,7,_ZNSt3__18distanceB8ne190102INS_11__wrap_iterIPNS_12basic_stringIcNS_11char_traitsIcEENS_9allocatorIcEEEEEEEENS_15iterator_traitsIT_E15difference_typeESB_SB_
FNA:1,0,_ZNSt3__18distanceB8ne190102INS_11__wrap_iterIPPN7testing8TestInfoEEEEENS_15iterator_traitsIT_E15difference_typeES8_S8_
FNA:1,0,_ZNSt3__18distanceB8ne190102INS_13move_iteratorIPNS_12basic_stringIcNS_11char_traitsIcEENS_9allocatorIcEEEEEEEENS_15iterator_traitsIT_E15difference_typeESB_SB_
FNA:1,0,_ZNSt3__18distanceB8ne190102INS_13move_iteratorIPPN7testing9TestSuiteEEEEENS_15iterator_traitsIT_E15difference_typeES8_S8_
FNA:1,0,_ZNSt3__18distanceB8ne190102IPKPKcEENS_15iterator_traitsIT_E15difference_typeES6_S6_
FNA:1,0,_ZNSt3__18distanceB8ne190102IPKcEENS_15iterator_traitsIT_E15difference_typeES4_S4_
FNF:2
FNH:2
DA:40,7
DA:41,7
DA:46,7
DA:47,7
LF:4
LH:4
end_of_record
TN:
SF:/Library/Developer/CommandLineTools/SDKs/MacOSX.sdk/usr/include/c++/v1/__iterator/insert_iterator.h
FNL:0,64,65
FNA:0,7,_ZNSt3__115insert_iteratorINS_13unordered_setINS_12basic_stringIcNS_11char_traitsIcEENS_9allocatorIcEEEENS_4hashIS7_EENS_8equal_toIS7_EENS5_IS7_EEEEEC1B8ne190102ERSD_NS_21__hash_const_iteratorIPNS_11__hash_nodeIS7_PvEEEE
FNA:0,7,_ZNSt3__115insert_iteratorINS_13unordered_setINS_12basic_stringIcNS_11char_traitsIcEENS_9allocatorIcEEEENS_4hashIS7_EENS_8equal_toIS7_EENS5_IS7_EEEEEC2B8ne190102ERSD_NS_21__hash_const_iteratorIPNS_11__hash_nodeIS7_PvEEEE
FNA:0,7,_ZNSt3__115insert_iteratorINS_6vectorINS_12basic_stringIcNS_11char_traitsIcEENS_9allocatorIcEEEENS5_IS7_EEEEEC1B8ne190102ERS9_NS_11__wrap_iterIPS7_EE
FNA:0,7,_ZNSt3__115insert_iteratorINS_6vectorINS_12basic_stringIcNS_11char_traitsIcEENS_9allocatorIcEEEENS5_IS7_EEEEEC2B8ne190102ERS9_NS_11__wrap_iterIPS7_EE
FNL:1,74,77
FNA:1,0,_ZNSt3__115insert_iteratorINS_13unordered_setINS_12basic_stringIcNS_11char_traitsIcEENS_9allocatorIcEEEENS_4hashIS7_EENS_8equal_toIS7_EENS5_IS7_EEEEEaSB8ne190102EOS7_
FNA:1,12,_ZNSt3__115insert_iteratorINS_6vectorINS_12basic_stringIcNS_11char_traitsIcEENS_9allocatorIcEEEENS5_IS7_EEEEEaSB8ne190102EOS7_
FNL:2,80,80
FNA:2,0,_ZNSt3__115insert_iteratorINS_13unordered_setINS_12basic_stringIcNS_11char_traitsIcEENS_9allocatorIcEEEENS_4hashIS7_EENS_8equal_toIS7_EENS5_IS7_EEEEEdeB8ne190102Ev
FNA:2,12,_ZNSt3__115insert_iteratorINS_6vectorINS_12basic_stringIcNS_11char_traitsIcEENS_9allocatorIcEEEENS5_IS7_EEEEEdeB8ne190102Ev
FNL:3,81,81
FNA:3,0,_ZNSt3__115insert_iteratorINS_13unordered_setINS_12basic_stringIcNS_11char_traitsIcEENS_9allocatorIcEEEENS_4hashIS7_EENS_8equal_toIS7_EENS5_IS7_EEEEEppB8ne190102Ev
FNA:3,12,_ZNSt3__115insert_iteratorINS_6vectorINS_12basic_stringIcNS_11char_traitsIcEENS_9allocatorIcEEEENS5_IS7_EEEEEppB8ne190102Ev
FNL:4,87,88
FNA:4,7,_ZNSt3__18inserterB8ne190102INS_13unordered_setINS_12basic_stringIcNS_11char_traitsIcEENS_9allocatorIcEEEENS_4hashIS7_EENS_8equal_toIS7_EENS5_IS7_EEEEEENS_15insert_iteratorIT_EERSF_NSF_8iteratorE
FNA:4,7,_ZNSt3__18inserterB8ne190102INS_6vectorINS_12basic_stringIcNS_11char_traitsIcEENS_9allocatorIcEEEENS5_IS7_EEEEEENS_15insert_iteratorIT_EERSB_NSB_8iteratorE
FNF:5
FNH:5
DA:64,28
DA:65,28
DA:74,12
DA:75,12
DA:76,12
DA:77,12
DA:80,12
DA:81,12
DA:87,14
DA:88,14
LF:10
LH:10
end_of_record
TN:
SF:/Library/Developer/CommandLineTools/SDKs/MacOSX.sdk/usr/include/c++/v1/__iterator/move_iterator.h
FNL:0,112,112
FNA:0,0,_ZNSt3__113move_iteratorIPNS_12basic_stringIcNS_11char_traitsIcEENS_9allocatorIcEEEEEC1B8ne190102ES7_
FNA:0,0,_ZNSt3__113move_iteratorIPNS_12basic_stringIcNS_11char_traitsIcEENS_9allocatorIcEEEEEC2B8ne190102ES7_
FNA:0,0,_ZNSt3__113move_iteratorIPPN7testing9TestSuiteEEC1B8ne190102ES4_
FNA:0,0,_ZNSt3__113move_iteratorIPPN7testing9TestSuiteEEC2B8ne190102ES4_
FNL:1,114,116
FNA:1,0,_ZNSt3__113move_iteratorIPNS_12basic_stringIcNS_11char_traitsIcEENS_9allocatorIcEEEEEppB8ne190102Ev
FNA:1,0,_ZNSt3__113move_iteratorIPPN7testing9TestSuiteEEppB8ne190102Ev
FNL:2,172,172
FNA:2,0,_ZNKSt3__113move_iteratorIPNS_12basic_stringIcNS_11char_traitsIcEENS_9allocatorIcEEEEE4baseB8ne190102Ev
FNA:2,0,_ZNKSt3__113move_iteratorIPPN7testing9TestSuiteEE4baseB8ne190102Ev
FNL:3,174,175
FNA:3,0,_ZNKSt3__113move_iteratorIPNS_12basic_stringIcNS_11char_traitsIcEENS_9allocatorIcEEEEEdeB8ne190102Ev
FNA:3,0,_ZNKSt3__113move_iteratorIPPN7testing9TestSuiteEEdeB8ne190102Ev
FNL:4,303,304
FNA:4,0,_ZNSt3__1miB8ne190102IPNS_12basic_stringIcNS_11char_traitsIcEENS_9allocatorIcEEEES7_EEDTmicldtfp_4baseEcldtfp0_4baseEERKNS_13move_iteratorIT_EERKNS9_IT0_EE
FNA:4,0,_ZNSt3__1miB8ne190102IPPN7testing9TestSuiteES4_EEDTmicldtfp_4baseEcldtfp0_4baseEERKNS_13move_iteratorIT_EERKNS6_IT0_EE
FNF:5
FNH:0
DA:112,0
DA:114,0
DA:115,0
DA:116,0
DA:172,0
DA:174,0
DA:175,0
DA:303,0
DA:304,0
LF:9
LH:0
end_of_record
TN:
SF:/Library/Developer/CommandLineTools/SDKs/MacOSX.sdk/usr/include/c++/v1/__iterator/next.h
FNL:0,29,36
FNA:0,0,_ZNSt3__14nextB8ne190102INS_11__wrap_iterIPPN7testing8TestInfoEEELi0EEET_S7_NS_15iterator_traitsIS7_E15difference_typeE
FNF:1
FNH:0
DA:29,0
DA:35,0
DA:36,0
LF:3
LH:0
end_of_record
TN:
SF:/Library/Developer/CommandLineTools/SDKs/MacOSX.sdk/usr/include/c++/v1/__iterator/ostreambuf_iterator.h
FNL:0,53,53
FNA:0,519,_ZNSt3__119ostreambuf_iteratorIcNS_11char_traitsIcEEEC1B8ne190102ERNS_13basic_ostreamIcS2_EE
FNA:0,519,_ZNSt3__119ostreambuf_iteratorIcNS_11char_traitsIcEEEC2B8ne190102ERNS_13basic_ostreamIcS2_EE
FNL:1,63,63
FNA:1,519,_ZNKSt3__119ostreambuf_iteratorIcNS_11char_traitsIcEEE6failedB8ne190102Ev
FNF:2
FNH:2
DA:53,1038
DA:63,519
LF:2
LH:2
end_of_record
TN:
SF:/Library/Developer/CommandLineTools/SDKs/MacOSX.sdk/usr/include/c++/v1/__iterator/prev.h
FNL:0,29,35
FNA:0,0,_ZNSt3__14prevB8ne190102INS_11__wrap_iterIPPN7testing8TestInfoEEELi0EEET_S7_NS_15iterator_traitsIS7_E15difference_typeE
FNA:0,8,_ZNSt3__14prevB8ne190102INS_11__wrap_iterIPcEELi0EEET_S4_NS_15iterator_traitsIS4_E15difference_typeE
FNF:1
FNH:1
DA:29,8
DA:34,8
DA:35,8
LF:3
LH:3
end_of_record
TN:
SF:/Library/Developer/CommandLineTools/SDKs/MacOSX.sdk/usr/include/c++/v1/__iterator/reverse_iterator.h
FNL:0,129,129
FNA:0,2,_ZNKSt3__116reverse_iteratorINS_11__wrap_iterIPPN7testing11EnvironmentEEEE4baseB8ne190102Ev
FNA:0,0,_ZNKSt3__116reverse_iteratorINS_11__wrap_iterIPPN7testing8TestInfoEEEE4baseB8ne190102Ev
FNA:0,0,_ZNKSt3__116reverse_iteratorIPN7testing12TestPropertyEE4baseB8ne190102Ev
FNA:0,0,_ZNKSt3__116reverse_iteratorIPN7testing14TestPartResultEE4baseB8ne190102Ev
FNA:0,0,_ZNKSt3__116reverse_iteratorIPN7testing8internal9TraceInfoEE4baseB8ne190102Ev
FNA:0,0,_ZNKSt3__116reverse_iteratorIPNS_12basic_stringIcNS_11char_traitsIcEENS_9allocatorIcEEEEE4baseB8ne190102Ev
FNA:0,0,_ZNKSt3__116reverse_iteratorIPPN7testing8TestInfoEE4baseB8ne190102Ev
FNL:1,130,132
FNA:1,0,_ZNKSt3__116reverse_iteratorINS_11__wrap_iterIPPN7testing11EnvironmentEEEEdeB8ne190102Ev
FNA:1,0,_ZNKSt3__116reverse_iteratorINS_11__wrap_iterIPPN7testing8TestInfoEEEEdeB8ne190102Ev
FNA:1,19,_ZNKSt3__116reverse_iteratorINS_11__wrap_iterIPPN7testing9TestSuiteEEEEdeB8ne190102Ev
FNA:1,0,_ZNKSt3__116reverse_iteratorIPN7testing12TestPropertyEEdeB8ne190102Ev
FNA:1,0,_ZNKSt3__116reverse_iteratorIPN7testing14TestPartResultEEdeB8ne190102Ev
FNA:1,0,_ZNKSt3__116reverse_iteratorIPN7testing8internal9TraceInfoEEdeB8ne190102Ev
FNA:1,0,_ZNKSt3__116reverse_iteratorIPNS_12basic_stringIcNS_11char_traitsIcEENS_9allocatorIcEEEEEdeB8ne190102Ev
FNA:1,0,_ZNKSt3__116reverse_iteratorIPPN7testing8TestInfoEEdeB8ne190102Ev
FNL:2,146,146
FNA:2,0,_ZNKSt3__116reverse_iteratorIPN7testing12TestPropertyEEptB8ne190102Ev
FNA:2,0,_ZNKSt3__116reverse_iteratorIPN7testing14TestPartResultEEptB8ne190102Ev
FNA:2,0,_ZNKSt3__116reverse_iteratorIPN7testing8internal9TraceInfoEEptB8ne190102Ev
FNA:2,0,_ZNKSt3__116reverse_iteratorIPNS_12basic_stringIcNS_11char_traitsIcEENS_9allocatorIcEEEEEptB8ne190102Ev
FNL:3,149,151
FNA:3,0,_ZNSt3__116reverse_iteratorINS_11__wrap_iterIPPN7testing11EnvironmentEEEEppB8ne190102Ev
FNA:3,0,_ZNSt3__116reverse_iteratorINS_11__wrap_iterIPPN7testing8TestInfoEEEEppB8ne190102Ev
FNA:3,0,_ZNSt3__116reverse_iteratorIPN7testing12TestPropertyEEppB8ne190102Ev
FNA:3,0,_ZNSt3__116reverse_iteratorIPN7testing14TestPartResultEEppB8ne190102Ev
FNA:3,0,_ZNSt3__116reverse_iteratorIPN7testing8internal9TraceInfoEEppB8ne190102Ev
FNA:3,0,_ZNSt3__116reverse_iteratorIPNS_12basic_stringIcNS_11char_traitsIcEENS_9allocatorIcEEEEEppB8ne190102Ev
FNA:3,0,_ZNSt3__116reverse_iteratorIPPN7testing8TestInfoEEppB8ne190102Ev
FNL:4,206,213
FNA:4,0,_ZNSt3__1eqB8ne190102INS_11__wrap_iterIPPN7testing8TestInfoEEES6_EEbRKNS_16reverse_iteratorIT_EERKNS7_IT0_EE
FNL:5,230,237
FNA:5,1,_ZNSt3__1neB8ne190102INS_11__wrap_iterIPPN7testing11EnvironmentEEES6_EEbRKNS_16reverse_iteratorIT_EERKNS7_IT0_EE
FNA:5,0,_ZNSt3__1neB8ne190102IPN7testing12TestPropertyES3_EEbRKNS_16reverse_iteratorIT_EERKNS4_IT0_EE
FNA:5,0,_ZNSt3__1neB8ne190102IPN7testing14TestPartResultES3_EEbRKNS_16reverse_iteratorIT_EERKNS4_IT0_EE
FNA:5,0,_ZNSt3__1neB8ne190102IPN7testing8internal9TraceInfoES4_EEbRKNS_16reverse_iteratorIT_EERKNS5_IT0_EE
FNA:5,0,_ZNSt3__1neB8ne190102IPNS_12basic_stringIcNS_11char_traitsIcEENS_9allocatorIcEEEES7_EEbRKNS_16reverse_iteratorIT_EERKNS8_IT0_EE
FNA:5,0,_ZNSt3__1neB8ne190102IPPN7testing8TestInfoES4_EEbRKNS_16reverse_iteratorIT_EERKNS5_IT0_EE
FNL:6,97,97
FNA:6,2,_ZNSt3__116reverse_iteratorINS_11__wrap_iterIPPN7testing11EnvironmentEEEEC1B8ne190102ES6_
FNA:6,2,_ZNSt3__116reverse_iteratorINS_11__wrap_iterIPPN7testing11EnvironmentEEEEC2B8ne190102ES6_
FNA:6,0,_ZNSt3__116reverse_iteratorINS_11__wrap_iterIPPN7testing8TestInfoEEEEC1B8ne190102ES6_
FNA:6,0,_ZNSt3__116reverse_iteratorINS_11__wrap_iterIPPN7testing8TestInfoEEEEC2B8ne190102ES6_
FNA:6,19,_ZNSt3__116reverse_iteratorINS_11__wrap_iterIPPN7testing9TestSuiteEEEEC1B8ne190102ES6_
FNA:6,19,_ZNSt3__116reverse_iteratorINS_11__wrap_iterIPPN7testing9TestSuiteEEEEC2B8ne190102ES6_
FNA:6,0,_ZNSt3__116reverse_iteratorIPN7testing12TestPropertyEEC1B8ne190102ES3_
FNA:6,0,_ZNSt3__116reverse_iteratorIPN7testing12TestPropertyEEC2B8ne190102ES3_
FNA:6,0,_ZNSt3__116reverse_iteratorIPN7testing14TestPartResultEEC1B8ne190102ES3_
FNA:6,0,_ZNSt3__116reverse_iteratorIPN7testing14TestPartResultEEC2B8ne190102ES3_
FNA:6,0,_ZNSt3__116reverse_iteratorIPN7testing8internal9TraceInfoEEC1B8ne190102ES4_
FNA:6,0,_ZNSt3__116reverse_iteratorIPN7testing8internal9TraceInfoEEC2B8ne190102ES4_
FNA:6,0,_ZNSt3__116reverse_iteratorIPNS_12basic_stringIcNS_11char_traitsIcEENS_9allocatorIcEEEEEC1B8ne190102ES7_
FNA:6,0,_ZNSt3__116reverse_iteratorIPNS_12basic_stringIcNS_11char_traitsIcEENS_9allocatorIcEEEEEC2B8ne190102ES7_
FNA:6,0,_ZNSt3__116reverse_iteratorIPPN7testing8TestInfoEEC1B8ne190102ES4_
FNA:6,0,_ZNSt3__116reverse_iteratorIPPN7testing8TestInfoEEC2B8ne190102ES4_
FNF:7
FNH:4
DA:97,42
DA:129,2
DA:130,19
DA:131,19
DA:132,19
DA:146,0
DA:149,0
DA:150,0
DA:151,0
DA:206,0
DA:213,0
DA:230,1
DA:237,1
LF:13
LH:7
end_of_record
TN:
SF:/Library/Developer/CommandLineTools/SDKs/MacOSX.sdk/usr/include/c++/v1/__iterator/wrap_iter.h
FNL:0,115,116
FNA:0,90,_ZNSt3__1eqB8ne190102IPKN7testing14TestPartResultEEEbRKNS_11__wrap_iterIT_EES9_
FNA:0,0,_ZNSt3__1eqB8ne190102IPKN7testing8internal13edit_distance8EditTypeEEEbRKNS_11__wrap_iterIT_EESB_
FNA:0,110,_ZNSt3__1eqB8ne190102IPKNS_12basic_stringIcNS_11char_traitsIcEENS_9allocatorIcEEEEEEbRKNS_11__wrap_iterIT_EESD_
FNA:0,2,_ZNSt3__1eqB8ne190102IPKPN7testing11EnvironmentEEEbRKNS_11__wrap_iterIT_EESA_
FNA:0,0,_ZNSt3__1eqB8ne190102IPKPN7testing17TestEventListenerEEEbRKNS_11__wrap_iterIT_EESA_
FNA:0,160,_ZNSt3__1eqB8ne190102IPKPN7testing8TestInfoEEEbRKNS_11__wrap_iterIT_EESA_
FNA:0,26,_ZNSt3__1eqB8ne190102IPKPN7testing9TestSuiteEEEbRKNS_11__wrap_iterIT_EESA_
FNA:0,21,_ZNSt3__1eqB8ne190102IPKcEEbRKNS_11__wrap_iterIT_EES7_
FNA:0,0,_ZNSt3__1eqB8ne190102IPN7testing12TestPropertyEEEbRKNS_11__wrap_iterIT_EES8_
FNA:0,0,_ZNSt3__1eqB8ne190102IPN7testing8internal13edit_distance8EditTypeEEEbRKNS_11__wrap_iterIT_EESA_
FNA:0,19,_ZNSt3__1eqB8ne190102IPNS_12basic_stringIcNS_11char_traitsIcEENS_9allocatorIcEEEEEEbRKNS_11__wrap_iterIT_EESC_
FNA:0,1,_ZNSt3__1eqB8ne190102IPPN7testing11EnvironmentEEEbRKNS_11__wrap_iterIT_EES9_
FNA:0,31,_ZNSt3__1eqB8ne190102IPPN7testing8TestInfoEEEbRKNS_11__wrap_iterIT_EES9_
FNA:0,1,_ZNSt3__1eqB8ne190102IPPN7testing8internal30ParameterizedTestSuiteInfoBaseEEEbRKNS_11__wrap_iterIT_EESA_
FNA:0,5,_ZNSt3__1eqB8ne190102IPPN7testing9TestSuiteEEEbRKNS_11__wrap_iterIT_EES9_
FNA:0,9,_ZNSt3__1eqB8ne190102IPcEEbRKNS_11__wrap_iterIT_EES6_
FNL:1,121,122
FNA:1,0,_ZNSt3__1eqB8ne190102IPKNS_12basic_stringIcNS_11char_traitsIcEENS_9allocatorIcEEEEPS6_EEbRKNS_11__wrap_iterIT_EERKNSA_IT0_EE
FNA:1,82,_ZNSt3__1eqB8ne190102IPKcPcEEbRKNS_11__wrap_iterIT_EERKNS4_IT0_EE
FNL:2,127,128
FNA:2,0,_ZNSt3__1ltB8ne190102IPN7testing8internal13edit_distance8EditTypeEEEbRKNS_11__wrap_iterIT_EESA_
FNL:3,140,141
FNA:3,90,_ZNSt3__1neB8ne190102IPKN7testing14TestPartResultEEEbRKNS_11__wrap_iterIT_EES9_
FNA:3,0,_ZNSt3__1neB8ne190102IPKN7testing8internal13edit_distance8EditTypeEEEbRKNS_11__wrap_iterIT_EESB_
FNA:3,110,_ZNSt3__1neB8ne190102IPKNS_12basic_stringIcNS_11char_traitsIcEENS_9allocatorIcEEEEEEbRKNS_11__wrap_iterIT_EESD_
FNA:3,2,_ZNSt3__1neB8ne190102IPKPN7testing11EnvironmentEEEbRKNS_11__wrap_iterIT_EESA_
FNA:3,0,_ZNSt3__1neB8ne190102IPKPN7testing17TestEventListenerEEEbRKNS_11__wrap_iterIT_EESA_
FNA:3,160,_ZNSt3__1neB8ne190102IPKPN7testing8TestInfoEEEbRKNS_11__wrap_iterIT_EESA_
FNA:3,26,_ZNSt3__1neB8ne190102IPKPN7testing9TestSuiteEEEbRKNS_11__wrap_iterIT_EESA_
FNA:3,21,_ZNSt3__1neB8ne190102IPKcEEbRKNS_11__wrap_iterIT_EES7_
FNA:3,0,_ZNSt3__1neB8ne190102IPN7testing12TestPropertyEEEbRKNS_11__wrap_iterIT_EES8_
FNA:3,0,_ZNSt3__1neB8ne190102IPN7testing8internal13edit_distance8EditTypeEEEbRKNS_11__wrap_iterIT_EESA_
FNA:3,0,_ZNSt3__1neB8ne190102IPNS_12basic_stringIcNS_11char_traitsIcEENS_9allocatorIcEEEEEEbRKNS_11__wrap_iterIT_EESC_
FNA:3,1,_ZNSt3__1neB8ne190102IPPN7testing11EnvironmentEEEbRKNS_11__wrap_iterIT_EES9_
FNA:3,28,_ZNSt3__1neB8ne190102IPPN7testing8TestInfoEEEbRKNS_11__wrap_iterIT_EES9_
FNA:3,1,_ZNSt3__1neB8ne190102IPPN7testing8internal30ParameterizedTestSuiteInfoBaseEEEbRKNS_11__wrap_iterIT_EESA_
FNA:3,5,_ZNSt3__1neB8ne190102IPPN7testing9TestSuiteEEEbRKNS_11__wrap_iterIT_EES9_
FNA:3,0,_ZNSt3__1neB8ne190102IPcEEbRKNS_11__wrap_iterIT_EES6_
FNL:4,146,147
FNA:4,0,_ZNSt3__1neB8ne190102IPKNS_12basic_stringIcNS_11char_traitsIcEENS_9allocatorIcEEEEPS6_EEbRKNS_11__wrap_iterIT_EERKNSA_IT0_EE
FNA:4,82,_ZNSt3__1neB8ne190102IPKcPcEEbRKNS_11__wrap_iterIT_EERKNS4_IT0_EE
FNL:5,210,217
FNA:5,0,_ZNSt3__1miB8ne190102IPKN7testing8internal13edit_distance8EditTypeES6_EEDTmicldtfp_4baseEcldtfp0_4baseEERKNS_11__wrap_iterIT_EERKNS8_IT0_EE
FNA:5,12,_ZNSt3__1miB8ne190102IPKNS_12basic_stringIcNS_11char_traitsIcEENS_9allocatorIcEEEEPS6_EEDTmicldtfp_4baseEcldtfp0_4baseEERKNS_11__wrap_iterIT_EERKNSB_IT0_EE
FNA:5,0,_ZNSt3__1miB8ne190102IPKNS_12basic_stringIcNS_11char_traitsIcEENS_9allocatorIcEEEES8_EEDTmicldtfp_4baseEcldtfp0_4baseEERKNS_11__wrap_iterIT_EERKNSA_IT0_EE
FNA:5,0,_ZNSt3__1miB8ne190102IPKPN7testing17TestEventListenerES5_EEDTmicldtfp_4baseEcldtfp0_4baseEERKNS_11__wrap_iterIT_EERKNS7_IT0_EE
FNA:5,0,_ZNSt3__1miB8ne190102IPKPN7testing9TestSuiteEPS3_EEDTmicldtfp_4baseEcldtfp0_4baseEERKNS_11__wrap_iterIT_EERKNS8_IT0_EE
FNA:5,1,_ZNSt3__1miB8ne190102IPKcPcEEDTmicldtfp_4baseEcldtfp0_4baseEERKNS_11__wrap_iterIT_EERKNS5_IT0_EE
FNA:5,1,_ZNSt3__1miB8ne190102IPKcS2_EEDTmicldtfp_4baseEcldtfp0_4baseEERKNS_11__wrap_iterIT_EERKNS4_IT0_EE
FNA:5,7,_ZNSt3__1miB8ne190102IPNS_12basic_stringIcNS_11char_traitsIcEENS_9allocatorIcEEEES7_EEDTmicldtfp_4baseEcldtfp0_4baseEERKNS_11__wrap_iterIT_EERKNS9_IT0_EE
FNA:5,4,_ZNSt3__1miB8ne190102IPPN7testing8TestInfoES4_EEDTmicldtfp_4baseEcldtfp0_4baseEERKNS_11__wrap_iterIT_EERKNS6_IT0_EE
FNL:6,238,239
FNA:6,0,_ZNSt3__114pointer_traitsINS_11__wrap_iterIPKNS_12basic_stringIcNS_11char_traitsIcEENS_9allocatorIcEEEEEEE10to_addressB8ne190102ESA_
FNA:6,42,_ZNSt3__114pointer_traitsINS_11__wrap_iterIPNS_12basic_stringIcNS_11char_traitsIcEENS_9allocatorIcEEEEEEE10to_addressB8ne190102ES9_
FNA:6,0,_ZNSt3__114pointer_traitsINS_11__wrap_iterIPPN7testing8TestInfoEEEE10to_addressB8ne190102ES6_
FNL:7,47,47
FNA:7,0,_ZNSt3__111__wrap_iterIPPN7testing8TestInfoEEC1B8ne190102Ev
FNA:7,0,_ZNSt3__111__wrap_iterIPPN7testing8TestInfoEEC2B8ne190102Ev
FNL:8,49,50
FNA:8,12,_ZNSt3__111__wrap_iterIPKNS_12basic_stringIcNS_11char_traitsIcEENS_9allocatorIcEEEEEC1B8ne190102IPS6_Li0EEERKNS0_IT_EE
FNA:8,12,_ZNSt3__111__wrap_iterIPKNS_12basic_stringIcNS_11char_traitsIcEENS_9allocatorIcEEEEEC2B8ne190102IPS6_Li0EEERKNS0_IT_EE
FNA:8,0,_ZNSt3__111__wrap_iterIPKPN7testing17TestEventListenerEEC1B8ne190102IPS3_Li0EEERKNS0_IT_EE
FNA:8,0,_ZNSt3__111__wrap_iterIPKPN7testing17TestEventListenerEEC2B8ne190102IPS3_Li0EEERKNS0_IT_EE
FNA:8,0,_ZNSt3__111__wrap_iterIPKPN7testing9TestSuiteEEC1B8ne190102IPS3_Li0EEERKNS0_IT_EE
FNA:8,0,_ZNSt3__111__wrap_iterIPKPN7testing9TestSuiteEEC2B8ne190102IPS3_Li0EEERKNS0_IT_EE
FNA:8,2,_ZNSt3__111__wrap_iterIPKcEC1B8ne190102IPcLi0EEERKNS0_IT_EE
FNA:8,2,_ZNSt3__111__wrap_iterIPKcEC2B8ne190102IPcLi0EEERKNS0_IT_EE
FNL:9,51,51
FNA:9,0,_ZNKSt3__111__wrap_iterIPKN7testing14TestPartResultEEdeB8ne190102Ev
FNA:9,0,_ZNKSt3__111__wrap_iterIPKN7testing8internal13edit_distance8EditTypeEEdeB8ne190102Ev
FNA:9,69,_ZNKSt3__111__wrap_iterIPKNS_12basic_stringIcNS_11char_traitsIcEENS_9allocatorIcEEEEEdeB8ne190102Ev
FNA:9,0,_ZNKSt3__111__wrap_iterIPKPN7testing11EnvironmentEEdeB8ne190102Ev
FNA:9,0,_ZNKSt3__111__wrap_iterIPKPN7testing17TestEventListenerEEdeB8ne190102Ev
FNA:9,120,_ZNKSt3__111__wrap_iterIPKPN7testing8TestInfoEEdeB8ne190102Ev
FNA:9,21,_ZNKSt3__111__wrap_iterIPKPN7testing9TestSuiteEEdeB8ne190102Ev
FNA:9,102,_ZNKSt3__111__wrap_iterIPKcEdeB8ne190102Ev
FNA:9,0,_ZNKSt3__111__wrap_iterIPN7testing12TestPropertyEEdeB8ne190102Ev
FNA:9,0,_ZNKSt3__111__wrap_iterIPN7testing8internal13edit_distance8EditTypeEEdeB8ne190102Ev
FNA:9,12,_ZNKSt3__111__wrap_iterIPNS_12basic_stringIcNS_11char_traitsIcEENS_9allocatorIcEEEEEdeB8ne190102Ev
FNA:9,0,_ZNKSt3__111__wrap_iterIPPN7testing11EnvironmentEEdeB8ne190102Ev
FNA:9,29,_ZNKSt3__111__wrap_iterIPPN7testing8TestInfoEEdeB8ne190102Ev
FNA:9,0,_ZNKSt3__111__wrap_iterIPPN7testing8internal30ParameterizedTestSuiteInfoBaseEEdeB8ne190102Ev
FNA:9,23,_ZNKSt3__111__wrap_iterIPPN7testing9TestSuiteEEdeB8ne190102Ev
FNA:9,89,_ZNKSt3__111__wrap_iterIPcEdeB8ne190102Ev
FNL:10,52,53
FNA:10,0,_ZNKSt3__111__wrap_iterIPN7testing12TestPropertyEEptB8ne190102Ev
FNL:11,55,57
FNA:11,0,_ZNSt3__111__wrap_iterIPKN7testing14TestPartResultEEppB8ne190102Ev
FNA:11,0,_ZNSt3__111__wrap_iterIPKN7testing8internal13edit_distance8EditTypeEEppB8ne190102Ev
FNA:11,56,_ZNSt3__111__wrap_iterIPKNS_12basic_stringIcNS_11char_traitsIcEENS_9allocatorIcEEEEEppB8ne190102Ev
FNA:11,0,_ZNSt3__111__wrap_iterIPKPN7testing11EnvironmentEEppB8ne190102Ev
FNA:11,0,_ZNSt3__111__wrap_iterIPKPN7testing17TestEventListenerEEppB8ne190102Ev
FNA:11,120,_ZNSt3__111__wrap_iterIPKPN7testing8TestInfoEEppB8ne190102Ev
FNA:11,20,_ZNSt3__111__wrap_iterIPKPN7testing9TestSuiteEEppB8ne190102Ev
FNA:11,90,_ZNSt3__111__wrap_iterIPKcEppB8ne190102Ev
FNA:11,0,_ZNSt3__111__wrap_iterIPN7testing12TestPropertyEEppB8ne190102Ev
FNA:11,0,_ZNSt3__111__wrap_iterIPN7testing8internal13edit_distance8EditTypeEEppB8ne190102Ev
FNA:11,24,_ZNSt3__111__wrap_iterIPNS_12basic_stringIcNS_11char_traitsIcEENS_9allocatorIcEEEEEppB8ne190102Ev
FNA:11,23,_ZNSt3__111__wrap_iterIPPN7testing8TestInfoEEppB8ne190102Ev
FNA:11,0,_ZNSt3__111__wrap_iterIPPN7testing8internal30ParameterizedTestSuiteInfoBaseEEppB8ne190102Ev
FNA:11,4,_ZNSt3__111__wrap_iterIPPN7testing9TestSuiteEEppB8ne190102Ev
FNA:11,81,_ZNSt3__111__wrap_iterIPcEppB8ne190102Ev
FNL:12,59,62
FNA:12,81,_ZNSt3__111__wrap_iterIPcEppB8ne190102Ei
FNL:13,65,67
FNA:13,0,_ZNSt3__111__wrap_iterIPN7testing8internal13edit_distance8EditTypeEEmmB8ne190102Ev
FNA:13,0,_ZNSt3__111__wrap_iterIPNS_12basic_stringIcNS_11char_traitsIcEENS_9allocatorIcEEEEEmmB8ne190102Ev
FNA:13,0,_ZNSt3__111__wrap_iterIPPN7testing11EnvironmentEEmmB8ne190102Ev
FNA:13,8,_ZNSt3__111__wrap_iterIPPN7testing8TestInfoEEmmB8ne190102Ev
FNA:13,19,_ZNSt3__111__wrap_iterIPPN7testing9TestSuiteEEmmB8ne190102Ev
FNA:13,0,_ZNSt3__111__wrap_iterIPcEmmB8ne190102Ev
FNL:14,74,77
FNA:14,0,_ZNKSt3__111__wrap_iterIPKN7testing8internal13edit_distance8EditTypeEEplB8ne190102El
FNA:14,0,_ZNKSt3__111__wrap_iterIPKNS_12basic_stringIcNS_11char_traitsIcEENS_9allocatorIcEEEEEplB8ne190102El
FNA:14,14,_ZNKSt3__111__wrap_iterIPNS_12basic_stringIcNS_11char_traitsIcEENS_9allocatorIcEEEEEplB8ne190102El
FNA:14,0,_ZNKSt3__111__wrap_iterIPPN7testing17TestEventListenerEEplB8ne190102El
FNA:14,0,_ZNKSt3__111__wrap_iterIPPN7testing8TestInfoEEplB8ne190102El
FNA:14,0,_ZNKSt3__111__wrap_iterIPPN7testing9TestSuiteEEplB8ne190102El
FNA:14,1,_ZNKSt3__111__wrap_iterIPcEplB8ne190102El
FNL:15,79,81
FNA:15,0,_ZNSt3__111__wrap_iterIPKN7testing8internal13edit_distance8EditTypeEEpLB8ne190102El
FNA:15,0,_ZNSt3__111__wrap_iterIPKNS_12basic_stringIcNS_11char_traitsIcEENS_9allocatorIcEEEEEpLB8ne190102El
FNA:15,14,_ZNSt3__111__wrap_iterIPNS_12basic_stringIcNS_11char_traitsIcEENS_9allocatorIcEEEEEpLB8ne190102El
FNA:15,0,_ZNSt3__111__wrap_iterIPPN7testing17TestEventListenerEEpLB8ne190102El
FNA:15,0,_ZNSt3__111__wrap_iterIPPN7testing8TestInfoEEpLB8ne190102El
FNA:15,0,_ZNSt3__111__wrap_iterIPPN7testing9TestSuiteEEpLB8ne190102El
FNA:15,9,_ZNSt3__111__wrap_iterIPcEpLB8ne190102El
FNL:16,94,94
FNA:16,180,_ZNKSt3__111__wrap_iterIPKN7testing14TestPartResultEE4baseB8ne190102Ev
FNA:16,0,_ZNKSt3__111__wrap_iterIPKN7testing8internal13edit_distance8EditTypeEE4baseB8ne190102Ev
FNA:16,232,_ZNKSt3__111__wrap_iterIPKNS_12basic_stringIcNS_11char_traitsIcEENS_9allocatorIcEEEEE4baseB8ne190102Ev
FNA:16,4,_ZNKSt3__111__wrap_iterIPKPN7testing11EnvironmentEE4baseB8ne190102Ev
FNA:16,0,_ZNKSt3__111__wrap_iterIPKPN7testing17TestEventListenerEE4baseB8ne190102Ev
FNA:16,320,_ZNKSt3__111__wrap_iterIPKPN7testing8TestInfoEE4baseB8ne190102Ev
FNA:16,52,_ZNKSt3__111__wrap_iterIPKPN7testing9TestSuiteEE4baseB8ne190102Ev
FNA:16,127,_ZNKSt3__111__wrap_iterIPKcE4baseB8ne190102Ev
FNA:16,0,_ZNKSt3__111__wrap_iterIPN7testing12TestPropertyEE4baseB8ne190102Ev
FNA:16,0,_ZNKSt3__111__wrap_iterIPN7testing8internal13edit_distance8EditTypeEE4baseB8ne190102Ev
FNA:16,118,_ZNKSt3__111__wrap_iterIPNS_12basic_stringIcNS_11char_traitsIcEENS_9allocatorIcEEEEE4baseB8ne190102Ev
FNA:16,2,_ZNKSt3__111__wrap_iterIPPN7testing11EnvironmentEE4baseB8ne190102Ev
FNA:16,0,_ZNKSt3__111__wrap_iterIPPN7testing17TestEventListenerEE4baseB8ne190102Ev
FNA:16,70,_ZNKSt3__111__wrap_iterIPPN7testing8TestInfoEE4baseB8ne190102Ev
FNA:16,2,_ZNKSt3__111__wrap_iterIPPN7testing8internal30ParameterizedTestSuiteInfoBaseEE4baseB8ne190102Ev
FNA:16,10,_ZNKSt3__111__wrap_iterIPPN7testing9TestSuiteEE4baseB8ne190102Ev
FNA:16,103,_ZNKSt3__111__wrap_iterIPcE4baseB8ne190102Ev
FNL:17,97,97
FNA:17,180,_ZNSt3__111__wrap_iterIPKN7testing14TestPartResultEEC1B8ne190102ES4_
FNA:17,180,_ZNSt3__111__wrap_iterIPKN7testing14TestPartResultEEC2B8ne190102ES4_
FNA:17,0,_ZNSt3__111__wrap_iterIPKN7testing8internal13edit_distance8EditTypeEEC1B8ne190102ES6_
FNA:17,0,_ZNSt3__111__wrap_iterIPKN7testing8internal13edit_distance8EditTypeEEC2B8ne190102ES6_
FNA:17,108,_ZNSt3__111__wrap_iterIPKNS_12basic_stringIcNS_11char_traitsIcEENS_9allocatorIcEEEEEC1B8ne190102ES8_
FNA:17,108,_ZNSt3__111__wrap_iterIPKNS_12basic_stringIcNS_11char_traitsIcEENS_9allocatorIcEEEEEC2B8ne190102ES8_
FNA:17,4,_ZNSt3__111__wrap_iterIPKPN7testing11EnvironmentEEC1B8ne190102ES5_
FNA:17,4,_ZNSt3__111__wrap_iterIPKPN7testing11EnvironmentEEC2B8ne190102ES5_
FNA:17,0,_ZNSt3__111__wrap_iterIPKPN7testing17TestEventListenerEEC1B8ne190102ES5_
FNA:17,0,_ZNSt3__111__wrap_iterIPKPN7testing17TestEventListenerEEC2B8ne190102ES5_
FNA:17,188,_ZNSt3__111__wrap_iterIPKPN7testing8TestInfoEEC1B8ne190102ES5_
FNA:17,188,_ZNSt3__111__wrap_iterIPKPN7testing8TestInfoEEC2B8ne190102ES5_
FNA:17,28,_ZNSt3__111__wrap_iterIPKPN7testing9TestSuiteEEC1B8ne190102ES5_
FNA:17,28,_ZNSt3__111__wrap_iterIPKPN7testing9TestSuiteEEC2B8ne190102ES5_
FNA:17,25,_ZNSt3__111__wrap_iterIPKcEC1B8ne190102ES2_
FNA:17,25,_ZNSt3__111__wrap_iterIPKcEC2B8ne190102ES2_
FNA:17,0,_ZNSt3__111__wrap_iterIPN7testing12TestPropertyEEC1B8ne190102ES3_
FNA:17,0,_ZNSt3__111__wrap_iterIPN7testing12TestPropertyEEC2B8ne190102ES3_
FNA:17,0,_ZNSt3__111__wrap_iterIPN7testing8internal13edit_distance8EditTypeEEC1B8ne190102ES5_
FNA:17,0,_ZNSt3__111__wrap_iterIPN7testing8internal13edit_distance8EditTypeEEC2B8ne190102ES5_
FNA:17,66,_ZNSt3__111__wrap_iterIPNS_12basic_stringIcNS_11char_traitsIcEENS_9allocatorIcEEEEEC1B8ne190102ES7_
FNA:17,66,_ZNSt3__111__wrap_iterIPNS_12basic_stringIcNS_11char_traitsIcEENS_9allocatorIcEEEEEC2B8ne190102ES7_
FNA:17,2,_ZNSt3__111__wrap_iterIPPN7testing11EnvironmentEEC1B8ne190102ES4_
FNA:17,2,_ZNSt3__111__wrap_iterIPPN7testing11EnvironmentEEC2B8ne190102ES4_
FNA:17,0,_ZNSt3__111__wrap_iterIPPN7testing17TestEventListenerEEC1B8ne190102ES4_
FNA:17,0,_ZNSt3__111__wrap_iterIPPN7testing17TestEventListenerEEC2B8ne190102ES4_
FNA:17,18,_ZNSt3__111__wrap_iterIPPN7testing8TestInfoEEC1B8ne190102ES4_
FNA:17,18,_ZNSt3__111__wrap_iterIPPN7testing8TestInfoEEC2B8ne190102ES4_
FNA:17,2,_ZNSt3__111__wrap_iterIPPN7testing8internal30ParameterizedTestSuiteInfoBaseEEC1B8ne190102ES5_
FNA:17,2,_ZNSt3__111__wrap_iterIPPN7testing8internal30ParameterizedTestSuiteInfoBaseEEC2B8ne190102ES5_
FNA:17,21,_ZNSt3__111__wrap_iterIPPN7testing9TestSuiteEEC1B8ne190102ES4_
FNA:17,21,_ZNSt3__111__wrap_iterIPPN7testing9TestSuiteEEC2B8ne190102ES4_
FNA:17,94,_ZNSt3__111__wrap_iterIPcEC1B8ne190102ES1_
FNA:17,94,_ZNSt3__111__wrap_iterIPcEC2B8ne190102ES1_
FNF:18
FNH:15
DA:47,0
DA:49,28
DA:50,28
DA:51,465
DA:52,0
DA:53,0
DA:55,418
DA:56,418
DA:57,418
DA:59,81
DA:60,81
DA:61,81
DA:62,81
DA:65,27
DA:66,27
DA:67,27
DA:74,15
DA:75,15
DA:76,15
DA:77,15
DA:79,23
DA:80,23
DA:81,23
DA:94,1220
DA:97,1472
DA:115,475
DA:116,475
DA:121,82
DA:122,82
DA:127,0
DA:128,0
DA:140,444
DA:141,444
DA:146,82
DA:147,82
DA:210,25
DA:217,25
DA:238,42
DA:239,42
LF:39
LH:34
end_of_record
TN:
SF:/Library/Developer/CommandLineTools/SDKs/MacOSX.sdk/usr/include/c++/v1/__locale
FNL:0,173
FNA:0,47,_ZNSt3__19use_facetB8ne190102INS_5ctypeIcEEEERKT_RKNS_6localeE
FNL:1,571
FNA:1,47,_ZNKSt3__15ctypeIcE5widenB8ne190102Ec
FNF:2
FNH:2
DA:173,47
DA:174,47
DA:571,47
LF:3
LH:3
end_of_record
TN:
SF:/Library/Developer/CommandLineTools/SDKs/MacOSX.sdk/usr/include/c++/v1/__math/rounding_functions.h
FNL:0,29,29
FNA:0,2,_ZNSt3__16__math4ceilB8ne190102Ef
FNF:1
FNH:1
DA:29,2
LF:1
LH:1
end_of_record
TN:
SF:/Library/Developer/CommandLineTools/SDKs/MacOSX.sdk/usr/include/c++/v1/__math/traits.h
FNL:0,115,116
FNA:0,0,_ZNSt3__16__math5isnanB8ne190102EUa9enable_ifIXLb1EEEd
FNL:1,32,33
FNA:1,0,_ZNSt3__16__math7signbitB8ne190102IdLi0EEEbT_
FNL:2,88,89
FNA:2,0,_ZNSt3__16__math5isinfB8ne190102EUa9enable_ifIXLb1EEEd
FNF:3
FNH:0
DA:32,0
DA:33,0
DA:88,0
DA:89,0
DA:115,0
DA:116,0
LF:6
LH:0
end_of_record
TN:
SF:/Library/Developer/CommandLineTools/SDKs/MacOSX.sdk/usr/include/c++/v1/__memory/allocate_at_least.h
FNL:0,40,41
FNA:0,0,_ZNSt3__119__allocate_at_leastB8ne190102INS_9allocatorIN7testing12TestPropertyEEEEENS_19__allocation_resultINS_16allocator_traitsIT_E7pointerEEERS7_m
FNA:0,0,_ZNSt3__119__allocate_at_leastB8ne190102INS_9allocatorIN7testing14TestPartResultEEEEENS_19__allocation_resultINS_16allocator_traitsIT_E7pointerEEERS7_m
FNA:0,0,_ZNSt3__119__allocate_at_leastB8ne190102INS_9allocatorIN7testing8internal13edit_distance8EditTypeEEEEENS_19__allocation_resultINS_16allocator_traitsIT_E7pointerEEERS9_m
FNA:0,0,_ZNSt3__119__allocate_at_leastB8ne190102INS_9allocatorIN7testing8internal9TraceInfoEEEEENS_19__allocation_resultINS_16allocator_traitsIT_E7pointerEEERS8_m
FNA:0,23,_ZNSt3__119__allocate_at_leastB8ne190102INS_9allocatorINS_12basic_stringIcNS_11char_traitsIcEENS1_IcEEEEEEEENS_19__allocation_resultINS_16allocator_traitsIT_E7pointerEEERSA_m
FNA:0,0,_ZNSt3__119__allocate_at_leastB8ne190102INS_9allocatorINS_6vectorIN7testing8internal13edit_distance8EditTypeENS1_IS6_EEEEEEEENS_19__allocation_resultINS_16allocator_traitsIT_E7pointerEEERSC_m
FNA:0,0,_ZNSt3__119__allocate_at_leastB8ne190102INS_9allocatorINS_6vectorIdNS1_IdEEEEEEEENS_19__allocation_resultINS_16allocator_traitsIT_E7pointerEEERS8_m
FNA:0,0,_ZNSt3__119__allocate_at_leastB8ne190102INS_9allocatorIPN7testing11EnvironmentEEEEENS_19__allocation_resultINS_16allocator_traitsIT_E7pointerEEERS8_m
FNA:0,1,_ZNSt3__119__allocate_at_leastB8ne190102INS_9allocatorIPN7testing17TestEventListenerEEEEENS_19__allocation_resultINS_16allocator_traitsIT_E7pointerEEERS8_m
FNA:0,10,_ZNSt3__119__allocate_at_leastB8ne190102INS_9allocatorIPN7testing8TestInfoEEEEENS_19__allocation_resultINS_16allocator_traitsIT_E7pointerEEERS8_m
FNA:0,3,_ZNSt3__119__allocate_at_leastB8ne190102INS_9allocatorIPN7testing9TestSuiteEEEEENS_19__allocation_resultINS_16allocator_traitsIT_E7pointerEEERS8_m
FNA:0,0,_ZNSt3__119__allocate_at_leastB8ne190102INS_9allocatorIPcEEEENS_19__allocation_resultINS_16allocator_traitsIT_E7pointerEEERS6_m
FNA:0,0,_ZNSt3__119__allocate_at_leastB8ne190102INS_9allocatorIcEEEENS_19__allocation_resultINS_16allocator_traitsIT_E7pointerEEERS5_m
FNA:0,0,_ZNSt3__119__allocate_at_leastB8ne190102INS_9allocatorIdEEEENS_19__allocation_resultINS_16allocator_traitsIT_E7pointerEEERS5_m
FNA:0,13,_ZNSt3__119__allocate_at_leastB8ne190102INS_9allocatorIiEEEENS_19__allocation_resultINS_16allocator_traitsIT_E7pointerEEERS5_m
FNA:0,0,_ZNSt3__119__allocate_at_leastB8ne190102INS_9allocatorImEEEENS_19__allocation_resultINS_16allocator_traitsIT_E7pointerEEERS5_m
FNF:1
FNH:1
DA:40,50
DA:41,50
LF:2
LH:2
end_of_record
TN:
SF:/Library/Developer/CommandLineTools/SDKs/MacOSX.sdk/usr/include/c++/v1/__memory/allocation_guard.h
FNL:0,53,57
FNA:0,0,_ZNSt3__118__allocation_guardINS_9allocatorINS_11__list_nodeINS_4pairIcPKcEEPvEEEEEC1B8ne190102IS9_EET_m
FNA:0,0,_ZNSt3__118__allocation_guardINS_9allocatorINS_11__list_nodeINS_4pairIcPKcEEPvEEEEEC2B8ne190102IS9_EET_m
FNL:1,59,59
FNA:1,0,_ZNSt3__118__allocation_guardINS_9allocatorINS_11__list_nodeINS_4pairIcPKcEEPvEEEEED1B8ne190102Ev
FNA:1,0,_ZNSt3__118__allocation_guardINS_9allocatorINS_11__list_nodeINS_4pairIcPKcEEPvEEEEED2B8ne190102Ev
FNL:2,84,87
FNA:2,0,_ZNSt3__118__allocation_guardINS_9allocatorINS_11__list_nodeINS_4pairIcPKcEEPvEEEEE13__release_ptrB8ne190102Ev
FNL:3,90,90
FNA:3,0,_ZNKSt3__118__allocation_guardINS_9allocatorINS_11__list_nodeINS_4pairIcPKcEEPvEEEEE5__getB8ne190102Ev
FNL:4,93,97
FNA:4,0,_ZNSt3__118__allocation_guardINS_9allocatorINS_11__list_nodeINS_4pairIcPKcEEPvEEEEE9__destroyB8ne190102Ev
FNF:5
FNH:0
DA:53,0
DA:55,0
DA:56,0
DA:57,0
DA:59,0
DA:84,0
DA:85,0
DA:86,0
DA:87,0
DA:90,0
DA:93,0
DA:94,0
DA:95,0
DA:96,0
DA:97,0
LF:15
LH:0
end_of_record
TN:
SF:/Library/Developer/CommandLineTools/SDKs/MacOSX.sdk/usr/include/c++/v1/__memory/allocator.h
FNL:0,107,107
FNA:0,17,_ZNSt3__19allocatorIN7testing12TestPropertyEEC2B8ne190102Ev
FNA:0,17,_ZNSt3__19allocatorIN7testing14TestPartResultEEC2B8ne190102Ev
FNA:0,0,_ZNSt3__19allocatorIN7testing8internal13edit_distance8EditTypeEEC2B8ne190102Ev
FNA:0,0,_ZNSt3__19allocatorIN7testing8internal9TraceInfoEEC2B8ne190102Ev
FNA:0,11,_ZNSt3__19allocatorINS_11__hash_nodeINS_12basic_stringIcNS_11char_traitsIcEENS0_IcEEEEPvEEEC2B8ne190102Ev
FNA:0,1,_ZNSt3__19allocatorINS_11__hash_nodeINS_17__hash_value_typeINS_12basic_stringIcNS_11char_traitsIcEENS0_IcEEEEPN7testing9TestSuiteEEEPvEEEC2B8ne190102Ev
FNA:0,1,_ZNSt3__19allocatorINS_11__hash_nodeINS_17__hash_value_typeINS_12basic_stringIcNS_11char_traitsIcEENS0_IcEEEEmEEPvEEEC2B8ne190102Ev
FNA:0,0,_ZNSt3__19allocatorINS_11__list_nodeINS_4pairIcPKcEEPvEEEC2B8ne190102Ev
FNA:0,1,_ZNSt3__19allocatorINS_11__tree_nodeINS_12__value_typeINS_12basic_stringIcNS_11char_traitsIcEENS0_IcEEEEN7testing8internal34TypeParameterizedTestSuiteRegistry30TypeParameterizedTestSuiteInfoEEEPvEEEC2B8ne190102Ev
FNA:0,0,_ZNSt3__19allocatorINS_11__tree_nodeINS_12__value_typeINS_12basic_stringIcNS_11char_traitsIcEENS0_IcEEEEmEEPvEEEC2B8ne190102Ev
FNA:0,1,_ZNSt3__19allocatorINS_11__tree_nodeINS_12basic_stringIcNS_11char_traitsIcEENS0_IcEEEEPvEEEC2B8ne190102Ev
FNA:0,30,_ZNSt3__19allocatorINS_12basic_stringIcNS_11char_traitsIcEENS0_IcEEEEEC2B8ne190102Ev
FNA:0,0,_ZNSt3__19allocatorINS_6vectorIN7testing8internal13edit_distance8EditTypeENS0_IS5_EEEEEC2B8ne190102Ev
FNA:0,0,_ZNSt3__19allocatorINS_6vectorIdNS0_IdEEEEEC2B8ne190102Ev
FNA:0,1,_ZNSt3__19allocatorIPN7testing11EnvironmentEEC2B8ne190102Ev
FNA:0,1,_ZNSt3__19allocatorIPN7testing17TestEventListenerEEC2B8ne190102Ev
FNA:0,4,_ZNSt3__19allocatorIPN7testing8TestInfoEEC2B8ne190102Ev
FNA:0,1,_ZNSt3__19allocatorIPN7testing8internal30ParameterizedTestSuiteInfoBaseEEC2B8ne190102Ev
FNA:0,1,_ZNSt3__19allocatorIPN7testing9TestSuiteEEC2B8ne190102Ev
FNA:0,11,_ZNSt3__19allocatorIPNS_16__hash_node_baseIPNS_11__hash_nodeINS_12basic_stringIcNS_11char_traitsIcEENS0_IcEEEEPvEEEEEC2B8ne190102Ev
FNA:0,1,_ZNSt3__19allocatorIPNS_16__hash_node_baseIPNS_11__hash_nodeINS_17__hash_value_typeINS_12basic_stringIcNS_11char_traitsIcEENS0_IcEEEEPN7testing9TestSuiteEEEPvEEEEEC2B8ne190102Ev
FNA:0,1,_ZNSt3__19allocatorIPNS_16__hash_node_baseIPNS_11__hash_nodeINS_17__hash_value_typeINS_12basic_stringIcNS_11char_traitsIcEENS0_IcEEEEmEEPvEEEEEC2B8ne190102Ev
FNA:0,0,_ZNSt3__19allocatorIPcEC2B8ne190102Ev
FNA:0,86,_ZNSt3__19allocatorIcEC1B8ne190102Ev
FNA:0,393,_ZNSt3__19allocatorIcEC2B8ne190102Ev
FNA:0,0,_ZNSt3__19allocatorIdEC2B8ne190102Ev
FNA:0,5,_ZNSt3__19allocatorIiEC2B8ne190102Ev
FNA:0,0,_ZNSt3__19allocatorImEC2B8ne190102Ev
FNA:0,0,_ZNSt3__19allocatorIwEC2B8ne190102Ev
FNL:1,112,118
FNA:1,0,_ZNSt3__19allocatorIN7testing12TestPropertyEE8allocateB8ne190102Em
FNA:1,0,_ZNSt3__19allocatorIN7testing14TestPartResultEE8allocateB8ne190102Em
FNA:1,0,_ZNSt3__19allocatorIN7testing8internal13edit_distance8EditTypeEE8allocateB8ne190102Em
FNA:1,0,_ZNSt3__19allocatorIN7testing8internal9TraceInfoEE8allocateB8ne190102Em
FNA:1,0,_ZNSt3__19allocatorINS_11__hash_nodeINS_12basic_stringIcNS_11char_traitsIcEENS0_IcEEEEPvEEE8allocateB8ne190102Em
FNA:1,4,_ZNSt3__19allocatorINS_11__hash_nodeINS_17__hash_value_typeINS_12basic_stringIcNS_11char_traitsIcEENS0_IcEEEEPN7testing9TestSuiteEEEPvEEE8allocateB8ne190102Em
FNA:1,0,_ZNSt3__19allocatorINS_11__list_nodeINS_4pairIcPKcEEPvEEE8allocateB8ne190102Em
FNA:1,0,_ZNSt3__19allocatorINS_11__tree_nodeINS_12__value_typeINS_12basic_stringIcNS_11char_traitsIcEENS0_IcEEEEN7testing8internal34TypeParameterizedTestSuiteRegistry30TypeParameterizedTestSuiteInfoEEEPvEEE8allocateB8ne190102Em
FNA:1,0,_ZNSt3__19allocatorINS_11__tree_nodeINS_12__value_typeINS_12basic_stringIcNS_11char_traitsIcEENS0_IcEEEEmEEPvEEE8allocateB8ne190102Em
FNA:1,0,_ZNSt3__19allocatorINS_11__tree_nodeINS_12basic_stringIcNS_11char_traitsIcEENS0_IcEEEEPvEEE8allocateB8ne190102Em
FNA:1,23,_ZNSt3__19allocatorINS_12basic_stringIcNS_11char_traitsIcEENS0_IcEEEEE8allocateB8ne190102Em
FNA:1,0,_ZNSt3__19allocatorINS_6vectorIN7testing8internal13edit_distance8EditTypeENS0_IS5_EEEEE8allocateB8ne190102Em
FNA:1,0,_ZNSt3__19allocatorINS_6vectorIdNS0_IdEEEEE8allocateB8ne190102Em
FNA:1,0,_ZNSt3__19allocatorIPN7testing11EnvironmentEE8allocateB8ne190102Em
FNA:1,1,_ZNSt3__19allocatorIPN7testing17TestEventListenerEE8allocateB8ne190102Em
FNA:1,10,_ZNSt3__19allocatorIPN7testing8TestInfoEE8allocateB8ne190102Em
FNA:1,3,_ZNSt3__19allocatorIPN7testing9TestSuiteEE8allocateB8ne190102Em
FNA:1,0,_ZNSt3__19allocatorIPNS_16__hash_node_baseIPNS_11__hash_nodeINS_12basic_stringIcNS_11char_traitsIcEENS0_IcEEEEPvEEEEE8allocateB8ne190102Em
FNA:1,2,_ZNSt3__19allocatorIPNS_16__hash_node_baseIPNS_11__hash_nodeINS_17__hash_value_typeINS_12basic_stringIcNS_11char_traitsIcEENS0_IcEEEEPN7testing9TestSuiteEEEPvEEEEE8allocateB8ne190102Em
FNA:1,0,_ZNSt3__19allocatorIPcE8allocateB8ne190102Em
FNA:1,0,_ZNSt3__19allocatorIcE8allocateB8ne190102Em
FNA:1,0,_ZNSt3__19allocatorIdE8allocateB8ne190102Em
FNA:1,13,_ZNSt3__19allocatorIiE8allocateB8ne190102Em
FNA:1,0,_ZNSt3__19allocatorImE8allocateB8ne190102Em
FNL:2,128,134
FNA:2,0,_ZNSt3__19allocatorIN7testing12TestPropertyEE10deallocateB8ne190102EPS2_m
FNA:2,0,_ZNSt3__19allocatorIN7testing14TestPartResultEE10deallocateB8ne190102EPS2_m
FNA:2,0,_ZNSt3__19allocatorIN7testing8internal13edit_distance8EditTypeEE10deallocateB8ne190102EPS4_m
FNA:2,0,_ZNSt3__19allocatorIN7testing8internal9TraceInfoEE10deallocateB8ne190102EPS3_m
FNA:2,0,_ZNSt3__19allocatorINS_11__hash_nodeINS_12basic_stringIcNS_11char_traitsIcEENS0_IcEEEEPvEEE10deallocateB8ne190102EPS8_m
FNA:2,0,_ZNSt3__19allocatorINS_11__hash_nodeINS_17__hash_value_typeINS_12basic_stringIcNS_11char_traitsIcEENS0_IcEEEEPN7testing9TestSuiteEEEPvEEE10deallocateB8ne190102EPSD_m
FNA:2,0,_ZNSt3__19allocatorINS_11__hash_nodeINS_17__hash_value_typeINS_12basic_stringIcNS_11char_traitsIcEENS0_IcEEEEmEEPvEEE10deallocateB8ne190102EPSA_m
FNA:2,0,_ZNSt3__19allocatorINS_11__list_nodeINS_4pairIcPKcEEPvEEE10deallocateB8ne190102EPS7_m
FNA:2,0,_ZNSt3__19allocatorINS_11__tree_nodeINS_12__value_typeINS_12basic_stringIcNS_11char_traitsIcEENS0_IcEEEEN7testing8internal34TypeParameterizedTestSuiteRegistry30TypeParameterizedTestSuiteInfoEEEPvEEE10deallocateB8ne190102EPSE_m
FNA:2,0,_ZNSt3__19allocatorINS_11__tree_nodeINS_12__value_typeINS_12basic_stringIcNS_11char_traitsIcEENS0_IcEEEEmEEPvEEE10deallocateB8ne190102EPSA_m
FNA:2,0,_ZNSt3__19allocatorINS_11__tree_nodeINS_12basic_stringIcNS_11char_traitsIcEENS0_IcEEEEPvEEE10deallocateB8ne190102EPS8_m
FNA:2,22,_ZNSt3__19allocatorINS_12basic_stringIcNS_11char_traitsIcEENS0_IcEEEEE10deallocateB8ne190102EPS5_m
FNA:2,0,_ZNSt3__19allocatorINS_6vectorIN7testing8internal13edit_distance8EditTypeENS0_IS5_EEEEE10deallocateB8ne190102EPS7_m
FNA:2,0,_ZNSt3__19allocatorINS_6vectorIdNS0_IdEEEEE10deallocateB8ne190102EPS3_m
FNA:2,0,_ZNSt3__19allocatorIPN7testing11EnvironmentEE10deallocateB8ne190102EPS3_m
FNA:2,0,_ZNSt3__19allocatorIPN7testing17TestEventListenerEE10deallocateB8ne190102EPS3_m
FNA:2,6,_ZNSt3__19allocatorIPN7testing8TestInfoEE10deallocateB8ne190102EPS3_m
FNA:2,0,_ZNSt3__19allocatorIPN7testing8internal30ParameterizedTestSuiteInfoBaseEE10deallocateB8ne190102EPS4_m
FNA:2,2,_ZNSt3__19allocatorIPN7testing9TestSuiteEE10deallocateB8ne190102EPS3_m
FNA:2,0,_ZNSt3__19allocatorIPNS_16__hash_node_baseIPNS_11__hash_nodeINS_12basic_stringIcNS_11char_traitsIcEENS0_IcEEEEPvEEEEE10deallocateB8ne190102EPSC_m
FNA:2,1,_ZNSt3__19allocatorIPNS_16__hash_node_baseIPNS_11__hash_nodeINS_17__hash_value_typeINS_12basic_stringIcNS_11char_traitsIcEENS0_IcEEEEPN7testing9TestSuiteEEEPvEEEEE10deallocateB8ne190102EPSH_m
FNA:2,0,_ZNSt3__19allocatorIPNS_16__hash_node_baseIPNS_11__hash_nodeINS_17__hash_value_typeINS_12basic_stringIcNS_11char_traitsIcEENS0_IcEEEEmEEPvEEEEE10deallocateB8ne190102EPSE_m
FNA:2,0,_ZNSt3__19allocatorIPcE10deallocateB8ne190102EPS1_m
FNA:2,0,_ZNSt3__19allocatorIcE10deallocateB8ne190102EPcm
FNA:2,0,_ZNSt3__19allocatorIdE10deallocateB8ne190102EPdm
FNA:2,8,_ZNSt3__19allocatorIiE10deallocateB8ne190102EPim
FNA:2,0,_ZNSt3__19allocatorImE10deallocateB8ne190102EPmm
FNL:3,159,160
FNA:3,0,_ZNKSt3__19allocatorIN7testing12TestPropertyEE8max_sizeB8ne190102Ev
FNA:3,0,_ZNKSt3__19allocatorIN7testing14TestPartResultEE8max_sizeB8ne190102Ev
FNA:3,0,_ZNKSt3__19allocatorIN7testing8internal13edit_distance8EditTypeEE8max_sizeB8ne190102Ev
FNA:3,0,_ZNKSt3__19allocatorIN7testing8internal9TraceInfoEE8max_sizeB8ne190102Ev
FNA:3,0,_ZNKSt3__19allocatorINS_11__hash_nodeINS_12basic_stringIcNS_11char_traitsIcEENS0_IcEEEEPvEEE8max_sizeB8ne190102Ev
FNA:3,4,_ZNKSt3__19allocatorINS_11__hash_nodeINS_17__hash_value_typeINS_12basic_stringIcNS_11char_traitsIcEENS0_IcEEEEPN7testing9TestSuiteEEEPvEEE8max_sizeB8ne190102Ev
FNA:3,0,_ZNKSt3__19allocatorINS_11__list_nodeINS_4pairIcPKcEEPvEEE8max_sizeB8ne190102Ev
FNA:3,0,_ZNKSt3__19allocatorINS_11__tree_nodeINS_12__value_typeINS_12basic_stringIcNS_11char_traitsIcEENS0_IcEEEEN7testing8internal34TypeParameterizedTestSuiteRegistry30TypeParameterizedTestSuiteInfoEEEPvEEE8max_sizeB8ne190102Ev
FNA:3,0,_ZNKSt3__19allocatorINS_11__tree_nodeINS_12__value_typeINS_12basic_stringIcNS_11char_traitsIcEENS0_IcEEEEmEEPvEEE8max_sizeB8ne190102Ev
FNA:3,0,_ZNKSt3__19allocatorINS_11__tree_nodeINS_12basic_stringIcNS_11char_traitsIcEENS0_IcEEEEPvEEE8max_sizeB8ne190102Ev
FNA:3,46,_ZNKSt3__19allocatorINS_12basic_stringIcNS_11char_traitsIcEENS0_IcEEEEE8max_sizeB8ne190102Ev
FNA:3,0,_ZNKSt3__19allocatorINS_6vectorIN7testing8internal13edit_distance8EditTypeENS0_IS5_EEEEE8max_sizeB8ne190102Ev
FNA:3,0,_ZNKSt3__19allocatorINS_6vectorIdNS0_IdEEEEE8max_sizeB8ne190102Ev
FNA:3,0,_ZNKSt3__19allocatorIPN7testing11EnvironmentEE8max_sizeB8ne190102Ev
FNA:3,2,_ZNKSt3__19allocatorIPN7testing17TestEventListenerEE8max_sizeB8ne190102Ev
FNA:3,20,_ZNKSt3__19allocatorIPN7testing8TestInfoEE8max_sizeB8ne190102Ev
FNA:3,6,_ZNKSt3__19allocatorIPN7testing9TestSuiteEE8max_sizeB8ne190102Ev
FNA:3,0,_ZNKSt3__19allocatorIPNS_16__hash_node_baseIPNS_11__hash_nodeINS_12basic_stringIcNS_11char_traitsIcEENS0_IcEEEEPvEEEEE8max_sizeB8ne190102Ev
FNA:3,2,_ZNKSt3__19allocatorIPNS_16__hash_node_baseIPNS_11__hash_nodeINS_17__hash_value_typeINS_12basic_stringIcNS_11char_traitsIcEENS0_IcEEEEPN7testing9TestSuiteEEEPvEEEEE8max_sizeB8ne190102Ev
FNA:3,0,_ZNKSt3__19allocatorIPcE8max_sizeB8ne190102Ev
FNA:3,13,_ZNKSt3__19allocatorIcE8max_sizeB8ne190102Ev
FNA:3,0,_ZNKSt3__19allocatorIdE8max_sizeB8ne190102Ev
FNA:3,26,_ZNKSt3__19allocatorIiE8max_sizeB8ne190102Ev
FNA:3,0,_ZNKSt3__19allocatorImE8max_sizeB8ne190102Ev
FNL:4,164,166
FNA:4,0,_ZNSt3__19allocatorIN7testing12TestPropertyEE9constructB8ne190102IS2_JRKS2_EEEvPT_DpOT0_
FNA:4,0,_ZNSt3__19allocatorIN7testing12TestPropertyEE9constructB8ne190102IS2_JS2_EEEvPT_DpOT0_
FNA:4,0,_ZNSt3__19allocatorIN7testing14TestPartResultEE9constructB8ne190102IS2_JRKS2_EEEvPT_DpOT0_
FNA:4,0,_ZNSt3__19allocatorIN7testing14TestPartResultEE9constructB8ne190102IS2_JS2_EEEvPT_DpOT0_
FNA:4,0,_ZNSt3__19allocatorIN7testing8internal13edit_distance8EditTypeEE9constructB8ne190102IS4_JEEEvPT_DpOT0_
FNA:4,0,_ZNSt3__19allocatorIN7testing8internal13edit_distance8EditTypeEE9constructB8ne190102IS4_JRKS4_EEEvPT_DpOT0_
FNA:4,0,_ZNSt3__19allocatorIN7testing8internal9TraceInfoEE9constructB8ne190102IS3_JRKS3_EEEvPT_DpOT0_
FNA:4,0,_ZNSt3__19allocatorIN7testing8internal9TraceInfoEE9constructB8ne190102IS3_JS3_EEEvPT_DpOT0_
FNA:4,0,_ZNSt3__19allocatorINS_11__hash_nodeINS_12basic_stringIcNS_11char_traitsIcEENS0_IcEEEEPvEEE9constructB8ne190102IS6_JS6_EEEvPT_DpOT0_
FNA:4,4,_ZNSt3__19allocatorINS_11__hash_nodeINS_17__hash_value_typeINS_12basic_stringIcNS_11char_traitsIcEENS0_IcEEEEPN7testing9TestSuiteEEEPvEEE9constructB8ne190102INS_4pairIKS7_SA_EEJRSH_RKSA_EEEvPT_DpOT0_
FNA:4,0,_ZNSt3__19allocatorINS_11__list_nodeINS_4pairIcPKcEEPvEEE9constructB8ne190102IS5_JS5_EEEvPT_DpOT0_
FNA:4,0,_ZNSt3__19allocatorINS_11__tree_nodeINS_12__value_typeINS_12basic_stringIcNS_11char_traitsIcEENS0_IcEEEEN7testing8internal34TypeParameterizedTestSuiteRegistry30TypeParameterizedTestSuiteInfoEEEPvEEE9constructB8ne190102INS_4pairIKS7_SB_EEJS7_SB_EEEvPT_DpOT0_
FNA:4,0,_ZNSt3__19allocatorINS_11__tree_nodeINS_12__value_typeINS_12basic_stringIcNS_11char_traitsIcEENS0_IcEEEEmEEPvEEE9constructB8ne190102INS_4pairIKS7_mEEJRKNS_21piecewise_construct_tENS_5tupleIJRSE_EEENSJ_IJEEEEEEvPT_DpOT0_
FNA:4,0,_ZNSt3__19allocatorINS_11__tree_nodeINS_12basic_stringIcNS_11char_traitsIcEENS0_IcEEEEPvEEE9constructB8ne190102IS6_JRKS6_EEEvPT_DpOT0_
FNA:4,0,_ZNSt3__19allocatorINS_11__tree_nodeINS_12basic_stringIcNS_11char_traitsIcEENS0_IcEEEEPvEEE9constructB8ne190102IS6_JS6_EEEvPT_DpOT0_
FNA:4,0,_ZNSt3__19allocatorINS_12basic_stringIcNS_11char_traitsIcEENS0_IcEEEEE9constructB8ne190102IS5_JRKPKcEEEvPT_DpOT0_
FNA:4,0,_ZNSt3__19allocatorINS_12basic_stringIcNS_11char_traitsIcEENS0_IcEEEEE9constructB8ne190102IS5_JRKS5_EEEvPT_DpOT0_
FNA:4,1,_ZNSt3__19allocatorINS_12basic_stringIcNS_11char_traitsIcEENS0_IcEEEEE9constructB8ne190102IS5_JRS5_EEEvPT_DpOT0_
FNA:4,27,_ZNSt3__19allocatorINS_12basic_stringIcNS_11char_traitsIcEENS0_IcEEEEE9constructB8ne190102IS5_JS5_EEEvPT_DpOT0_
FNA:4,0,_ZNSt3__19allocatorINS_6vectorIN7testing8internal13edit_distance8EditTypeENS0_IS5_EEEEE9constructB8ne190102IS7_JRKS7_EEEvPT_DpOT0_
FNA:4,0,_ZNSt3__19allocatorINS_6vectorIdNS0_IdEEEEE9constructB8ne190102IS3_JRKS3_EEEvPT_DpOT0_
FNA:4,0,_ZNSt3__19allocatorIPN7testing11EnvironmentEE9constructB8ne190102IS3_JRKS3_EEEvPT_DpOT0_
FNA:4,1,_ZNSt3__19allocatorIPN7testing17TestEventListenerEE9constructB8ne190102IS3_JRKS3_EEEvPT_DpOT0_
FNA:4,12,_ZNSt3__19allocatorIPN7testing8TestInfoEE9constructB8ne190102IS3_JRKS3_EEEvPT_DpOT0_
FNA:4,4,_ZNSt3__19allocatorIPN7testing9TestSuiteEE9constructB8ne190102IS3_JRKS3_EEEvPT_DpOT0_
FNA:4,0,_ZNSt3__19allocatorIPN7testing9TestSuiteEE9constructB8ne190102IS3_JS3_EEEvPT_DpOT0_
FNA:4,0,_ZNSt3__19allocatorIPcE9constructB8ne190102IS1_JS1_EEEvPT_DpOT0_
FNA:4,0,_ZNSt3__19allocatorIdE9constructB8ne190102IdJEEEvPT_DpOT0_
FNA:4,16,_ZNSt3__19allocatorIiE9constructB8ne190102IiJiEEEvPT_DpOT0_
FNA:4,0,_ZNSt3__19allocatorImE9constructB8ne190102ImJmEEEvPT_DpOT0_
FNL:5,168,168
FNA:5,0,_ZNSt3__19allocatorIN7testing12TestPropertyEE7destroyB8ne190102EPS2_
FNA:5,0,_ZNSt3__19allocatorIN7testing14TestPartResultEE7destroyB8ne190102EPS2_
FNA:5,0,_ZNSt3__19allocatorIN7testing8internal13edit_distance8EditTypeEE7destroyB8ne190102EPS4_
FNA:5,0,_ZNSt3__19allocatorIN7testing8internal9TraceInfoEE7destroyB8ne190102EPS3_
FNA:5,27,_ZNSt3__19allocatorINS_12basic_stringIcNS_11char_traitsIcEENS0_IcEEEEE7destroyB8ne190102EPS5_
FNA:5,0,_ZNSt3__19allocatorINS_6vectorIN7testing8internal13edit_distance8EditTypeENS0_IS5_EEEEE7destroyB8ne190102EPS7_
FNA:5,0,_ZNSt3__19allocatorINS_6vectorIdNS0_IdEEEEE7destroyB8ne190102EPS3_
FNA:5,0,_ZNSt3__19allocatorIPN7testing11EnvironmentEE7destroyB8ne190102EPS3_
FNA:5,0,_ZNSt3__19allocatorIPN7testing17TestEventListenerEE7destroyB8ne190102EPS3_
FNA:5,0,_ZNSt3__19allocatorIPN7testing8TestInfoEE7destroyB8ne190102EPS3_
FNA:5,0,_ZNSt3__19allocatorIPN7testing8internal30ParameterizedTestSuiteInfoBaseEE7destroyB8ne190102EPS4_
FNA:5,0,_ZNSt3__19allocatorIPN7testing9TestSuiteEE7destroyB8ne190102EPS3_
FNA:5,0,_ZNSt3__19allocatorIPcE7destroyB8ne190102EPS1_
FNA:5,0,_ZNSt3__19allocatorIdE7destroyB8ne190102EPd
FNA:5,0,_ZNSt3__19allocatorIiE7destroyB8ne190102EPi
FNA:5,0,_ZNSt3__19allocatorImE7destroyB8ne190102EPm
FNL:6,85,85
FNA:6,17,_ZNSt3__116__non_trivial_ifILb1ENS_9allocatorIN7testing12TestPropertyEEEEC2B8ne190102Ev
FNA:6,17,_ZNSt3__116__non_trivial_ifILb1ENS_9allocatorIN7testing14TestPartResultEEEEC2B8ne190102Ev
FNA:6,0,_ZNSt3__116__non_trivial_ifILb1ENS_9allocatorIN7testing8internal13edit_distance8EditTypeEEEEC2B8ne190102Ev
FNA:6,0,_ZNSt3__116__non_trivial_ifILb1ENS_9allocatorIN7testing8internal9TraceInfoEEEEC2B8ne190102Ev
FNA:6,11,_ZNSt3__116__non_trivial_ifILb1ENS_9allocatorINS_11__hash_nodeINS_12basic_stringIcNS_11char_traitsIcEENS1_IcEEEEPvEEEEEC2B8ne190102Ev
FNA:6,1,_ZNSt3__116__non_trivial_ifILb1ENS_9allocatorINS_11__hash_nodeINS_17__hash_value_typeINS_12basic_stringIcNS_11char_traitsIcEENS1_IcEEEEPN7testing9TestSuiteEEEPvEEEEEC2B8ne190102Ev
FNA:6,1,_ZNSt3__116__non_trivial_ifILb1ENS_9allocatorINS_11__hash_nodeINS_17__hash_value_typeINS_12basic_stringIcNS_11char_traitsIcEENS1_IcEEEEmEEPvEEEEEC2B8ne190102Ev
FNA:6,0,_ZNSt3__116__non_trivial_ifILb1ENS_9allocatorINS_11__list_nodeINS_4pairIcPKcEEPvEEEEEC2B8ne190102Ev
FNA:6,1,_ZNSt3__116__non_trivial_ifILb1ENS_9allocatorINS_11__tree_nodeINS_12__value_typeINS_12basic_stringIcNS_11char_traitsIcEENS1_IcEEEEN7testing8internal34TypeParameterizedTestSuiteRegistry30TypeParameterizedTestSuiteInfoEEEPvEEEEEC2B8ne190102Ev
FNA:6,0,_ZNSt3__116__non_trivial_ifILb1ENS_9allocatorINS_11__tree_nodeINS_12__value_typeINS_12basic_stringIcNS_11char_traitsIcEENS1_IcEEEEmEEPvEEEEEC2B8ne190102Ev
FNA:6,1,_ZNSt3__116__non_trivial_ifILb1ENS_9allocatorINS_11__tree_nodeINS_12basic_stringIcNS_11char_traitsIcEENS1_IcEEEEPvEEEEEC2B8ne190102Ev
FNA:6,30,_ZNSt3__116__non_trivial_ifILb1ENS_9allocatorINS_12basic_stringIcNS_11char_traitsIcEENS1_IcEEEEEEEC2B8ne190102Ev
FNA:6,0,_ZNSt3__116__non_trivial_ifILb1ENS_9allocatorINS_6vectorIN7testing8internal13edit_distance8EditTypeENS1_IS6_EEEEEEEC2B8ne190102Ev
FNA:6,0,_ZNSt3__116__non_trivial_ifILb1ENS_9allocatorINS_6vectorIdNS1_IdEEEEEEEC2B8ne190102Ev
FNA:6,1,_ZNSt3__116__non_trivial_ifILb1ENS_9allocatorIPN7testing11EnvironmentEEEEC2B8ne190102Ev
FNA:6,1,_ZNSt3__116__non_trivial_ifILb1ENS_9allocatorIPN7testing17TestEventListenerEEEEC2B8ne190102Ev
FNA:6,4,_ZNSt3__116__non_trivial_ifILb1ENS_9allocatorIPN7testing8TestInfoEEEEC2B8ne190102Ev
FNA:6,1,_ZNSt3__116__non_trivial_ifILb1ENS_9allocatorIPN7testing8internal30ParameterizedTestSuiteInfoBaseEEEEC2B8ne190102Ev
FNA:6,1,_ZNSt3__116__non_trivial_ifILb1ENS_9allocatorIPN7testing9TestSuiteEEEEC2B8ne190102Ev
FNA:6,11,_ZNSt3__116__non_trivial_ifILb1ENS_9allocatorIPNS_16__hash_node_baseIPNS_11__hash_nodeINS_12basic_stringIcNS_11char_traitsIcEENS1_IcEEEEPvEEEEEEEC2B8ne190102Ev
FNA:6,1,_ZNSt3__116__non_trivial_ifILb1ENS_9allocatorIPNS_16__hash_node_baseIPNS_11__hash_nodeINS_17__hash_value_typeINS_12basic_stringIcNS_11char_traitsIcEENS1_IcEEEEPN7testing9TestSuiteEEEPvEEEEEEEC2B8ne190102Ev
FNA:6,1,_ZNSt3__116__non_trivial_ifILb1ENS_9allocatorIPNS_16__hash_node_baseIPNS_11__hash_nodeINS_17__hash_value_typeINS_12basic_stringIcNS_11char_traitsIcEENS1_IcEEEEmEEPvEEEEEEEC2B8ne190102Ev
FNA:6,0,_ZNSt3__116__non_trivial_ifILb1ENS_9allocatorIPcEEEC2B8ne190102Ev
FNA:6,393,_ZNSt3__116__non_trivial_ifILb1ENS_9allocatorIcEEEC2B8ne190102Ev
FNA:6,0,_ZNSt3__116__non_trivial_ifILb1ENS_9allocatorIdEEEC2B8ne190102Ev
FNA:6,5,_ZNSt3__116__non_trivial_ifILb1ENS_9allocatorIiEEEC2B8ne190102Ev
FNA:6,0,_ZNSt3__116__non_trivial_ifILb1ENS_9allocatorImEEEC2B8ne190102Ev
FNA:6,0,_ZNSt3__116__non_trivial_ifILb1ENS_9allocatorIwEEEC2B8ne190102Ev
FNF:7
FNH:7
DA:85,498
DA:107,584
DA:112,56
DA:113,56
DA:114,0
DA:118,56
DA:128,39
DA:132,39
DA:134,39
DA:159,119
DA:160,119
DA:164,65
DA:165,65
DA:166,65
DA:168,27
LF:15
LH:14
end_of_record
TN:
SF:/Library/Developer/CommandLineTools/SDKs/MacOSX.sdk/usr/include/c++/v1/__memory/allocator_traits.h
FNL:0,279,280
FNA:0,0,_ZNSt3__116allocator_traitsINS_9allocatorINS_11__hash_nodeINS_12basic_stringIcNS_11char_traitsIcEENS1_IcEEEEPvEEEEE8allocateB8ne190102ERSA_m
FNA:0,4,_ZNSt3__116allocator_traitsINS_9allocatorINS_11__hash_nodeINS_17__hash_value_typeINS_12basic_stringIcNS_11char_traitsIcEENS1_IcEEEEPN7testing9TestSuiteEEEPvEEEEE8allocateB8ne190102ERSF_m
FNA:0,0,_ZNSt3__116allocator_traitsINS_9allocatorINS_11__list_nodeINS_4pairIcPKcEEPvEEEEE8allocateB8ne190102ERS9_m
FNA:0,0,_ZNSt3__116allocator_traitsINS_9allocatorINS_11__tree_nodeINS_12__value_typeINS_12basic_stringIcNS_11char_traitsIcEENS1_IcEEEEN7testing8internal34TypeParameterizedTestSuiteRegistry30TypeParameterizedTestSuiteInfoEEEPvEEEEE8allocateB8ne190102ERSG_m
FNA:0,0,_ZNSt3__116allocator_traitsINS_9allocatorINS_11__tree_nodeINS_12__value_typeINS_12basic_stringIcNS_11char_traitsIcEENS1_IcEEEEmEEPvEEEEE8allocateB8ne190102ERSC_m
FNA:0,0,_ZNSt3__116allocator_traitsINS_9allocatorINS_11__tree_nodeINS_12basic_stringIcNS_11char_traitsIcEENS1_IcEEEEPvEEEEE8allocateB8ne190102ERSA_m
FNA:0,0,_ZNSt3__116allocator_traitsINS_9allocatorIPNS_16__hash_node_baseIPNS_11__hash_nodeINS_12basic_stringIcNS_11char_traitsIcEENS1_IcEEEEPvEEEEEEE8allocateB8ne190102ERSE_m
FNA:0,2,_ZNSt3__116allocator_traitsINS_9allocatorIPNS_16__hash_node_baseIPNS_11__hash_nodeINS_17__hash_value_typeINS_12basic_stringIcNS_11char_traitsIcEENS1_IcEEEEPN7testing9TestSuiteEEEPvEEEEEEE8allocateB8ne190102ERSJ_m
FNA:0,0,_ZNSt3__116allocator_traitsINS_9allocatorIcEEE8allocateB8ne190102ERS2_m
FNL:1,311,313
FNA:1,0,_ZNSt3__116allocator_traitsINS_9allocatorIN7testing12TestPropertyEEEE10deallocateB8ne190102ERS4_PS3_m
FNA:1,0,_ZNSt3__116allocator_traitsINS_9allocatorIN7testing14TestPartResultEEEE10deallocateB8ne190102ERS4_PS3_m
FNA:1,0,_ZNSt3__116allocator_traitsINS_9allocatorIN7testing8internal13edit_distance8EditTypeEEEE10deallocateB8ne190102ERS6_PS5_m
FNA:1,0,_ZNSt3__116allocator_traitsINS_9allocatorIN7testing8internal9TraceInfoEEEE10deallocateB8ne190102ERS5_PS4_m
FNA:1,0,_ZNSt3__116allocator_traitsINS_9allocatorINS_11__hash_nodeINS_12basic_stringIcNS_11char_traitsIcEENS1_IcEEEEPvEEEEE10deallocateB8ne190102ERSA_PS9_m
FNA:1,0,_ZNSt3__116allocator_traitsINS_9allocatorINS_11__hash_nodeINS_17__hash_value_typeINS_12basic_stringIcNS_11char_traitsIcEENS1_IcEEEEPN7testing9TestSuiteEEEPvEEEEE10deallocateB8ne190102ERSF_PSE_m
FNA:1,0,_ZNSt3__116allocator_traitsINS_9allocatorINS_11__hash_nodeINS_17__hash_value_typeINS_12basic_stringIcNS_11char_traitsIcEENS1_IcEEEEmEEPvEEEEE10deallocateB8ne190102ERSC_PSB_m
FNA:1,0,_ZNSt3__116allocator_traitsINS_9allocatorINS_11__list_nodeINS_4pairIcPKcEEPvEEEEE10deallocateB8ne190102ERS9_PS8_m
FNA:1,0,_ZNSt3__116allocator_traitsINS_9allocatorINS_11__tree_nodeINS_12__value_typeINS_12basic_stringIcNS_11char_traitsIcEENS1_IcEEEEN7testing8internal34TypeParameterizedTestSuiteRegistry30TypeParameterizedTestSuiteInfoEEEPvEEEEE10deallocateB8ne190102ERSG_PSF_m
FNA:1,0,_ZNSt3__116allocator_traitsINS_9allocatorINS_11__tree_nodeINS_12__value_typeINS_12basic_stringIcNS_11char_traitsIcEENS1_IcEEEEmEEPvEEEEE10deallocateB8ne190102ERSC_PSB_m
FNA:1,0,_ZNSt3__116allocator_traitsINS_9allocatorINS_11__tree_nodeINS_12basic_stringIcNS_11char_traitsIcEENS1_IcEEEEPvEEEEE10deallocateB8ne190102ERSA_PS9_m
FNA:1,22,_ZNSt3__116allocator_traitsINS_9allocatorINS_12basic_stringIcNS_11char_traitsIcEENS1_IcEEEEEEE10deallocateB8ne190102ERS7_PS6_m
FNA:1,0,_ZNSt3__116allocator_traitsINS_9allocatorINS_6vectorIN7testing8internal13edit_distance8EditTypeENS1_IS6_EEEEEEE10deallocateB8ne190102ERS9_PS8_m
FNA:1,0,_ZNSt3__116allocator_traitsINS_9allocatorINS_6vectorIdNS1_IdEEEEEEE10deallocateB8ne190102ERS5_PS4_m
FNA:1,0,_ZNSt3__116allocator_traitsINS_9allocatorIPN7testing11EnvironmentEEEE10deallocateB8ne190102ERS5_PS4_m
FNA:1,0,_ZNSt3__116allocator_traitsINS_9allocatorIPN7testing17TestEventListenerEEEE10deallocateB8ne190102ERS5_PS4_m
FNA:1,6,_ZNSt3__116allocator_traitsINS_9allocatorIPN7testing8TestInfoEEEE10deallocateB8ne190102ERS5_PS4_m
FNA:1,0,_ZNSt3__116allocator_traitsINS_9allocatorIPN7testing8internal30ParameterizedTestSuiteInfoBaseEEEE10deallocateB8ne190102ERS6_PS5_m
FNA:1,2,_ZNSt3__116allocator_traitsINS_9allocatorIPN7testing9TestSuiteEEEE10deallocateB8ne190102ERS5_PS4_m
FNA:1,0,_ZNSt3__116allocator_traitsINS_9allocatorIPNS_16__hash_node_baseIPNS_11__hash_nodeINS_12basic_stringIcNS_11char_traitsIcEENS1_IcEEEEPvEEEEEEE10deallocateB8ne190102ERSE_PSD_m
FNA:1,1,_ZNSt3__116allocator_traitsINS_9allocatorIPNS_16__hash_node_baseIPNS_11__hash_nodeINS_17__hash_value_typeINS_12basic_stringIcNS_11char_traitsIcEENS1_IcEEEEPN7testing9TestSuiteEEEPvEEEEEEE10deallocateB8ne190102ERSJ_PSI_m
FNA:1,0,_ZNSt3__116allocator_traitsINS_9allocatorIPNS_16__hash_node_baseIPNS_11__hash_nodeINS_17__hash_value_typeINS_12basic_stringIcNS_11char_traitsIcEENS1_IcEEEEmEEPvEEEEEEE10deallocateB8ne190102ERSG_PSF_m
FNA:1,0,_ZNSt3__116allocator_traitsINS_9allocatorIPcEEE10deallocateB8ne190102ERS3_PS2_m
FNA:1,0,_ZNSt3__116allocator_traitsINS_9allocatorIcEEE10deallocateB8ne190102ERS2_Pcm
FNA:1,0,_ZNSt3__116allocator_traitsINS_9allocatorIdEEE10deallocateB8ne190102ERS2_Pdm
FNA:1,8,_ZNSt3__116allocator_traitsINS_9allocatorIiEEE10deallocateB8ne190102ERS2_Pim
FNA:1,0,_ZNSt3__116allocator_traitsINS_9allocatorImEEE10deallocateB8ne190102ERS2_Pmm
FNL:2,317,321
FNA:2,0,_ZNSt3__116allocator_traitsINS_9allocatorIN7testing12TestPropertyEEEE9constructB8ne190102IS3_JRKS3_ELi0EEEvRS4_PT_DpOT0_
FNA:2,0,_ZNSt3__116allocator_traitsINS_9allocatorIN7testing12TestPropertyEEEE9constructB8ne190102IS3_JS3_ELi0EEEvRS4_PT_DpOT0_
FNA:2,0,_ZNSt3__116allocator_traitsINS_9allocatorIN7testing14TestPartResultEEEE9constructB8ne190102IS3_JRKS3_ELi0EEEvRS4_PT_DpOT0_
FNA:2,0,_ZNSt3__116allocator_traitsINS_9allocatorIN7testing14TestPartResultEEEE9constructB8ne190102IS3_JS3_ELi0EEEvRS4_PT_DpOT0_
FNA:2,0,_ZNSt3__116allocator_traitsINS_9allocatorIN7testing8internal13edit_distance8EditTypeEEEE9constructB8ne190102IS5_JELi0EEEvRS6_PT_DpOT0_
FNA:2,0,_ZNSt3__116allocator_traitsINS_9allocatorIN7testing8internal13edit_distance8EditTypeEEEE9constructB8ne190102IS5_JRKS5_ELi0EEEvRS6_PT_DpOT0_
FNA:2,0,_ZNSt3__116allocator_traitsINS_9allocatorIN7testing8internal9TraceInfoEEEE9constructB8ne190102IS4_JRKS4_ELi0EEEvRS5_PT_DpOT0_
FNA:2,0,_ZNSt3__116allocator_traitsINS_9allocatorIN7testing8internal9TraceInfoEEEE9constructB8ne190102IS4_JS4_ELi0EEEvRS5_PT_DpOT0_
FNA:2,0,_ZNSt3__116allocator_traitsINS_9allocatorINS_11__hash_nodeINS_12basic_stringIcNS_11char_traitsIcEENS1_IcEEEEPvEEEEE9constructB8ne190102IS7_JS7_ELi0EEEvRSA_PT_DpOT0_
FNA:2,4,_ZNSt3__116allocator_traitsINS_9allocatorINS_11__hash_nodeINS_17__hash_value_typeINS_12basic_stringIcNS_11char_traitsIcEENS1_IcEEEEPN7testing9TestSuiteEEEPvEEEEE9constructB8ne190102INS_4pairIKS8_SB_EEJRSJ_RKSB_ELi0EEEvRSF_PT_DpOT0_
FNA:2,0,_ZNSt3__116allocator_traitsINS_9allocatorINS_11__list_nodeINS_4pairIcPKcEEPvEEEEE9constructB8ne190102IS6_JS6_ELi0EEEvRS9_PT_DpOT0_
FNA:2,0,_ZNSt3__116allocator_traitsINS_9allocatorINS_11__tree_nodeINS_12__value_typeINS_12basic_stringIcNS_11char_traitsIcEENS1_IcEEEEN7testing8internal34TypeParameterizedTestSuiteRegistry30TypeParameterizedTestSuiteInfoEEEPvEEEEE9constructB8ne190102INS_4pairIKS8_SC_EEJS8_SC_ELi0EEEvRSG_PT_DpOT0_
FNA:2,0,_ZNSt3__116allocator_traitsINS_9allocatorINS_11__tree_nodeINS_12__value_typeINS_12basic_stringIcNS_11char_traitsIcEENS1_IcEEEEmEEPvEEEEE9constructB8ne190102INS_4pairIKS8_mEEJRKNS_21piecewise_construct_tENS_5tupleIJRSG_EEENSL_IJEEEELi0EEEvRSC_PT_DpOT0_
FNA:2,0,_ZNSt3__116allocator_traitsINS_9allocatorINS_11__tree_nodeINS_12basic_stringIcNS_11char_traitsIcEENS1_IcEEEEPvEEEEE9constructB8ne190102IS7_JRKS7_ELi0EEEvRSA_PT_DpOT0_
FNA:2,0,_ZNSt3__116allocator_traitsINS_9allocatorINS_11__tree_nodeINS_12basic_stringIcNS_11char_traitsIcEENS1_IcEEEEPvEEEEE9constructB8ne190102IS7_JS7_ELi0EEEvRSA_PT_DpOT0_
FNA:2,0,_ZNSt3__116allocator_traitsINS_9allocatorINS_12basic_stringIcNS_11char_traitsIcEENS1_IcEEEEEEE9constructB8ne190102IS6_JRKPKcELi0EEEvRS7_PT_DpOT0_
FNA:2,0,_ZNSt3__116allocator_traitsINS_9allocatorINS_12basic_stringIcNS_11char_traitsIcEENS1_IcEEEEEEE9constructB8ne190102IS6_JRKS6_ELi0EEEvRS7_PT_DpOT0_
FNA:2,1,_ZNSt3__116allocator_traitsINS_9allocatorINS_12basic_stringIcNS_11char_traitsIcEENS1_IcEEEEEEE9constructB8ne190102IS6_JRS6_ELi0EEEvRS7_PT_DpOT0_
FNA:2,27,_ZNSt3__116allocator_traitsINS_9allocatorINS_12basic_stringIcNS_11char_traitsIcEENS1_IcEEEEEEE9constructB8ne190102IS6_JS6_ELi0EEEvRS7_PT_DpOT0_
FNA:2,0,_ZNSt3__116allocator_traitsINS_9allocatorINS_6vectorIN7testing8internal13edit_distance8EditTypeENS1_IS6_EEEEEEE9constructB8ne190102IS8_JRKS8_ELi0EEEvRS9_PT_DpOT0_
FNA:2,0,_ZNSt3__116allocator_traitsINS_9allocatorINS_6vectorIdNS1_IdEEEEEEE9constructB8ne190102IS4_JRKS4_ELi0EEEvRS5_PT_DpOT0_
FNA:2,0,_ZNSt3__116allocator_traitsINS_9allocatorIPN7testing11EnvironmentEEEE9constructB8ne190102IS4_JRKS4_ELi0EEEvRS5_PT_DpOT0_
FNA:2,1,_ZNSt3__116allocator_traitsINS_9allocatorIPN7testing17TestEventListenerEEEE9constructB8ne190102IS4_JRKS4_ELi0EEEvRS5_PT_DpOT0_
FNA:2,12,_ZNSt3__116allocator_traitsINS_9allocatorIPN7testing8TestInfoEEEE9constructB8ne190102IS4_JRKS4_ELi0EEEvRS5_PT_DpOT0_
FNA:2,4,_ZNSt3__116allocator_traitsINS_9allocatorIPN7testing9TestSuiteEEEE9constructB8ne190102IS4_JRKS4_ELi0EEEvRS5_PT_DpOT0_
FNA:2,0,_ZNSt3__116allocator_traitsINS_9allocatorIPN7testing9TestSuiteEEEE9constructB8ne190102IS4_JS4_ELi0EEEvRS5_PT_DpOT0_
FNA:2,0,_ZNSt3__116allocator_traitsINS_9allocatorIPcEEE9constructB8ne190102IS2_JS2_ELi0EEEvRS3_PT_DpOT0_
FNA:2,0,_ZNSt3__116allocator_traitsINS_9allocatorIdEEE9constructB8ne190102IdJELi0EEEvRS2_PT_DpOT0_
FNA:2,16,_ZNSt3__116allocator_traitsINS_9allocatorIiEEE9constructB8ne190102IiJiELi0EEEvRS2_PT_DpOT0_
FNA:2,0,_ZNSt3__116allocator_traitsINS_9allocatorImEEE9constructB8ne190102ImJmELi0EEEvRS2_PT_DpOT0_
FNL:3,332,336
FNA:3,0,_ZNSt3__116allocator_traitsINS_9allocatorIN7testing12TestPropertyEEEE7destroyB8ne190102IS3_Li0EEEvRS4_PT_
FNA:3,0,_ZNSt3__116allocator_traitsINS_9allocatorIN7testing14TestPartResultEEEE7destroyB8ne190102IS3_Li0EEEvRS4_PT_
FNA:3,0,_ZNSt3__116allocator_traitsINS_9allocatorIN7testing8internal13edit_distance8EditTypeEEEE7destroyB8ne190102IS5_Li0EEEvRS6_PT_
FNA:3,0,_ZNSt3__116allocator_traitsINS_9allocatorIN7testing8internal9TraceInfoEEEE7destroyB8ne190102IS4_Li0EEEvRS5_PT_
FNA:3,27,_ZNSt3__116allocator_traitsINS_9allocatorINS_12basic_stringIcNS_11char_traitsIcEENS1_IcEEEEEEE7destroyB8ne190102IS6_Li0EEEvRS7_PT_
FNA:3,0,_ZNSt3__116allocator_traitsINS_9allocatorINS_6vectorIN7testing8internal13edit_distance8EditTypeENS1_IS6_EEEEEEE7destroyB8ne190102IS8_Li0EEEvRS9_PT_
FNA:3,0,_ZNSt3__116allocator_traitsINS_9allocatorINS_6vectorIdNS1_IdEEEEEEE7destroyB8ne190102IS4_Li0EEEvRS5_PT_
FNA:3,0,_ZNSt3__116allocator_traitsINS_9allocatorIPN7testing11EnvironmentEEEE7destroyB8ne190102IS4_Li0EEEvRS5_PT_
FNA:3,0,_ZNSt3__116allocator_traitsINS_9allocatorIPN7testing17TestEventListenerEEEE7destroyB8ne190102IS4_Li0EEEvRS5_PT_
FNA:3,0,_ZNSt3__116allocator_traitsINS_9allocatorIPN7testing8TestInfoEEEE7destroyB8ne190102IS4_Li0EEEvRS5_PT_
FNA:3,0,_ZNSt3__116allocator_traitsINS_9allocatorIPN7testing8internal30ParameterizedTestSuiteInfoBaseEEEE7destroyB8ne190102IS5_Li0EEEvRS6_PT_
FNA:3,0,_ZNSt3__116allocator_traitsINS_9allocatorIPN7testing9TestSuiteEEEE7destroyB8ne190102IS4_Li0EEEvRS5_PT_
FNA:3,0,_ZNSt3__116allocator_traitsINS_9allocatorIPcEEE7destroyB8ne190102IS2_Li0EEEvRS3_PT_
FNA:3,0,_ZNSt3__116allocator_traitsINS_9allocatorIdEEE7destroyB8ne190102IdLi0EEEvRS2_PT_
FNA:3,0,_ZNSt3__116allocator_traitsINS_9allocatorIiEEE7destroyB8ne190102IiLi0EEEvRS2_PT_
FNA:3,0,_ZNSt3__116allocator_traitsINS_9allocatorImEEE7destroyB8ne190102ImLi0EEEvRS2_PT_
FNL:4,338,340
FNA:4,0,_ZNSt3__116allocator_traitsINS_9allocatorINS_11__hash_nodeINS_12basic_stringIcNS_11char_traitsIcEENS1_IcEEEEPvEEEEE7destroyB8ne190102IS7_vLi0EEEvRSA_PT_
FNA:4,0,_ZNSt3__116allocator_traitsINS_9allocatorINS_11__hash_nodeINS_17__hash_value_typeINS_12basic_stringIcNS_11char_traitsIcEENS1_IcEEEEPN7testing9TestSuiteEEEPvEEEEE7destroyB8ne190102INS_4pairIKS8_SB_EEvLi0EEEvRSF_PT_
FNA:4,0,_ZNSt3__116allocator_traitsINS_9allocatorINS_11__hash_nodeINS_17__hash_value_typeINS_12basic_stringIcNS_11char_traitsIcEENS1_IcEEEEmEEPvEEEEE7destroyB8ne190102INS_4pairIKS8_mEEvLi0EEEvRSC_PT_
FNA:4,0,_ZNSt3__116allocator_traitsINS_9allocatorINS_11__list_nodeINS_4pairIcPKcEEPvEEEEE7destroyB8ne190102IS6_vLi0EEEvRS9_PT_
FNA:4,0,_ZNSt3__116allocator_traitsINS_9allocatorINS_11__tree_nodeINS_12__value_typeINS_12basic_stringIcNS_11char_traitsIcEENS1_IcEEEEN7testing8internal34TypeParameterizedTestSuiteRegistry30TypeParameterizedTestSuiteInfoEEEPvEEEEE7destroyB8ne190102INS_4pairIKS8_SC_EEvLi0EEEvRSG_PT_
FNA:4,0,_ZNSt3__116allocator_traitsINS_9allocatorINS_11__tree_nodeINS_12__value_typeINS_12basic_stringIcNS_11char_traitsIcEENS1_IcEEEEmEEPvEEEEE7destroyB8ne190102INS_4pairIKS8_mEEvLi0EEEvRSC_PT_
FNA:4,0,_ZNSt3__116allocator_traitsINS_9allocatorINS_11__tree_nodeINS_12basic_stringIcNS_11char_traitsIcEENS1_IcEEEEPvEEEEE7destroyB8ne190102IS7_vLi0EEEvRSA_PT_
FNL:5,343,345
FNA:5,0,_ZNSt3__116allocator_traitsINS_9allocatorIN7testing12TestPropertyEEEE8max_sizeB8ne190102IS4_Li0EEEmRKS4_
FNA:5,0,_ZNSt3__116allocator_traitsINS_9allocatorIN7testing14TestPartResultEEEE8max_sizeB8ne190102IS4_Li0EEEmRKS4_
FNA:5,0,_ZNSt3__116allocator_traitsINS_9allocatorIN7testing8internal13edit_distance8EditTypeEEEE8max_sizeB8ne190102IS6_Li0EEEmRKS6_
FNA:5,0,_ZNSt3__116allocator_traitsINS_9allocatorIN7testing8internal9TraceInfoEEEE8max_sizeB8ne190102IS5_Li0EEEmRKS5_
FNA:5,0,_ZNSt3__116allocator_traitsINS_9allocatorINS_11__hash_nodeINS_12basic_stringIcNS_11char_traitsIcEENS1_IcEEEEPvEEEEE8max_sizeB8ne190102ISA_Li0EEEmRKSA_
FNA:5,4,_ZNSt3__116allocator_traitsINS_9allocatorINS_11__hash_nodeINS_17__hash_value_typeINS_12basic_stringIcNS_11char_traitsIcEENS1_IcEEEEPN7testing9TestSuiteEEEPvEEEEE8max_sizeB8ne190102ISF_Li0EEEmRKSF_
FNA:5,0,_ZNSt3__116allocator_traitsINS_9allocatorINS_11__list_nodeINS_4pairIcPKcEEPvEEEEE8max_sizeB8ne190102IS9_Li0EEEmRKS9_
FNA:5,0,_ZNSt3__116allocator_traitsINS_9allocatorINS_11__tree_nodeINS_12__value_typeINS_12basic_stringIcNS_11char_traitsIcEENS1_IcEEEEN7testing8internal34TypeParameterizedTestSuiteRegistry30TypeParameterizedTestSuiteInfoEEEPvEEEEE8max_sizeB8ne190102ISG_Li0EEEmRKSG_
FNA:5,0,_ZNSt3__116allocator_traitsINS_9allocatorINS_11__tree_nodeINS_12__value_typeINS_12basic_stringIcNS_11char_traitsIcEENS1_IcEEEEmEEPvEEEEE8max_sizeB8ne190102ISC_Li0EEEmRKSC_
FNA:5,0,_ZNSt3__116allocator_traitsINS_9allocatorINS_11__tree_nodeINS_12basic_stringIcNS_11char_traitsIcEENS1_IcEEEEPvEEEEE8max_sizeB8ne190102ISA_Li0EEEmRKSA_
FNA:5,46,_ZNSt3__116allocator_traitsINS_9allocatorINS_12basic_stringIcNS_11char_traitsIcEENS1_IcEEEEEEE8max_sizeB8ne190102IS7_Li0EEEmRKS7_
FNA:5,0,_ZNSt3__116allocator_traitsINS_9allocatorINS_6vectorIN7testing8internal13edit_distance8EditTypeENS1_IS6_EEEEEEE8max_sizeB8ne190102IS9_Li0EEEmRKS9_
FNA:5,0,_ZNSt3__116allocator_traitsINS_9allocatorINS_6vectorIdNS1_IdEEEEEEE8max_sizeB8ne190102IS5_Li0EEEmRKS5_
FNA:5,0,_ZNSt3__116allocator_traitsINS_9allocatorIPN7testing11EnvironmentEEEE8max_sizeB8ne190102IS5_Li0EEEmRKS5_
FNA:5,2,_ZNSt3__116allocator_traitsINS_9allocatorIPN7testing17TestEventListenerEEEE8max_sizeB8ne190102IS5_Li0EEEmRKS5_
FNA:5,20,_ZNSt3__116allocator_traitsINS_9allocatorIPN7testing8TestInfoEEEE8max_sizeB8ne190102IS5_Li0EEEmRKS5_
FNA:5,6,_ZNSt3__116allocator_traitsINS_9allocatorIPN7testing9TestSuiteEEEE8max_sizeB8ne190102IS5_Li0EEEmRKS5_
FNA:5,0,_ZNSt3__116allocator_traitsINS_9allocatorIPNS_16__hash_node_baseIPNS_11__hash_nodeINS_12basic_stringIcNS_11char_traitsIcEENS1_IcEEEEPvEEEEEEE8max_sizeB8ne190102ISE_Li0EEEmRKSE_
FNA:5,2,_ZNSt3__116allocator_traitsINS_9allocatorIPNS_16__hash_node_baseIPNS_11__hash_nodeINS_17__hash_value_typeINS_12basic_stringIcNS_11char_traitsIcEENS1_IcEEEEPN7testing9TestSuiteEEEPvEEEEEEE8max_sizeB8ne190102ISJ_Li0EEEmRKSJ_
FNA:5,0,_ZNSt3__116allocator_traitsINS_9allocatorIPcEEE8max_sizeB8ne190102IS3_Li0EEEmRKS3_
FNA:5,13,_ZNSt3__116allocator_traitsINS_9allocatorIcEEE8max_sizeB8ne190102IS2_Li0EEEmRKS2_
FNA:5,0,_ZNSt3__116allocator_traitsINS_9allocatorIdEEE8max_sizeB8ne190102IS2_Li0EEEmRKS2_
FNA:5,26,_ZNSt3__116allocator_traitsINS_9allocatorIiEEE8max_sizeB8ne190102IS2_Li0EEEmRKS2_
FNA:5,0,_ZNSt3__116allocator_traitsINS_9allocatorImEEE8max_sizeB8ne190102IS2_Li0EEEmRKS2_
FNL:6,362,363
FNA:6,0,_ZNSt3__116allocator_traitsINS_9allocatorIN7testing8internal13edit_distance8EditTypeEEEE37select_on_container_copy_constructionB8ne190102IS6_vLi0EEES6_RKS6_
FNA:6,2,_ZNSt3__116allocator_traitsINS_9allocatorINS_12basic_stringIcNS_11char_traitsIcEENS1_IcEEEEEEE37select_on_container_copy_constructionB8ne190102IS7_vLi0EEES7_RKS7_
FNA:6,13,_ZNSt3__116allocator_traitsINS_9allocatorIcEEE37select_on_container_copy_constructionB8ne190102IS2_vLi0EEES2_RKS2_
FNA:6,0,_ZNSt3__116allocator_traitsINS_9allocatorIdEEE37select_on_container_copy_constructionB8ne190102IS2_vLi0EEES2_RKS2_
FNF:7
FNH:6
DA:279,6
DA:280,6
DA:311,39
DA:312,39
DA:313,39
DA:317,65
DA:319,65
DA:321,65
DA:332,27
DA:334,27
DA:336,27
DA:338,0
DA:339,0
DA:340,0
DA:343,119
DA:345,119
DA:362,15
DA:363,15
LF:18
LH:15
end_of_record
TN:
SF:/Library/Developer/CommandLineTools/SDKs/MacOSX.sdk/usr/include/c++/v1/__memory/compressed_pair.h
FNL:0,114,115
FNA:0,1,_ZNSt3__117__compressed_pairINS_15__tree_end_nodeIPNS_16__tree_node_baseIPvEEEENS_9allocatorINS_11__tree_nodeINS_12__value_typeINS_12basic_stringIcNS_11char_traitsIcEENS7_IcEEEEN7testing8internal34TypeParameterizedTestSuiteRegistry30TypeParameterizedTestSuiteInfoEEES3_EEEEEC1B8ne190102ILb1ELi0EEEv
FNA:0,1,_ZNSt3__117__compressed_pairINS_15__tree_end_nodeIPNS_16__tree_node_baseIPvEEEENS_9allocatorINS_11__tree_nodeINS_12__value_typeINS_12basic_stringIcNS_11char_traitsIcEENS7_IcEEEEN7testing8internal34TypeParameterizedTestSuiteRegistry30TypeParameterizedTestSuiteInfoEEES3_EEEEEC2B8ne190102ILb1ELi0EEEv
FNA:0,0,_ZNSt3__117__compressed_pairINS_15__tree_end_nodeIPNS_16__tree_node_baseIPvEEEENS_9allocatorINS_11__tree_nodeINS_12__value_typeINS_12basic_stringIcNS_11char_traitsIcEENS7_IcEEEEmEES3_EEEEEC1B8ne190102ILb1ELi0EEEv
FNA:0,0,_ZNSt3__117__compressed_pairINS_15__tree_end_nodeIPNS_16__tree_node_baseIPvEEEENS_9allocatorINS_11__tree_nodeINS_12__value_typeINS_12basic_stringIcNS_11char_traitsIcEENS7_IcEEEEmEES3_EEEEEC2B8ne190102ILb1ELi0EEEv
FNA:0,1,_ZNSt3__117__compressed_pairINS_15__tree_end_nodeIPNS_16__tree_node_baseIPvEEEENS_9allocatorINS_11__tree_nodeINS_12basic_stringIcNS_11char_traitsIcEENS7_IcEEEES3_EEEEEC1B8ne190102ILb1ELi0EEEv
FNA:0,1,_ZNSt3__117__compressed_pairINS_15__tree_end_nodeIPNS_16__tree_node_baseIPvEEEENS_9allocatorINS_11__tree_nodeINS_12basic_stringIcNS_11char_traitsIcEENS7_IcEEEES3_EEEEEC2B8ne190102ILb1ELi0EEEv
FNA:0,11,_ZNSt3__117__compressed_pairINS_16__hash_node_baseIPNS_11__hash_nodeINS_12basic_stringIcNS_11char_traitsIcEENS_9allocatorIcEEEEPvEEEENS6_ISA_EEEC1B8ne190102ILb1ELi0EEEv
FNA:0,11,_ZNSt3__117__compressed_pairINS_16__hash_node_baseIPNS_11__hash_nodeINS_12basic_stringIcNS_11char_traitsIcEENS_9allocatorIcEEEEPvEEEENS6_ISA_EEEC2B8ne190102ILb1ELi0EEEv
FNA:0,1,_ZNSt3__117__compressed_pairINS_16__hash_node_baseIPNS_11__hash_nodeINS_17__hash_value_typeINS_12basic_stringIcNS_11char_traitsIcEENS_9allocatorIcEEEEPN7testing9TestSuiteEEEPvEEEENS7_ISF_EEEC1B8ne190102ILb1ELi0EEEv
FNA:0,1,_ZNSt3__117__compressed_pairINS_16__hash_node_baseIPNS_11__hash_nodeINS_17__hash_value_typeINS_12basic_stringIcNS_11char_traitsIcEENS_9allocatorIcEEEEPN7testing9TestSuiteEEEPvEEEENS7_ISF_EEEC2B8ne190102ILb1ELi0EEEv
FNA:0,1,_ZNSt3__117__compressed_pairINS_16__hash_node_baseIPNS_11__hash_nodeINS_17__hash_value_typeINS_12basic_stringIcNS_11char_traitsIcEENS_9allocatorIcEEEEmEEPvEEEENS7_ISC_EEEC1B8ne190102ILb1ELi0EEEv
FNA:0,1,_ZNSt3__117__compressed_pairINS_16__hash_node_baseIPNS_11__hash_nodeINS_17__hash_value_typeINS_12basic_stringIcNS_11char_traitsIcEENS_9allocatorIcEEEEmEEPvEEEENS7_ISC_EEEC2B8ne190102ILb1ELi0EEEv
FNL:1,118,119
FNA:1,228,_ZNSt3__117__compressed_pairINS_12basic_stringIcNS_11char_traitsIcEENS_9allocatorIcEEE5__repES5_EC1B8ne190102INS_16__value_init_tagENS_18__default_init_tagEEEOT_OT0_
FNA:1,13,_ZNSt3__117__compressed_pairINS_12basic_stringIcNS_11char_traitsIcEENS_9allocatorIcEEE5__repES5_EC1B8ne190102INS_18__default_init_tagERKS5_EEOT_OT0_
FNA:1,79,_ZNSt3__117__compressed_pairINS_12basic_stringIcNS_11char_traitsIcEENS_9allocatorIcEEE5__repES5_EC1B8ne190102INS_18__default_init_tagESA_EEOT_OT0_
FNA:1,228,_ZNSt3__117__compressed_pairINS_12basic_stringIcNS_11char_traitsIcEENS_9allocatorIcEEE5__repES5_EC2B8ne190102INS_16__value_init_tagENS_18__default_init_tagEEEOT_OT0_
FNA:1,13,_ZNSt3__117__compressed_pairINS_12basic_stringIcNS_11char_traitsIcEENS_9allocatorIcEEE5__repES5_EC2B8ne190102INS_18__default_init_tagERKS5_EEOT_OT0_
FNA:1,79,_ZNSt3__117__compressed_pairINS_12basic_stringIcNS_11char_traitsIcEENS_9allocatorIcEEE5__repES5_EC2B8ne190102INS_18__default_init_tagESA_EEOT_OT0_
FNA:1,0,_ZNSt3__117__compressed_pairINS_12basic_stringIwNS_11char_traitsIwEENS_9allocatorIwEEE5__repES5_EC1B8ne190102INS_18__default_init_tagESA_EEOT_OT0_
FNA:1,0,_ZNSt3__117__compressed_pairINS_12basic_stringIwNS_11char_traitsIwEENS_9allocatorIwEEE5__repES5_EC2B8ne190102INS_18__default_init_tagESA_EEOT_OT0_
FNA:1,28,_ZNSt3__117__compressed_pairIPKNS_12basic_stringIcNS_11char_traitsIcEENS_9allocatorIcEEEENS_14default_deleteIS7_EEEC1B8ne190102IRS8_NS_16__value_init_tagEEEOT_OT0_
FNA:1,28,_ZNSt3__117__compressed_pairIPKNS_12basic_stringIcNS_11char_traitsIcEENS_9allocatorIcEEEENS_14default_deleteIS7_EEEC2B8ne190102IRS8_NS_16__value_init_tagEEEOT_OT0_
FNA:1,17,_ZNSt3__117__compressed_pairIPN7testing12TestPropertyENS_9allocatorIS2_EEEC1B8ne190102IDnNS_18__default_init_tagEEEOT_OT0_
FNA:1,17,_ZNSt3__117__compressed_pairIPN7testing12TestPropertyENS_9allocatorIS2_EEEC2B8ne190102IDnNS_18__default_init_tagEEEOT_OT0_
FNA:1,0,_ZNSt3__117__compressed_pairIPN7testing12TestPropertyERNS_9allocatorIS2_EEEC1B8ne190102IDnS6_EEOT_OT0_
FNA:1,0,_ZNSt3__117__compressed_pairIPN7testing12TestPropertyERNS_9allocatorIS2_EEEC2B8ne190102IDnS6_EEOT_OT0_
FNA:1,17,_ZNSt3__117__compressed_pairIPN7testing14TestPartResultENS_9allocatorIS2_EEEC1B8ne190102IDnNS_18__default_init_tagEEEOT_OT0_
FNA:1,17,_ZNSt3__117__compressed_pairIPN7testing14TestPartResultENS_9allocatorIS2_EEEC2B8ne190102IDnNS_18__default_init_tagEEEOT_OT0_
FNA:1,0,_ZNSt3__117__compressed_pairIPN7testing14TestPartResultERNS_9allocatorIS2_EEEC1B8ne190102IDnS6_EEOT_OT0_
FNA:1,0,_ZNSt3__117__compressed_pairIPN7testing14TestPartResultERNS_9allocatorIS2_EEEC2B8ne190102IDnS6_EEOT_OT0_
FNA:1,1,_ZNSt3__117__compressed_pairIPN7testing8internal11ThreadLocalINS_6vectorINS2_9TraceInfoENS_9allocatorIS5_EEEEE18ValueHolderFactoryENS_14default_deleteISA_EEEC1B8ne190102IRSB_NS_16__value_init_tagEEEOT_OT0_
FNA:1,1,_ZNSt3__117__compressed_pairIPN7testing8internal11ThreadLocalINS_6vectorINS2_9TraceInfoENS_9allocatorIS5_EEEEE18ValueHolderFactoryENS_14default_deleteISA_EEEC2B8ne190102IRSB_NS_16__value_init_tagEEEOT_OT0_
FNA:1,1,_ZNSt3__117__compressed_pairIPN7testing8internal11ThreadLocalIPNS1_31TestPartResultReporterInterfaceEE18ValueHolderFactoryENS_14default_deleteIS7_EEEC1B8ne190102IRS8_NS_16__value_init_tagEEEOT_OT0_
FNA:1,1,_ZNSt3__117__compressed_pairIPN7testing8internal11ThreadLocalIPNS1_31TestPartResultReporterInterfaceEE18ValueHolderFactoryENS_14default_deleteIS7_EEEC2B8ne190102IRS8_NS_16__value_init_tagEEEOT_OT0_
FNA:1,0,_ZNSt3__117__compressed_pairIPN7testing8internal13edit_distance8EditTypeENS_9allocatorIS4_EEEC1B8ne190102IDnNS_18__default_init_tagEEEOT_OT0_
FNA:1,0,_ZNSt3__117__compressed_pairIPN7testing8internal13edit_distance8EditTypeENS_9allocatorIS4_EEEC1B8ne190102IDnS7_EEOT_OT0_
FNA:1,0,_ZNSt3__117__compressed_pairIPN7testing8internal13edit_distance8EditTypeENS_9allocatorIS4_EEEC2B8ne190102IDnNS_18__default_init_tagEEEOT_OT0_
FNA:1,0,_ZNSt3__117__compressed_pairIPN7testing8internal13edit_distance8EditTypeENS_9allocatorIS4_EEEC2B8ne190102IDnS7_EEOT_OT0_
FNA:1,0,_ZNSt3__117__compressed_pairIPN7testing8internal13edit_distance8EditTypeERNS_9allocatorIS4_EEEC1B8ne190102IDnS8_EEOT_OT0_
FNA:1,0,_ZNSt3__117__compressed_pairIPN7testing8internal13edit_distance8EditTypeERNS_9allocatorIS4_EEEC2B8ne190102IDnS8_EEOT_OT0_
FNA:1,12,_ZNSt3__117__compressed_pairIPN7testing8internal14GTestFlagSaverENS_14default_deleteIS3_EEEC1B8ne190102IRS4_NS_16__value_init_tagEEEOT_OT0_
FNA:1,12,_ZNSt3__117__compressed_pairIPN7testing8internal14GTestFlagSaverENS_14default_deleteIS3_EEEC2B8ne190102IRS4_NS_16__value_init_tagEEEOT_OT0_
FNA:1,1,_ZNSt3__117__compressed_pairIPN7testing8internal16DeathTestFactoryENS_14default_deleteIS3_EEEC1B8ne190102IRS4_NS_16__value_init_tagEEEOT_OT0_
FNA:1,1,_ZNSt3__117__compressed_pairIPN7testing8internal16DeathTestFactoryENS_14default_deleteIS3_EEEC2B8ne190102IRS4_NS_16__value_init_tagEEEOT_OT0_
FNA:1,0,_ZNSt3__117__compressed_pairIPN7testing8internal17StreamingListener20AbstractSocketWriterENS_14default_deleteIS4_EEEC1B8ne190102IRS5_NS_16__value_init_tagEEEOT_OT0_
FNA:1,0,_ZNSt3__117__compressed_pairIPN7testing8internal17StreamingListener20AbstractSocketWriterENS_14default_deleteIS4_EEEC2B8ne190102IRS5_NS_16__value_init_tagEEEOT_OT0_
FNA:1,1,_ZNSt3__117__compressed_pairIPN7testing8internal24InternalRunDeathTestFlagENS_14default_deleteIS3_EEEC1B8ne190102INS_16__value_init_tagES9_EEOT_OT0_
FNA:1,1,_ZNSt3__117__compressed_pairIPN7testing8internal24InternalRunDeathTestFlagENS_14default_deleteIS3_EEEC2B8ne190102INS_16__value_init_tagES9_EEOT_OT0_
FNA:1,0,_ZNSt3__117__compressed_pairIPN7testing8internal9TraceInfoENS_9allocatorIS3_EEEC1B8ne190102IDnNS_18__default_init_tagEEEOT_OT0_
FNA:1,0,_ZNSt3__117__compressed_pairIPN7testing8internal9TraceInfoENS_9allocatorIS3_EEEC2B8ne190102IDnNS_18__default_init_tagEEEOT_OT0_
FNA:1,0,_ZNSt3__117__compressed_pairIPN7testing8internal9TraceInfoERNS_9allocatorIS3_EEEC1B8ne190102IDnS7_EEOT_OT0_
FNA:1,0,_ZNSt3__117__compressed_pairIPN7testing8internal9TraceInfoERNS_9allocatorIS3_EEEC2B8ne190102IDnS7_EEOT_OT0_
FNA:1,0,_ZNSt3__117__compressed_pairIPNS_11__hash_nodeINS_12basic_stringIcNS_11char_traitsIcEENS_9allocatorIcEEEEPvEENS_22__hash_node_destructorINS5_IS9_EEEEEC1B8ne190102IRSA_SD_EEOT_OT0_
FNA:1,0,_ZNSt3__117__compressed_pairIPNS_11__hash_nodeINS_12basic_stringIcNS_11char_traitsIcEENS_9allocatorIcEEEEPvEENS_22__hash_node_destructorINS5_IS9_EEEEEC2B8ne190102IRSA_SD_EEOT_OT0_
FNA:1,4,_ZNSt3__117__compressed_pairIPNS_11__hash_nodeINS_17__hash_value_typeINS_12basic_stringIcNS_11char_traitsIcEENS_9allocatorIcEEEEPN7testing9TestSuiteEEEPvEENS_22__hash_node_destructorINS6_ISE_EEEEEC1B8ne190102IRSF_SI_EEOT_OT0_
FNA:1,4,_ZNSt3__117__compressed_pairIPNS_11__hash_nodeINS_17__hash_value_typeINS_12basic_stringIcNS_11char_traitsIcEENS_9allocatorIcEEEEPN7testing9TestSuiteEEEPvEENS_22__hash_node_destructorINS6_ISE_EEEEEC2B8ne190102IRSF_SI_EEOT_OT0_
FNA:1,0,_ZNSt3__117__compressed_pairIPNS_11__tree_nodeINS_12__value_typeINS_12basic_stringIcNS_11char_traitsIcEENS_9allocatorIcEEEEN7testing8internal34TypeParameterizedTestSuiteRegistry30TypeParameterizedTestSuiteInfoEEEPvEENS_22__tree_node_destructorINS6_ISF_EEEEEC1B8ne190102IRSG_SJ_EEOT_OT0_
FNA:1,0,_ZNSt3__117__compressed_pairIPNS_11__tree_nodeINS_12__value_typeINS_12basic_stringIcNS_11char_traitsIcEENS_9allocatorIcEEEEN7testing8internal34TypeParameterizedTestSuiteRegistry30TypeParameterizedTestSuiteInfoEEEPvEENS_22__tree_node_destructorINS6_ISF_EEEEEC2B8ne190102IRSG_SJ_EEOT_OT0_
FNA:1,0,_ZNSt3__117__compressed_pairIPNS_11__tree_nodeINS_12__value_typeINS_12basic_stringIcNS_11char_traitsIcEENS_9allocatorIcEEEEmEEPvEENS_22__tree_node_destructorINS6_ISB_EEEEEC1B8ne190102IRSC_SF_EEOT_OT0_
FNA:1,0,_ZNSt3__117__compressed_pairIPNS_11__tree_nodeINS_12__value_typeINS_12basic_stringIcNS_11char_traitsIcEENS_9allocatorIcEEEEmEEPvEENS_22__tree_node_destructorINS6_ISB_EEEEEC2B8ne190102IRSC_SF_EEOT_OT0_
FNA:1,0,_ZNSt3__117__compressed_pairIPNS_11__tree_nodeINS_12basic_stringIcNS_11char_traitsIcEENS_9allocatorIcEEEEPvEENS_22__tree_node_destructorINS5_IS9_EEEEEC1B8ne190102IRSA_SD_EEOT_OT0_
FNA:1,0,_ZNSt3__117__compressed_pairIPNS_11__tree_nodeINS_12basic_stringIcNS_11char_traitsIcEENS_9allocatorIcEEEEPvEENS_22__tree_node_destructorINS5_IS9_EEEEEC2B8ne190102IRSA_SD_EEOT_OT0_
FNA:1,30,_ZNSt3__117__compressed_pairIPNS_12basic_stringIcNS_11char_traitsIcEENS_9allocatorIcEEEENS4_IS6_EEEC1B8ne190102IDnNS_18__default_init_tagEEEOT_OT0_
FNA:1,2,_ZNSt3__117__compressed_pairIPNS_12basic_stringIcNS_11char_traitsIcEENS_9allocatorIcEEEENS4_IS6_EEEC1B8ne190102IDnS8_EEOT_OT0_
FNA:1,30,_ZNSt3__117__compressed_pairIPNS_12basic_stringIcNS_11char_traitsIcEENS_9allocatorIcEEEENS4_IS6_EEEC2B8ne190102IDnNS_18__default_init_tagEEEOT_OT0_
FNA:1,2,_ZNSt3__117__compressed_pairIPNS_12basic_stringIcNS_11char_traitsIcEENS_9allocatorIcEEEENS4_IS6_EEEC2B8ne190102IDnS8_EEOT_OT0_
FNA:1,12,_ZNSt3__117__compressed_pairIPNS_12basic_stringIcNS_11char_traitsIcEENS_9allocatorIcEEEENS_14default_deleteIS6_EEEC1B8ne190102INS_16__value_init_tagESC_EEOT_OT0_
FNA:1,0,_ZNSt3__117__compressed_pairIPNS_12basic_stringIcNS_11char_traitsIcEENS_9allocatorIcEEEENS_14default_deleteIS6_EEEC1B8ne190102IRS7_NS_16__value_init_tagEEEOT_OT0_
FNA:1,12,_ZNSt3__117__compressed_pairIPNS_12basic_stringIcNS_11char_traitsIcEENS_9allocatorIcEEEENS_14default_deleteIS6_EEEC2B8ne190102INS_16__value_init_tagESC_EEOT_OT0_
FNA:1,0,_ZNSt3__117__compressed_pairIPNS_12basic_stringIcNS_11char_traitsIcEENS_9allocatorIcEEEENS_14default_deleteIS6_EEEC2B8ne190102IRS7_NS_16__value_init_tagEEEOT_OT0_
FNA:1,22,_ZNSt3__117__compressed_pairIPNS_12basic_stringIcNS_11char_traitsIcEENS_9allocatorIcEEEERNS4_IS6_EEEC1B8ne190102IDnS9_EEOT_OT0_
FNA:1,22,_ZNSt3__117__compressed_pairIPNS_12basic_stringIcNS_11char_traitsIcEENS_9allocatorIcEEEERNS4_IS6_EEEC2B8ne190102IDnS9_EEOT_OT0_
FNA:1,77,_ZNSt3__117__compressed_pairIPNS_18basic_stringstreamIcNS_11char_traitsIcEENS_9allocatorIcEEEENS_14default_deleteIS6_EEEC1B8ne190102IRS7_NS_16__value_init_tagEEEOT_OT0_
FNA:1,77,_ZNSt3__117__compressed_pairIPNS_18basic_stringstreamIcNS_11char_traitsIcEENS_9allocatorIcEEEENS_14default_deleteIS6_EEEC2B8ne190102IRS7_NS_16__value_init_tagEEEOT_OT0_
FNA:1,0,_ZNSt3__117__compressed_pairIPNS_6vectorIN7testing8internal13edit_distance8EditTypeENS_9allocatorIS5_EEEENS6_IS8_EEEC1B8ne190102IDnNS_18__default_init_tagEEEOT_OT0_
FNA:1,0,_ZNSt3__117__compressed_pairIPNS_6vectorIN7testing8internal13edit_distance8EditTypeENS_9allocatorIS5_EEEENS6_IS8_EEEC2B8ne190102IDnNS_18__default_init_tagEEEOT_OT0_
FNA:1,0,_ZNSt3__117__compressed_pairIPNS_6vectorIdNS_9allocatorIdEEEENS2_IS4_EEEC1B8ne190102IDnNS_18__default_init_tagEEEOT_OT0_
FNA:1,0,_ZNSt3__117__compressed_pairIPNS_6vectorIdNS_9allocatorIdEEEENS2_IS4_EEEC2B8ne190102IDnNS_18__default_init_tagEEEOT_OT0_
FNA:1,1,_ZNSt3__117__compressed_pairIPPN7testing11EnvironmentENS_9allocatorIS3_EEEC1B8ne190102IDnNS_18__default_init_tagEEEOT_OT0_
FNA:1,1,_ZNSt3__117__compressed_pairIPPN7testing11EnvironmentENS_9allocatorIS3_EEEC2B8ne190102IDnNS_18__default_init_tagEEEOT_OT0_
FNA:1,0,_ZNSt3__117__compressed_pairIPPN7testing11EnvironmentERNS_9allocatorIS3_EEEC1B8ne190102IDnS7_EEOT_OT0_
FNA:1,0,_ZNSt3__117__compressed_pairIPPN7testing11EnvironmentERNS_9allocatorIS3_EEEC2B8ne190102IDnS7_EEOT_OT0_
FNA:1,1,_ZNSt3__117__compressed_pairIPPN7testing17TestEventListenerENS_9allocatorIS3_EEEC1B8ne190102IDnNS_18__default_init_tagEEEOT_OT0_
FNA:1,1,_ZNSt3__117__compressed_pairIPPN7testing17TestEventListenerENS_9allocatorIS3_EEEC2B8ne190102IDnNS_18__default_init_tagEEEOT_OT0_
FNA:1,1,_ZNSt3__117__compressed_pairIPPN7testing17TestEventListenerERNS_9allocatorIS3_EEEC1B8ne190102IDnS7_EEOT_OT0_
FNA:1,1,_ZNSt3__117__compressed_pairIPPN7testing17TestEventListenerERNS_9allocatorIS3_EEEC2B8ne190102IDnS7_EEOT_OT0_
FNA:1,4,_ZNSt3__117__compressed_pairIPPN7testing8TestInfoENS_25__return_temporary_bufferEEC1B8ne190102INS_16__value_init_tagES8_EEOT_OT0_
FNA:1,4,_ZNSt3__117__compressed_pairIPPN7testing8TestInfoENS_25__return_temporary_bufferEEC2B8ne190102INS_16__value_init_tagES8_EEOT_OT0_
FNA:1,4,_ZNSt3__117__compressed_pairIPPN7testing8TestInfoENS_9allocatorIS3_EEEC1B8ne190102IDnNS_18__default_init_tagEEEOT_OT0_
FNA:1,4,_ZNSt3__117__compressed_pairIPPN7testing8TestInfoENS_9allocatorIS3_EEEC2B8ne190102IDnNS_18__default_init_tagEEEOT_OT0_
FNA:1,0,_ZNSt3__117__compressed_pairIPPN7testing8TestInfoERNS_12__destruct_nEEC1B8ne190102IRS4_S6_EEOT_OT0_
FNA:1,0,_ZNSt3__117__compressed_pairIPPN7testing8TestInfoERNS_12__destruct_nEEC2B8ne190102IRS4_S6_EEOT_OT0_
FNA:1,10,_ZNSt3__117__compressed_pairIPPN7testing8TestInfoERNS_9allocatorIS3_EEEC1B8ne190102IDnS7_EEOT_OT0_
FNA:1,10,_ZNSt3__117__compressed_pairIPPN7testing8TestInfoERNS_9allocatorIS3_EEEC2B8ne190102IDnS7_EEOT_OT0_
FNA:1,1,_ZNSt3__117__compressed_pairIPPN7testing8internal30ParameterizedTestSuiteInfoBaseENS_9allocatorIS4_EEEC1B8ne190102IDnNS_18__default_init_tagEEEOT_OT0_
FNA:1,1,_ZNSt3__117__compressed_pairIPPN7testing8internal30ParameterizedTestSuiteInfoBaseENS_9allocatorIS4_EEEC2B8ne190102IDnNS_18__default_init_tagEEEOT_OT0_
FNA:1,1,_ZNSt3__117__compressed_pairIPPN7testing9TestSuiteENS_9allocatorIS3_EEEC1B8ne190102IDnNS_18__default_init_tagEEEOT_OT0_
FNA:1,1,_ZNSt3__117__compressed_pairIPPN7testing9TestSuiteENS_9allocatorIS3_EEEC2B8ne190102IDnNS_18__default_init_tagEEEOT_OT0_
FNA:1,3,_ZNSt3__117__compressed_pairIPPN7testing9TestSuiteERNS_9allocatorIS3_EEEC1B8ne190102IDnS7_EEOT_OT0_
FNA:1,3,_ZNSt3__117__compressed_pairIPPN7testing9TestSuiteERNS_9allocatorIS3_EEEC2B8ne190102IDnS7_EEOT_OT0_
FNA:1,11,_ZNSt3__117__compressed_pairIPPNS_16__hash_node_baseIPNS_11__hash_nodeINS_12basic_stringIcNS_11char_traitsIcEENS_9allocatorIcEEEEPvEEEENS_25__bucket_list_deallocatorINS6_ISD_EEEEEC1B8ne190102INS_16__value_init_tagESK_EEOT_OT0_
FNA:1,11,_ZNSt3__117__compressed_pairIPPNS_16__hash_node_baseIPNS_11__hash_nodeINS_12basic_stringIcNS_11char_traitsIcEENS_9allocatorIcEEEEPvEEEENS_25__bucket_list_deallocatorINS6_ISD_EEEEEC2B8ne190102INS_16__value_init_tagESK_EEOT_OT0_
FNA:1,1,_ZNSt3__117__compressed_pairIPPNS_16__hash_node_baseIPNS_11__hash_nodeINS_17__hash_value_typeINS_12basic_stringIcNS_11char_traitsIcEENS_9allocatorIcEEEEPN7testing9TestSuiteEEEPvEEEENS_25__bucket_list_deallocatorINS7_ISI_EEEEEC1B8ne190102INS_16__value_init_tagESP_EEOT_OT0_
FNA:1,1,_ZNSt3__117__compressed_pairIPPNS_16__hash_node_baseIPNS_11__hash_nodeINS_17__hash_value_typeINS_12basic_stringIcNS_11char_traitsIcEENS_9allocatorIcEEEEPN7testing9TestSuiteEEEPvEEEENS_25__bucket_list_deallocatorINS7_ISI_EEEEEC2B8ne190102INS_16__value_init_tagESP_EEOT_OT0_
FNA:1,1,_ZNSt3__117__compressed_pairIPPNS_16__hash_node_baseIPNS_11__hash_nodeINS_17__hash_value_typeINS_12basic_stringIcNS_11char_traitsIcEENS_9allocatorIcEEEEmEEPvEEEENS_25__bucket_list_deallocatorINS7_ISF_EEEEEC1B8ne190102INS_16__value_init_tagESM_EEOT_OT0_
FNA:1,1,_ZNSt3__117__compressed_pairIPPNS_16__hash_node_baseIPNS_11__hash_nodeINS_17__hash_value_typeINS_12basic_stringIcNS_11char_traitsIcEENS_9allocatorIcEEEEmEEPvEEEENS_25__bucket_list_deallocatorINS7_ISF_EEEEEC2B8ne190102INS_16__value_init_tagESM_EEOT_OT0_
FNA:1,0,_ZNSt3__117__compressed_pairIPPcNS_9allocatorIS1_EEEC1B8ne190102IDnNS_18__default_init_tagEEEOT_OT0_
FNA:1,0,_ZNSt3__117__compressed_pairIPPcNS_9allocatorIS1_EEEC2B8ne190102IDnNS_18__default_init_tagEEEOT_OT0_
FNA:1,0,_ZNSt3__117__compressed_pairIPPcRNS_9allocatorIS1_EEEC1B8ne190102IDnS5_EEOT_OT0_
FNA:1,0,_ZNSt3__117__compressed_pairIPPcRNS_9allocatorIS1_EEEC2B8ne190102IDnS5_EEOT_OT0_
FNA:1,0,_ZNSt3__117__compressed_pairIPdNS_9allocatorIdEEEC1B8ne190102IDnNS_18__default_init_tagEEEOT_OT0_
FNA:1,0,_ZNSt3__117__compressed_pairIPdNS_9allocatorIdEEEC1B8ne190102IDnS3_EEOT_OT0_
FNA:1,0,_ZNSt3__117__compressed_pairIPdNS_9allocatorIdEEEC2B8ne190102IDnNS_18__default_init_tagEEEOT_OT0_
FNA:1,0,_ZNSt3__117__compressed_pairIPdNS_9allocatorIdEEEC2B8ne190102IDnS3_EEOT_OT0_
FNA:1,5,_ZNSt3__117__compressed_pairIPiNS_9allocatorIiEEEC1B8ne190102IDnNS_18__default_init_tagEEEOT_OT0_
FNA:1,5,_ZNSt3__117__compressed_pairIPiNS_9allocatorIiEEEC2B8ne190102IDnNS_18__default_init_tagEEEOT_OT0_
FNA:1,13,_ZNSt3__117__compressed_pairIPiRNS_9allocatorIiEEEC1B8ne190102IDnS4_EEOT_OT0_
FNA:1,13,_ZNSt3__117__compressed_pairIPiRNS_9allocatorIiEEEC2B8ne190102IDnS4_EEOT_OT0_
FNA:1,0,_ZNSt3__117__compressed_pairIPmNS_9allocatorImEEEC1B8ne190102IDnNS_18__default_init_tagEEEOT_OT0_
FNA:1,0,_ZNSt3__117__compressed_pairIPmNS_9allocatorImEEEC2B8ne190102IDnNS_18__default_init_tagEEEOT_OT0_
FNA:1,0,_ZNSt3__117__compressed_pairIPmRNS_9allocatorImEEEC1B8ne190102IDnS4_EEOT_OT0_
FNA:1,0,_ZNSt3__117__compressed_pairIPmRNS_9allocatorImEEEC2B8ne190102IDnS4_EEOT_OT0_
FNA:1,1,_ZNSt3__117__compressed_pairIfNS_21__unordered_map_equalINS_12basic_stringIcNS_11char_traitsIcEENS_9allocatorIcEEEENS_17__hash_value_typeIS7_PN7testing9TestSuiteEEENS_8equal_toIS7_EENS_4hashIS7_EELb1EEEEC1B8ne190102IfNS_18__default_init_tagEEEOT_OT0_
FNA:1,1,_ZNSt3__117__compressed_pairIfNS_21__unordered_map_equalINS_12basic_stringIcNS_11char_traitsIcEENS_9allocatorIcEEEENS_17__hash_value_typeIS7_PN7testing9TestSuiteEEENS_8equal_toIS7_EENS_4hashIS7_EELb1EEEEC2B8ne190102IfNS_18__default_init_tagEEEOT_OT0_
FNA:1,1,_ZNSt3__117__compressed_pairIfNS_21__unordered_map_equalINS_12basic_stringIcNS_11char_traitsIcEENS_9allocatorIcEEEENS_17__hash_value_typeIS7_mEENS_8equal_toIS7_EENS_4hashIS7_EELb1EEEEC1B8ne190102IfNS_18__default_init_tagEEEOT_OT0_
FNA:1,1,_ZNSt3__117__compressed_pairIfNS_21__unordered_map_equalINS_12basic_stringIcNS_11char_traitsIcEENS_9allocatorIcEEEENS_17__hash_value_typeIS7_mEENS_8equal_toIS7_EENS_4hashIS7_EELb1EEEEC2B8ne190102IfNS_18__default_init_tagEEEOT_OT0_
FNA:1,11,_ZNSt3__117__compressed_pairIfNS_8equal_toINS_12basic_stringIcNS_11char_traitsIcEENS_9allocatorIcEEEEEEEC1B8ne190102IfNS_18__default_init_tagEEEOT_OT0_
FNA:1,11,_ZNSt3__117__compressed_pairIfNS_8equal_toINS_12basic_stringIcNS_11char_traitsIcEENS_9allocatorIcEEEEEEEC2B8ne190102IfNS_18__default_init_tagEEEOT_OT0_
FNA:1,1,_ZNSt3__117__compressed_pairImNS_19__map_value_compareINS_12basic_stringIcNS_11char_traitsIcEENS_9allocatorIcEEEENS_12__value_typeIS7_N7testing8internal34TypeParameterizedTestSuiteRegistry30TypeParameterizedTestSuiteInfoEEENS_4lessIS7_EELb1EEEEC1B8ne190102IiRKSG_EEOT_OT0_
FNA:1,1,_ZNSt3__117__compressed_pairImNS_19__map_value_compareINS_12basic_stringIcNS_11char_traitsIcEENS_9allocatorIcEEEENS_12__value_typeIS7_N7testing8internal34TypeParameterizedTestSuiteRegistry30TypeParameterizedTestSuiteInfoEEENS_4lessIS7_EELb1EEEEC2B8ne190102IiRKSG_EEOT_OT0_
FNA:1,0,_ZNSt3__117__compressed_pairImNS_19__map_value_compareINS_12basic_stringIcNS_11char_traitsIcEENS_9allocatorIcEEEENS_12__value_typeIS7_mEENS_4lessIS7_EELb1EEEEC1B8ne190102IiRKSC_EEOT_OT0_
FNA:1,0,_ZNSt3__117__compressed_pairImNS_19__map_value_compareINS_12basic_stringIcNS_11char_traitsIcEENS_9allocatorIcEEEENS_12__value_typeIS7_mEENS_4lessIS7_EELb1EEEEC2B8ne190102IiRKSC_EEOT_OT0_
FNA:1,1,_ZNSt3__117__compressed_pairImNS_22__unordered_map_hasherINS_12basic_stringIcNS_11char_traitsIcEENS_9allocatorIcEEEENS_17__hash_value_typeIS7_PN7testing9TestSuiteEEENS_4hashIS7_EENS_8equal_toIS7_EELb1EEEEC1B8ne190102IiNS_18__default_init_tagEEEOT_OT0_
FNA:1,1,_ZNSt3__117__compressed_pairImNS_22__unordered_map_hasherINS_12basic_stringIcNS_11char_traitsIcEENS_9allocatorIcEEEENS_17__hash_value_typeIS7_PN7testing9TestSuiteEEENS_4hashIS7_EENS_8equal_toIS7_EELb1EEEEC2B8ne190102IiNS_18__default_init_tagEEEOT_OT0_
FNA:1,1,_ZNSt3__117__compressed_pairImNS_22__unordered_map_hasherINS_12basic_stringIcNS_11char_traitsIcEENS_9allocatorIcEEEENS_17__hash_value_typeIS7_mEENS_4hashIS7_EENS_8equal_toIS7_EELb1EEEEC1B8ne190102IiNS_18__default_init_tagEEEOT_OT0_
FNA:1,1,_ZNSt3__117__compressed_pairImNS_22__unordered_map_hasherINS_12basic_stringIcNS_11char_traitsIcEENS_9allocatorIcEEEENS_17__hash_value_typeIS7_mEENS_4hashIS7_EENS_8equal_toIS7_EELb1EEEEC2B8ne190102IiNS_18__default_init_tagEEEOT_OT0_
FNA:1,11,_ZNSt3__117__compressed_pairImNS_4hashINS_12basic_stringIcNS_11char_traitsIcEENS_9allocatorIcEEEEEEEC1B8ne190102IiNS_18__default_init_tagEEEOT_OT0_
FNA:1,11,_ZNSt3__117__compressed_pairImNS_4hashINS_12basic_stringIcNS_11char_traitsIcEENS_9allocatorIcEEEEEEEC2B8ne190102IiNS_18__default_init_tagEEEOT_OT0_
FNA:1,1,_ZNSt3__117__compressed_pairImNS_4lessINS_12basic_stringIcNS_11char_traitsIcEENS_9allocatorIcEEEEEEEC1B8ne190102IiRKS8_EEOT_OT0_
FNA:1,1,_ZNSt3__117__compressed_pairImNS_4lessINS_12basic_stringIcNS_11char_traitsIcEENS_9allocatorIcEEEEEEEC2B8ne190102IiRKS8_EEOT_OT0_
FNA:1,0,_ZNSt3__117__compressed_pairImNS_9allocatorINS_11__list_nodeINS_4pairIcPKcEEPvEEEEEC1B8ne190102IiNS_18__default_init_tagEEEOT_OT0_
FNA:1,0,_ZNSt3__117__compressed_pairImNS_9allocatorINS_11__list_nodeINS_4pairIcPKcEEPvEEEEEC2B8ne190102IiNS_18__default_init_tagEEEOT_OT0_
FNA:1,11,_ZNSt3__117__compressed_pairImNS_9allocatorIPNS_16__hash_node_baseIPNS_11__hash_nodeINS_12basic_stringIcNS_11char_traitsIcEENS1_IcEEEEPvEEEEEEEC1B8ne190102IiNS_18__default_init_tagEEEOT_OT0_
FNA:1,11,_ZNSt3__117__compressed_pairImNS_9allocatorIPNS_16__hash_node_baseIPNS_11__hash_nodeINS_12basic_stringIcNS_11char_traitsIcEENS1_IcEEEEPvEEEEEEEC2B8ne190102IiNS_18__default_init_tagEEEOT_OT0_
FNA:1,1,_ZNSt3__117__compressed_pairImNS_9allocatorIPNS_16__hash_node_baseIPNS_11__hash_nodeINS_17__hash_value_typeINS_12basic_stringIcNS_11char_traitsIcEENS1_IcEEEEPN7testing9TestSuiteEEEPvEEEEEEEC1B8ne190102IiNS_18__default_init_tagEEEOT_OT0_
FNA:1,1,_ZNSt3__117__compressed_pairImNS_9allocatorIPNS_16__hash_node_baseIPNS_11__hash_nodeINS_17__hash_value_typeINS_12basic_stringIcNS_11char_traitsIcEENS1_IcEEEEPN7testing9TestSuiteEEEPvEEEEEEEC2B8ne190102IiNS_18__default_init_tagEEEOT_OT0_
FNA:1,1,_ZNSt3__117__compressed_pairImNS_9allocatorIPNS_16__hash_node_baseIPNS_11__hash_nodeINS_17__hash_value_typeINS_12basic_stringIcNS_11char_traitsIcEENS1_IcEEEEmEEPvEEEEEEEC1B8ne190102IiNS_18__default_init_tagEEEOT_OT0_
FNA:1,1,_ZNSt3__117__compressed_pairImNS_9allocatorIPNS_16__hash_node_baseIPNS_11__hash_nodeINS_17__hash_value_typeINS_12basic_stringIcNS_11char_traitsIcEENS1_IcEEEEmEEPvEEEEEEEC2B8ne190102IiNS_18__default_init_tagEEEOT_OT0_
FNL:2,129,130
FNA:2,290,_ZNSt3__117__compressed_pairINS_12basic_stringIcNS_11char_traitsIcEENS_9allocatorIcEEE5__repES5_E5firstB8ne190102Ev
FNA:2,0,_ZNSt3__117__compressed_pairINS_15__tree_end_nodeIPNS_16__tree_node_baseIPvEEEENS_9allocatorINS_11__tree_nodeINS_12__value_typeINS_12basic_stringIcNS_11char_traitsIcEENS7_IcEEEEN7testing8internal12CodeLocationEEES3_EEEEE5firstB8ne190102Ev
FNA:2,2,_ZNSt3__117__compressed_pairINS_15__tree_end_nodeIPNS_16__tree_node_baseIPvEEEENS_9allocatorINS_11__tree_nodeINS_12__value_typeINS_12basic_stringIcNS_11char_traitsIcEENS7_IcEEEEN7testing8internal34TypeParameterizedTestSuiteRegistry30TypeParameterizedTestSuiteInfoEEES3_EEEEE5firstB8ne190102Ev
FNA:2,0,_ZNSt3__117__compressed_pairINS_15__tree_end_nodeIPNS_16__tree_node_baseIPvEEEENS_9allocatorINS_11__tree_nodeINS_12__value_typeINS_12basic_stringIcNS_11char_traitsIcEENS7_IcEEEEmEES3_EEEEE5firstB8ne190102Ev
FNA:2,1,_ZNSt3__117__compressed_pairINS_15__tree_end_nodeIPNS_16__tree_node_baseIPvEEEENS_9allocatorINS_11__tree_nodeINS_12basic_stringIcNS_11char_traitsIcEENS7_IcEEEES3_EEEEE5firstB8ne190102Ev
FNA:2,22,_ZNSt3__117__compressed_pairINS_16__hash_node_baseIPNS_11__hash_nodeINS_12basic_stringIcNS_11char_traitsIcEENS_9allocatorIcEEEEPvEEEENS6_ISA_EEE5firstB8ne190102Ev
FNA:2,5,_ZNSt3__117__compressed_pairINS_16__hash_node_baseIPNS_11__hash_nodeINS_17__hash_value_typeINS_12basic_stringIcNS_11char_traitsIcEENS_9allocatorIcEEEEPN7testing9TestSuiteEEEPvEEEENS7_ISF_EEE5firstB8ne190102Ev
FNA:2,0,_ZNSt3__117__compressed_pairINS_16__hash_node_baseIPNS_11__hash_nodeINS_17__hash_value_typeINS_12basic_stringIcNS_11char_traitsIcEENS_9allocatorIcEEEEmEEPvEEEENS7_ISC_EEE5firstB8ne190102Ev
FNA:2,0,_ZNSt3__117__compressed_pairIPKNS_12basic_stringIcNS_11char_traitsIcEENS_9allocatorIcEEEENS_14default_deleteIS7_EEE5firstB8ne190102Ev
FNA:2,0,_ZNSt3__117__compressed_pairIPN7testing12TestPropertyENS_9allocatorIS2_EEE5firstB8ne190102Ev
FNA:2,0,_ZNSt3__117__compressed_pairIPN7testing12TestPropertyERNS_9allocatorIS2_EEE5firstB8ne190102Ev
FNA:2,0,_ZNSt3__117__compressed_pairIPN7testing14TestPartResultENS_9allocatorIS2_EEE5firstB8ne190102Ev
FNA:2,0,_ZNSt3__117__compressed_pairIPN7testing14TestPartResultERNS_9allocatorIS2_EEE5firstB8ne190102Ev
FNA:2,0,_ZNSt3__117__compressed_pairIPN7testing8internal11ThreadLocalINS_6vectorINS2_9TraceInfoENS_9allocatorIS5_EEEEE18ValueHolderFactoryENS_14default_deleteISA_EEE5firstB8ne190102Ev
FNA:2,0,_ZNSt3__117__compressed_pairIPN7testing8internal11ThreadLocalIPNS1_31TestPartResultReporterInterfaceEE18ValueHolderFactoryENS_14default_deleteIS7_EEE5firstB8ne190102Ev
FNA:2,0,_ZNSt3__117__compressed_pairIPN7testing8internal13edit_distance8EditTypeENS_9allocatorIS4_EEE5firstB8ne190102Ev
FNA:2,0,_ZNSt3__117__compressed_pairIPN7testing8internal13edit_distance8EditTypeERNS_9allocatorIS4_EEE5firstB8ne190102Ev
FNA:2,24,_ZNSt3__117__compressed_pairIPN7testing8internal14GTestFlagSaverENS_14default_deleteIS3_EEE5firstB8ne190102Ev
FNA:2,0,_ZNSt3__117__compressed_pairIPN7testing8internal16DeathTestFactoryENS_14default_deleteIS3_EEE5firstB8ne190102Ev
FNA:2,0,_ZNSt3__117__compressed_pairIPN7testing8internal17StreamingListener20AbstractSocketWriterENS_14default_deleteIS4_EEE5firstB8ne190102Ev
FNA:2,2,_ZNSt3__117__compressed_pairIPN7testing8internal24InternalRunDeathTestFlagENS_14default_deleteIS3_EEE5firstB8ne190102Ev
FNA:2,0,_ZNSt3__117__compressed_pairIPN7testing8internal9TraceInfoENS_9allocatorIS3_EEE5firstB8ne190102Ev
FNA:2,0,_ZNSt3__117__compressed_pairIPN7testing8internal9TraceInfoERNS_9allocatorIS3_EEE5firstB8ne190102Ev
FNA:2,0,_ZNSt3__117__compressed_pairIPNS_11__hash_nodeINS_12basic_stringIcNS_11char_traitsIcEENS_9allocatorIcEEEEPvEENS_22__hash_node_destructorINS5_IS9_EEEEE5firstB8ne190102Ev
FNA:2,16,_ZNSt3__117__compressed_pairIPNS_11__hash_nodeINS_17__hash_value_typeINS_12basic_stringIcNS_11char_traitsIcEENS_9allocatorIcEEEEPN7testing9TestSuiteEEEPvEENS_22__hash_node_destructorINS6_ISE_EEEEE5firstB8ne190102Ev
FNA:2,0,_ZNSt3__117__compressed_pairIPNS_11__tree_nodeINS_12__value_typeINS_12basic_stringIcNS_11char_traitsIcEENS_9allocatorIcEEEEN7testing8internal34TypeParameterizedTestSuiteRegistry30TypeParameterizedTestSuiteInfoEEEPvEENS_22__tree_node_destructorINS6_ISF_EEEEE5firstB8ne190102Ev
FNA:2,0,_ZNSt3__117__compressed_pairIPNS_11__tree_nodeINS_12__value_typeINS_12basic_stringIcNS_11char_traitsIcEENS_9allocatorIcEEEEmEEPvEENS_22__tree_node_destructorINS6_ISB_EEEEE5firstB8ne190102Ev
FNA:2,0,_ZNSt3__117__compressed_pairIPNS_11__tree_nodeINS_12basic_stringIcNS_11char_traitsIcEENS_9allocatorIcEEEEPvEENS_22__tree_node_destructorINS5_IS9_EEEEE5firstB8ne190102Ev
FNA:2,74,_ZNSt3__117__compressed_pairIPNS_12basic_stringIcNS_11char_traitsIcEENS_9allocatorIcEEEENS4_IS6_EEE5firstB8ne190102Ev
FNA:2,24,_ZNSt3__117__compressed_pairIPNS_12basic_stringIcNS_11char_traitsIcEENS_9allocatorIcEEEENS_14default_deleteIS6_EEE5firstB8ne190102Ev
FNA:2,44,_ZNSt3__117__compressed_pairIPNS_12basic_stringIcNS_11char_traitsIcEENS_9allocatorIcEEEERNS4_IS6_EEE5firstB8ne190102Ev
FNA:2,154,_ZNSt3__117__compressed_pairIPNS_18basic_stringstreamIcNS_11char_traitsIcEENS_9allocatorIcEEEENS_14default_deleteIS6_EEE5firstB8ne190102Ev
FNA:2,0,_ZNSt3__117__compressed_pairIPNS_6vectorIN7testing8internal13edit_distance8EditTypeENS_9allocatorIS5_EEEENS6_IS8_EEE5firstB8ne190102Ev
FNA:2,0,_ZNSt3__117__compressed_pairIPNS_6vectorIdNS_9allocatorIdEEEENS2_IS4_EEE5firstB8ne190102Ev
FNA:2,0,_ZNSt3__117__compressed_pairIPPN7testing11EnvironmentENS_9allocatorIS3_EEE5firstB8ne190102Ev
FNA:2,0,_ZNSt3__117__compressed_pairIPPN7testing11EnvironmentERNS_9allocatorIS3_EEE5firstB8ne190102Ev
FNA:2,2,_ZNSt3__117__compressed_pairIPPN7testing17TestEventListenerENS_9allocatorIS3_EEE5firstB8ne190102Ev
FNA:2,2,_ZNSt3__117__compressed_pairIPPN7testing17TestEventListenerERNS_9allocatorIS3_EEE5firstB8ne190102Ev
FNA:2,8,_ZNSt3__117__compressed_pairIPPN7testing8TestInfoENS_25__return_temporary_bufferEE5firstB8ne190102Ev
FNA:2,22,_ZNSt3__117__compressed_pairIPPN7testing8TestInfoENS_9allocatorIS3_EEE5firstB8ne190102Ev
FNA:2,0,_ZNSt3__117__compressed_pairIPPN7testing8TestInfoERNS_12__destruct_nEE5firstB8ne190102Ev
FNA:2,20,_ZNSt3__117__compressed_pairIPPN7testing8TestInfoERNS_9allocatorIS3_EEE5firstB8ne190102Ev
FNA:2,7,_ZNSt3__117__compressed_pairIPPN7testing9TestSuiteENS_9allocatorIS3_EEE5firstB8ne190102Ev
FNA:2,6,_ZNSt3__117__compressed_pairIPPN7testing9TestSuiteERNS_9allocatorIS3_EEE5firstB8ne190102Ev
FNA:2,30,_ZNSt3__117__compressed_pairIPPNS_16__hash_node_baseIPNS_11__hash_nodeINS_12basic_stringIcNS_11char_traitsIcEENS_9allocatorIcEEEEPvEEEENS_25__bucket_list_deallocatorINS6_ISD_EEEEE5firstB8ne190102Ev
FNA:2,4,_ZNSt3__117__compressed_pairIPPNS_16__hash_node_baseIPNS_11__hash_nodeINS_17__hash_value_typeINS_12basic_stringIcNS_11char_traitsIcEENS_9allocatorIcEEEEPN7testing9TestSuiteEEEPvEEEENS_25__bucket_list_deallocatorINS7_ISI_EEEEE5firstB8ne190102Ev
FNA:2,0,_ZNSt3__117__compressed_pairIPPNS_16__hash_node_baseIPNS_11__hash_nodeINS_17__hash_value_typeINS_12basic_stringIcNS_11char_traitsIcEENS_9allocatorIcEEEEmEEPvEEEENS_25__bucket_list_deallocatorINS7_ISF_EEEEE5firstB8ne190102Ev
FNA:2,0,_ZNSt3__117__compressed_pairIPPcNS_9allocatorIS1_EEE5firstB8ne190102Ev
FNA:2,0,_ZNSt3__117__compressed_pairIPPcRNS_9allocatorIS1_EEE5firstB8ne190102Ev
FNA:2,0,_ZNSt3__117__compressed_pairIPdNS_9allocatorIdEEE5firstB8ne190102Ev
FNA:2,29,_ZNSt3__117__compressed_pairIPiNS_9allocatorIiEEE5firstB8ne190102Ev
FNA:2,26,_ZNSt3__117__compressed_pairIPiRNS_9allocatorIiEEE5firstB8ne190102Ev
FNA:2,0,_ZNSt3__117__compressed_pairIPmNS_9allocatorImEEE5firstB8ne190102Ev
FNA:2,0,_ZNSt3__117__compressed_pairIPmRNS_9allocatorImEEE5firstB8ne190102Ev
FNA:2,6,_ZNSt3__117__compressed_pairIfNS_21__unordered_map_equalINS_12basic_stringIcNS_11char_traitsIcEENS_9allocatorIcEEEENS_17__hash_value_typeIS7_PN7testing9TestSuiteEEENS_8equal_toIS7_EENS_4hashIS7_EELb1EEEE5firstB8ne190102Ev
FNA:2,4,_ZNSt3__117__compressed_pairIfNS_8equal_toINS_12basic_stringIcNS_11char_traitsIcEENS_9allocatorIcEEEEEEE5firstB8ne190102Ev
FNA:2,0,_ZNSt3__117__compressed_pairImNS_19__map_value_compareINS_12basic_stringIcNS_11char_traitsIcEENS_9allocatorIcEEEENS_12__value_typeIS7_N7testing8internal34TypeParameterizedTestSuiteRegistry30TypeParameterizedTestSuiteInfoEEENS_4lessIS7_EELb1EEEE5firstB8ne190102Ev
FNA:2,0,_ZNSt3__117__compressed_pairImNS_19__map_value_compareINS_12basic_stringIcNS_11char_traitsIcEENS_9allocatorIcEEEENS_12__value_typeIS7_mEENS_4lessIS7_EELb1EEEE5firstB8ne190102Ev
FNA:2,10,_ZNSt3__117__compressed_pairImNS_22__unordered_map_hasherINS_12basic_stringIcNS_11char_traitsIcEENS_9allocatorIcEEEENS_17__hash_value_typeIS7_PN7testing9TestSuiteEEENS_4hashIS7_EENS_8equal_toIS7_EELb1EEEE5firstB8ne190102Ev
FNA:2,8,_ZNSt3__117__compressed_pairImNS_4hashINS_12basic_stringIcNS_11char_traitsIcEENS_9allocatorIcEEEEEEE5firstB8ne190102Ev
FNA:2,0,_ZNSt3__117__compressed_pairImNS_4lessINS_12basic_stringIcNS_11char_traitsIcEENS_9allocatorIcEEEEEEE5firstB8ne190102Ev
FNA:2,0,_ZNSt3__117__compressed_pairImNS_9allocatorINS_11__list_nodeINS_4pairIcPKcEEPvEEEEE5firstB8ne190102Ev
FNA:2,6,_ZNSt3__117__compressed_pairImNS_9allocatorIPNS_16__hash_node_baseIPNS_11__hash_nodeINS_12basic_stringIcNS_11char_traitsIcEENS1_IcEEEEPvEEEEEEE5firstB8ne190102Ev
FNA:2,3,_ZNSt3__117__compressed_pairImNS_9allocatorIPNS_16__hash_node_baseIPNS_11__hash_nodeINS_17__hash_value_typeINS_12basic_stringIcNS_11char_traitsIcEENS1_IcEEEEPN7testing9TestSuiteEEEPvEEEEEEE5firstB8ne190102Ev
FNA:2,0,_ZNSt3__117__compressed_pairImNS_9allocatorIPNS_16__hash_node_baseIPNS_11__hash_nodeINS_17__hash_value_typeINS_12basic_stringIcNS_11char_traitsIcEENS1_IcEEEEmEEPvEEEEEEE5firstB8ne190102Ev
FNL:3,133,134
FNA:3,4674,_ZNKSt3__117__compressed_pairINS_12basic_stringIcNS_11char_traitsIcEENS_9allocatorIcEEE5__repES5_E5firstB8ne190102Ev
FNA:3,0,_ZNKSt3__117__compressed_pairINS_12basic_stringIwNS_11char_traitsIwEENS_9allocatorIwEEE5__repES5_E5firstB8ne190102Ev
FNA:3,0,_ZNKSt3__117__compressed_pairINS_15__tree_end_nodeIPNS_16__tree_node_baseIPvEEEENS_9allocatorINS_11__tree_nodeINS_12__value_typeINS_12basic_stringIcNS_11char_traitsIcEENS7_IcEEEEN7testing8internal12CodeLocationEEES3_EEEEE5firstB8ne190102Ev
FNA:3,0,_ZNKSt3__117__compressed_pairINS_15__tree_end_nodeIPNS_16__tree_node_baseIPvEEEENS_9allocatorINS_11__tree_nodeINS_12__value_typeINS_12basic_stringIcNS_11char_traitsIcEENS7_IcEEEEN7testing8internal34TypeParameterizedTestSuiteRegistry30TypeParameterizedTestSuiteInfoEEES3_EEEEE5firstB8ne190102Ev
FNA:3,0,_ZNKSt3__117__compressed_pairINS_15__tree_end_nodeIPNS_16__tree_node_baseIPvEEEENS_9allocatorINS_11__tree_nodeINS_12__value_typeINS_12basic_stringIcNS_11char_traitsIcEENS7_IcEEEEmEES3_EEEEE5firstB8ne190102Ev
FNA:3,0,_ZNKSt3__117__compressed_pairINS_15__tree_end_nodeIPNS_16__tree_node_baseIPvEEEENS_9allocatorINS_11__tree_nodeINS_12basic_stringIcNS_11char_traitsIcEENS7_IcEEEES3_EEEEE5firstB8ne190102Ev
FNA:3,16,_ZNKSt3__117__compressed_pairIPKNS_12basic_stringIcNS_11char_traitsIcEENS_9allocatorIcEEEENS_14default_deleteIS7_EEE5firstB8ne190102Ev
FNA:3,0,_ZNKSt3__117__compressed_pairIPN7testing12TestPropertyENS_9allocatorIS2_EEE5firstB8ne190102Ev
FNA:3,0,_ZNKSt3__117__compressed_pairIPN7testing12TestPropertyERNS_9allocatorIS2_EEE5firstB8ne190102Ev
FNA:3,0,_ZNKSt3__117__compressed_pairIPN7testing14TestPartResultENS_9allocatorIS2_EEE5firstB8ne190102Ev
FNA:3,0,_ZNKSt3__117__compressed_pairIPN7testing14TestPartResultERNS_9allocatorIS2_EEE5firstB8ne190102Ev
FNA:3,0,_ZNKSt3__117__compressed_pairIPN7testing8internal11ThreadLocalINS_6vectorINS2_9TraceInfoENS_9allocatorIS5_EEEEE18ValueHolderFactoryENS_14default_deleteISA_EEE5firstB8ne190102Ev
FNA:3,0,_ZNKSt3__117__compressed_pairIPN7testing8internal11ThreadLocalIPNS1_31TestPartResultReporterInterfaceEE18ValueHolderFactoryENS_14default_deleteIS7_EEE5firstB8ne190102Ev
FNA:3,0,_ZNKSt3__117__compressed_pairIPN7testing8internal13edit_distance8EditTypeENS_9allocatorIS4_EEE5firstB8ne190102Ev
FNA:3,0,_ZNKSt3__117__compressed_pairIPN7testing8internal13edit_distance8EditTypeERNS_9allocatorIS4_EEE5firstB8ne190102Ev
FNA:3,0,_ZNKSt3__117__compressed_pairIPN7testing8internal16DeathTestFactoryENS_14default_deleteIS3_EEE5firstB8ne190102Ev
FNA:3,0,_ZNKSt3__117__compressed_pairIPN7testing8internal17StreamingListener20AbstractSocketWriterENS_14default_deleteIS4_EEE5firstB8ne190102Ev
FNA:3,2,_ZNKSt3__117__compressed_pairIPN7testing8internal24InternalRunDeathTestFlagENS_14default_deleteIS3_EEE5firstB8ne190102Ev
FNA:3,0,_ZNKSt3__117__compressed_pairIPN7testing8internal9TraceInfoENS_9allocatorIS3_EEE5firstB8ne190102Ev
FNA:3,0,_ZNKSt3__117__compressed_pairIPN7testing8internal9TraceInfoERNS_9allocatorIS3_EEE5firstB8ne190102Ev
FNA:3,0,_ZNKSt3__117__compressed_pairIPNS_11__hash_nodeINS_12basic_stringIcNS_11char_traitsIcEENS_9allocatorIcEEEEPvEENS_22__hash_node_destructorINS5_IS9_EEEEE5firstB8ne190102Ev
FNA:3,23,_ZNKSt3__117__compressed_pairIPNS_11__hash_nodeINS_17__hash_value_typeINS_12basic_stringIcNS_11char_traitsIcEENS_9allocatorIcEEEEPN7testing9TestSuiteEEEPvEENS_22__hash_node_destructorINS6_ISE_EEEEE5firstB8ne190102Ev
FNA:3,0,_ZNKSt3__117__compressed_pairIPNS_11__tree_nodeINS_12__value_typeINS_12basic_stringIcNS_11char_traitsIcEENS_9allocatorIcEEEEN7testing8internal34TypeParameterizedTestSuiteRegistry30TypeParameterizedTestSuiteInfoEEEPvEENS_22__tree_node_destructorINS6_ISF_EEEEE5firstB8ne190102Ev
FNA:3,0,_ZNKSt3__117__compressed_pairIPNS_11__tree_nodeINS_12__value_typeINS_12basic_stringIcNS_11char_traitsIcEENS_9allocatorIcEEEEmEEPvEENS_22__tree_node_destructorINS6_ISB_EEEEE5firstB8ne190102Ev
FNA:3,0,_ZNKSt3__117__compressed_pairIPNS_11__tree_nodeINS_12basic_stringIcNS_11char_traitsIcEENS_9allocatorIcEEEEPvEENS_22__tree_node_destructorINS5_IS9_EEEEE5firstB8ne190102Ev
FNA:3,39,_ZNKSt3__117__compressed_pairIPNS_12basic_stringIcNS_11char_traitsIcEENS_9allocatorIcEEEENS4_IS6_EEE5firstB8ne190102Ev
FNA:3,0,_ZNKSt3__117__compressed_pairIPNS_12basic_stringIcNS_11char_traitsIcEENS_9allocatorIcEEEENS_14default_deleteIS6_EEE5firstB8ne190102Ev
FNA:3,5,_ZNKSt3__117__compressed_pairIPNS_12basic_stringIcNS_11char_traitsIcEENS_9allocatorIcEEEERNS4_IS6_EEE5firstB8ne190102Ev
FNA:3,703,_ZNKSt3__117__compressed_pairIPNS_18basic_stringstreamIcNS_11char_traitsIcEENS_9allocatorIcEEEENS_14default_deleteIS6_EEE5firstB8ne190102Ev
FNA:3,0,_ZNKSt3__117__compressed_pairIPNS_6vectorIN7testing8internal13edit_distance8EditTypeENS_9allocatorIS5_EEEENS6_IS8_EEE5firstB8ne190102Ev
FNA:3,0,_ZNKSt3__117__compressed_pairIPNS_6vectorIdNS_9allocatorIdEEEENS2_IS4_EEE5firstB8ne190102Ev
FNA:3,0,_ZNKSt3__117__compressed_pairIPPN7testing11EnvironmentENS_9allocatorIS3_EEE5firstB8ne190102Ev
FNA:3,0,_ZNKSt3__117__compressed_pairIPPN7testing11EnvironmentERNS_9allocatorIS3_EEE5firstB8ne190102Ev
FNA:3,1,_ZNKSt3__117__compressed_pairIPPN7testing17TestEventListenerENS_9allocatorIS3_EEE5firstB8ne190102Ev
FNA:3,0,_ZNKSt3__117__compressed_pairIPPN7testing17TestEventListenerERNS_9allocatorIS3_EEE5firstB8ne190102Ev
FNA:3,10,_ZNKSt3__117__compressed_pairIPPN7testing8TestInfoENS_9allocatorIS3_EEE5firstB8ne190102Ev
FNA:3,6,_ZNKSt3__117__compressed_pairIPPN7testing8TestInfoERNS_9allocatorIS3_EEE5firstB8ne190102Ev
FNA:3,0,_ZNKSt3__117__compressed_pairIPPN7testing8internal30ParameterizedTestSuiteInfoBaseENS_9allocatorIS4_EEE5firstB8ne190102Ev
FNA:3,3,_ZNKSt3__117__compressed_pairIPPN7testing9TestSuiteENS_9allocatorIS3_EEE5firstB8ne190102Ev
FNA:3,2,_ZNKSt3__117__compressed_pairIPPN7testing9TestSuiteERNS_9allocatorIS3_EEE5firstB8ne190102Ev
FNA:3,0,_ZNKSt3__117__compressed_pairIPPNS_16__hash_node_baseIPNS_11__hash_nodeINS_12basic_stringIcNS_11char_traitsIcEENS_9allocatorIcEEEEPvEEEENS_25__bucket_list_deallocatorINS6_ISD_EEEEE5firstB8ne190102Ev
FNA:3,23,_ZNKSt3__117__compressed_pairIPPNS_16__hash_node_baseIPNS_11__hash_nodeINS_17__hash_value_typeINS_12basic_stringIcNS_11char_traitsIcEENS_9allocatorIcEEEEPN7testing9TestSuiteEEEPvEEEENS_25__bucket_list_deallocatorINS7_ISI_EEEEE5firstB8ne190102Ev
FNA:3,0,_ZNKSt3__117__compressed_pairIPPcNS_9allocatorIS1_EEE5firstB8ne190102Ev
FNA:3,0,_ZNKSt3__117__compressed_pairIPPcRNS_9allocatorIS1_EEE5firstB8ne190102Ev
FNA:3,0,_ZNKSt3__117__compressed_pairIPdNS_9allocatorIdEEE5firstB8ne190102Ev
FNA:3,13,_ZNKSt3__117__compressed_pairIPiNS_9allocatorIiEEE5firstB8ne190102Ev
FNA:3,8,_ZNKSt3__117__compressed_pairIPiRNS_9allocatorIiEEE5firstB8ne190102Ev
FNA:3,0,_ZNKSt3__117__compressed_pairIPmNS_9allocatorImEEE5firstB8ne190102Ev
FNA:3,0,_ZNKSt3__117__compressed_pairIPmRNS_9allocatorImEEE5firstB8ne190102Ev
FNA:3,0,_ZNKSt3__117__compressed_pairImNS_19__map_value_compareINS_12basic_stringIcNS_11char_traitsIcEENS_9allocatorIcEEEENS_12__value_typeIS7_mEENS_4lessIS7_EELb1EEEE5firstB8ne190102Ev
FNA:3,0,_ZNKSt3__117__compressed_pairImNS_9allocatorINS_11__list_nodeINS_4pairIcPKcEEPvEEEEE5firstB8ne190102Ev
FNA:3,54,_ZNKSt3__117__compressed_pairImNS_9allocatorIPNS_16__hash_node_baseIPNS_11__hash_nodeINS_12basic_stringIcNS_11char_traitsIcEENS1_IcEEEEPvEEEEEEE5firstB8ne190102Ev
FNA:3,12,_ZNKSt3__117__compressed_pairImNS_9allocatorIPNS_16__hash_node_baseIPNS_11__hash_nodeINS_17__hash_value_typeINS_12basic_stringIcNS_11char_traitsIcEENS1_IcEEEEPN7testing9TestSuiteEEEPvEEEEEEE5firstB8ne190102Ev
FNL:4,137,138
FNA:4,2,_ZNSt3__117__compressed_pairINS_12basic_stringIcNS_11char_traitsIcEENS_9allocatorIcEEE5__repES5_E6secondB8ne190102Ev
FNA:4,0,_ZNSt3__117__compressed_pairINS_15__tree_end_nodeIPNS_16__tree_node_baseIPvEEEENS_9allocatorINS_11__tree_nodeINS_12__value_typeINS_12basic_stringIcNS_11char_traitsIcEENS7_IcEEEEN7testing8internal34TypeParameterizedTestSuiteRegistry30TypeParameterizedTestSuiteInfoEEES3_EEEEE6secondB8ne190102Ev
FNA:4,0,_ZNSt3__117__compressed_pairINS_15__tree_end_nodeIPNS_16__tree_node_baseIPvEEEENS_9allocatorINS_11__tree_nodeINS_12__value_typeINS_12basic_stringIcNS_11char_traitsIcEENS7_IcEEEEmEES3_EEEEE6secondB8ne190102Ev
FNA:4,0,_ZNSt3__117__compressed_pairINS_15__tree_end_nodeIPNS_16__tree_node_baseIPvEEEENS_9allocatorINS_11__tree_nodeINS_12basic_stringIcNS_11char_traitsIcEENS7_IcEEEES3_EEEEE6secondB8ne190102Ev
FNA:4,15,_ZNSt3__117__compressed_pairINS_16__hash_node_baseIPNS_11__hash_nodeINS_12basic_stringIcNS_11char_traitsIcEENS_9allocatorIcEEEEPvEEEENS6_ISA_EEE6secondB8ne190102Ev
FNA:4,4,_ZNSt3__117__compressed_pairINS_16__hash_node_baseIPNS_11__hash_nodeINS_17__hash_value_typeINS_12basic_stringIcNS_11char_traitsIcEENS_9allocatorIcEEEEPN7testing9TestSuiteEEEPvEEEENS7_ISF_EEE6secondB8ne190102Ev
FNA:4,0,_ZNSt3__117__compressed_pairINS_16__hash_node_baseIPNS_11__hash_nodeINS_17__hash_value_typeINS_12basic_stringIcNS_11char_traitsIcEENS_9allocatorIcEEEEmEEPvEEEENS7_ISC_EEE6secondB8ne190102Ev
FNA:4,0,_ZNSt3__117__compressed_pairIPKNS_12basic_stringIcNS_11char_traitsIcEENS_9allocatorIcEEEENS_14default_deleteIS7_EEE6secondB8ne190102Ev
FNA:4,0,_ZNSt3__117__compressed_pairIPN7testing12TestPropertyENS_9allocatorIS2_EEE6secondB8ne190102Ev
FNA:4,0,_ZNSt3__117__compressed_pairIPN7testing12TestPropertyERNS_9allocatorIS2_EEE6secondB8ne190102Ev
FNA:4,0,_ZNSt3__117__compressed_pairIPN7testing14TestPartResultENS_9allocatorIS2_EEE6secondB8ne190102Ev
FNA:4,0,_ZNSt3__117__compressed_pairIPN7testing14TestPartResultERNS_9allocatorIS2_EEE6secondB8ne190102Ev
FNA:4,0,_ZNSt3__117__compressed_pairIPN7testing8internal11ThreadLocalINS_6vectorINS2_9TraceInfoENS_9allocatorIS5_EEEEE18ValueHolderFactoryENS_14default_deleteISA_EEE6secondB8ne190102Ev
FNA:4,0,_ZNSt3__117__compressed_pairIPN7testing8internal11ThreadLocalIPNS1_31TestPartResultReporterInterfaceEE18ValueHolderFactoryENS_14default_deleteIS7_EEE6secondB8ne190102Ev
FNA:4,0,_ZNSt3__117__compressed_pairIPN7testing8internal13edit_distance8EditTypeENS_9allocatorIS4_EEE6secondB8ne190102Ev
FNA:4,0,_ZNSt3__117__compressed_pairIPN7testing8internal13edit_distance8EditTypeERNS_9allocatorIS4_EEE6secondB8ne190102Ev
FNA:4,12,_ZNSt3__117__compressed_pairIPN7testing8internal14GTestFlagSaverENS_14default_deleteIS3_EEE6secondB8ne190102Ev
FNA:4,0,_ZNSt3__117__compressed_pairIPN7testing8internal16DeathTestFactoryENS_14default_deleteIS3_EEE6secondB8ne190102Ev
FNA:4,0,_ZNSt3__117__compressed_pairIPN7testing8internal17StreamingListener20AbstractSocketWriterENS_14default_deleteIS4_EEE6secondB8ne190102Ev
FNA:4,0,_ZNSt3__117__compressed_pairIPN7testing8internal24InternalRunDeathTestFlagENS_14default_deleteIS3_EEE6secondB8ne190102Ev
FNA:4,0,_ZNSt3__117__compressed_pairIPN7testing8internal9TraceInfoENS_9allocatorIS3_EEE6secondB8ne190102Ev
FNA:4,0,_ZNSt3__117__compressed_pairIPN7testing8internal9TraceInfoERNS_9allocatorIS3_EEE6secondB8ne190102Ev
FNA:4,0,_ZNSt3__117__compressed_pairIPNS_11__hash_nodeINS_12basic_stringIcNS_11char_traitsIcEENS_9allocatorIcEEEEPvEENS_22__hash_node_destructorINS5_IS9_EEEEE6secondB8ne190102Ev
FNA:4,4,_ZNSt3__117__compressed_pairIPNS_11__hash_nodeINS_17__hash_value_typeINS_12basic_stringIcNS_11char_traitsIcEENS_9allocatorIcEEEEPN7testing9TestSuiteEEEPvEENS_22__hash_node_destructorINS6_ISE_EEEEE6secondB8ne190102Ev
FNA:4,0,_ZNSt3__117__compressed_pairIPNS_11__tree_nodeINS_12__value_typeINS_12basic_stringIcNS_11char_traitsIcEENS_9allocatorIcEEEEN7testing8internal34TypeParameterizedTestSuiteRegistry30TypeParameterizedTestSuiteInfoEEEPvEENS_22__tree_node_destructorINS6_ISF_EEEEE6secondB8ne190102Ev
FNA:4,0,_ZNSt3__117__compressed_pairIPNS_11__tree_nodeINS_12__value_typeINS_12basic_stringIcNS_11char_traitsIcEENS_9allocatorIcEEEEmEEPvEENS_22__tree_node_destructorINS6_ISB_EEEEE6secondB8ne190102Ev
FNA:4,0,_ZNSt3__117__compressed_pairIPNS_11__tree_nodeINS_12basic_stringIcNS_11char_traitsIcEENS_9allocatorIcEEEEPvEENS_22__tree_node_destructorINS5_IS9_EEEEE6secondB8ne190102Ev
FNA:4,124,_ZNSt3__117__compressed_pairIPNS_12basic_stringIcNS_11char_traitsIcEENS_9allocatorIcEEEENS4_IS6_EEE6secondB8ne190102Ev
FNA:4,0,_ZNSt3__117__compressed_pairIPNS_12basic_stringIcNS_11char_traitsIcEENS_9allocatorIcEEEENS_14default_deleteIS6_EEE6secondB8ne190102Ev
FNA:4,27,_ZNSt3__117__compressed_pairIPNS_12basic_stringIcNS_11char_traitsIcEENS_9allocatorIcEEEERNS4_IS6_EEE6secondB8ne190102Ev
FNA:4,77,_ZNSt3__117__compressed_pairIPNS_18basic_stringstreamIcNS_11char_traitsIcEENS_9allocatorIcEEEENS_14default_deleteIS6_EEE6secondB8ne190102Ev
FNA:4,0,_ZNSt3__117__compressed_pairIPNS_6vectorIN7testing8internal13edit_distance8EditTypeENS_9allocatorIS5_EEEENS6_IS8_EEE6secondB8ne190102Ev
FNA:4,0,_ZNSt3__117__compressed_pairIPNS_6vectorIdNS_9allocatorIdEEEENS2_IS4_EEE6secondB8ne190102Ev
FNA:4,0,_ZNSt3__117__compressed_pairIPPN7testing11EnvironmentENS_9allocatorIS3_EEE6secondB8ne190102Ev
FNA:4,0,_ZNSt3__117__compressed_pairIPPN7testing11EnvironmentERNS_9allocatorIS3_EEE6secondB8ne190102Ev
FNA:4,2,_ZNSt3__117__compressed_pairIPPN7testing17TestEventListenerENS_9allocatorIS3_EEE6secondB8ne190102Ev
FNA:4,1,_ZNSt3__117__compressed_pairIPPN7testing17TestEventListenerERNS_9allocatorIS3_EEE6secondB8ne190102Ev
FNA:4,0,_ZNSt3__117__compressed_pairIPPN7testing8TestInfoENS_25__return_temporary_bufferEE6secondB8ne190102Ev
FNA:4,22,_ZNSt3__117__compressed_pairIPPN7testing8TestInfoENS_9allocatorIS3_EEE6secondB8ne190102Ev
FNA:4,0,_ZNSt3__117__compressed_pairIPPN7testing8TestInfoERNS_12__destruct_nEE6secondB8ne190102Ev
FNA:4,16,_ZNSt3__117__compressed_pairIPPN7testing8TestInfoERNS_9allocatorIS3_EEE6secondB8ne190102Ev
FNA:4,0,_ZNSt3__117__compressed_pairIPPN7testing8internal30ParameterizedTestSuiteInfoBaseENS_9allocatorIS4_EEE6secondB8ne190102Ev
FNA:4,7,_ZNSt3__117__compressed_pairIPPN7testing9TestSuiteENS_9allocatorIS3_EEE6secondB8ne190102Ev
FNA:4,5,_ZNSt3__117__compressed_pairIPPN7testing9TestSuiteERNS_9allocatorIS3_EEE6secondB8ne190102Ev
FNA:4,10,_ZNSt3__117__compressed_pairIPPNS_16__hash_node_baseIPNS_11__hash_nodeINS_12basic_stringIcNS_11char_traitsIcEENS_9allocatorIcEEEEPvEEEENS_25__bucket_list_deallocatorINS6_ISD_EEEEE6secondB8ne190102Ev
FNA:4,5,_ZNSt3__117__compressed_pairIPPNS_16__hash_node_baseIPNS_11__hash_nodeINS_17__hash_value_typeINS_12basic_stringIcNS_11char_traitsIcEENS_9allocatorIcEEEEPN7testing9TestSuiteEEEPvEEEENS_25__bucket_list_deallocatorINS7_ISI_EEEEE6secondB8ne190102Ev
FNA:4,0,_ZNSt3__117__compressed_pairIPPNS_16__hash_node_baseIPNS_11__hash_nodeINS_17__hash_value_typeINS_12basic_stringIcNS_11char_traitsIcEENS_9allocatorIcEEEEmEEPvEEEENS_25__bucket_list_deallocatorINS7_ISF_EEEEE6secondB8ne190102Ev
FNA:4,0,_ZNSt3__117__compressed_pairIPPcNS_9allocatorIS1_EEE6secondB8ne190102Ev
FNA:4,0,_ZNSt3__117__compressed_pairIPPcRNS_9allocatorIS1_EEE6secondB8ne190102Ev
FNA:4,0,_ZNSt3__117__compressed_pairIPdNS_9allocatorIdEEE6secondB8ne190102Ev
FNA:4,29,_ZNSt3__117__compressed_pairIPiNS_9allocatorIiEEE6secondB8ne190102Ev
FNA:4,21,_ZNSt3__117__compressed_pairIPiRNS_9allocatorIiEEE6secondB8ne190102Ev
FNA:4,0,_ZNSt3__117__compressed_pairIPmNS_9allocatorImEEE6secondB8ne190102Ev
FNA:4,0,_ZNSt3__117__compressed_pairIPmRNS_9allocatorImEEE6secondB8ne190102Ev
FNA:4,0,_ZNSt3__117__compressed_pairIfNS_21__unordered_map_equalINS_12basic_stringIcNS_11char_traitsIcEENS_9allocatorIcEEEENS_17__hash_value_typeIS7_PN7testing9TestSuiteEEENS_8equal_toIS7_EENS_4hashIS7_EELb1EEEE6secondB8ne190102Ev
FNA:4,4,_ZNSt3__117__compressed_pairIfNS_8equal_toINS_12basic_stringIcNS_11char_traitsIcEENS_9allocatorIcEEEEEEE6secondB8ne190102Ev
FNA:4,0,_ZNSt3__117__compressed_pairImNS_19__map_value_compareINS_12basic_stringIcNS_11char_traitsIcEENS_9allocatorIcEEEENS_12__value_typeIS7_N7testing8internal34TypeParameterizedTestSuiteRegistry30TypeParameterizedTestSuiteInfoEEENS_4lessIS7_EELb1EEEE6secondB8ne190102Ev
FNA:4,0,_ZNSt3__117__compressed_pairImNS_19__map_value_compareINS_12basic_stringIcNS_11char_traitsIcEENS_9allocatorIcEEEENS_12__value_typeIS7_mEENS_4lessIS7_EELb1EEEE6secondB8ne190102Ev
FNA:4,8,_ZNSt3__117__compressed_pairImNS_22__unordered_map_hasherINS_12basic_stringIcNS_11char_traitsIcEENS_9allocatorIcEEEENS_17__hash_value_typeIS7_PN7testing9TestSuiteEEENS_4hashIS7_EENS_8equal_toIS7_EELb1EEEE6secondB8ne190102Ev
FNA:4,4,_ZNSt3__117__compressed_pairImNS_4hashINS_12basic_stringIcNS_11char_traitsIcEENS_9allocatorIcEEEEEEE6secondB8ne190102Ev
FNA:4,0,_ZNSt3__117__compressed_pairImNS_4lessINS_12basic_stringIcNS_11char_traitsIcEENS_9allocatorIcEEEEEEE6secondB8ne190102Ev
FNA:4,0,_ZNSt3__117__compressed_pairImNS_9allocatorINS_11__list_nodeINS_4pairIcPKcEEPvEEEEE6secondB8ne190102Ev
FNA:4,4,_ZNSt3__117__compressed_pairImNS_9allocatorIPNS_16__hash_node_baseIPNS_11__hash_nodeINS_12basic_stringIcNS_11char_traitsIcEENS1_IcEEEEPvEEEEEEE6secondB8ne190102Ev
FNA:4,3,_ZNSt3__117__compressed_pairImNS_9allocatorIPNS_16__hash_node_baseIPNS_11__hash_nodeINS_17__hash_value_typeINS_12basic_stringIcNS_11char_traitsIcEENS1_IcEEEEPN7testing9TestSuiteEEEPvEEEEEEE6secondB8ne190102Ev
FNA:4,0,_ZNSt3__117__compressed_pairImNS_9allocatorIPNS_16__hash_node_baseIPNS_11__hash_nodeINS_17__hash_value_typeINS_12basic_stringIcNS_11char_traitsIcEENS1_IcEEEEmEEPvEEEEEEE6secondB8ne190102Ev
FNL:5,141,142
FNA:5,26,_ZNKSt3__117__compressed_pairINS_12basic_stringIcNS_11char_traitsIcEENS_9allocatorIcEEE5__repES5_E6secondB8ne190102Ev
FNA:5,0,_ZNKSt3__117__compressed_pairIPN7testing12TestPropertyENS_9allocatorIS2_EEE6secondB8ne190102Ev
FNA:5,0,_ZNKSt3__117__compressed_pairIPN7testing14TestPartResultENS_9allocatorIS2_EEE6secondB8ne190102Ev
FNA:5,0,_ZNKSt3__117__compressed_pairIPN7testing8internal13edit_distance8EditTypeENS_9allocatorIS4_EEE6secondB8ne190102Ev
FNA:5,0,_ZNKSt3__117__compressed_pairIPN7testing8internal9TraceInfoENS_9allocatorIS3_EEE6secondB8ne190102Ev
FNA:5,25,_ZNKSt3__117__compressed_pairIPNS_12basic_stringIcNS_11char_traitsIcEENS_9allocatorIcEEEENS4_IS6_EEE6secondB8ne190102Ev
FNA:5,0,_ZNKSt3__117__compressed_pairIPNS_6vectorIN7testing8internal13edit_distance8EditTypeENS_9allocatorIS5_EEEENS6_IS8_EEE6secondB8ne190102Ev
FNA:5,0,_ZNKSt3__117__compressed_pairIPNS_6vectorIdNS_9allocatorIdEEEENS2_IS4_EEE6secondB8ne190102Ev
FNA:5,0,_ZNKSt3__117__compressed_pairIPPN7testing11EnvironmentENS_9allocatorIS3_EEE6secondB8ne190102Ev
FNA:5,1,_ZNKSt3__117__compressed_pairIPPN7testing17TestEventListenerENS_9allocatorIS3_EEE6secondB8ne190102Ev
FNA:5,10,_ZNKSt3__117__compressed_pairIPPN7testing8TestInfoENS_9allocatorIS3_EEE6secondB8ne190102Ev
FNA:5,3,_ZNKSt3__117__compressed_pairIPPN7testing9TestSuiteENS_9allocatorIS3_EEE6secondB8ne190102Ev
FNA:5,54,_ZNKSt3__117__compressed_pairIPPNS_16__hash_node_baseIPNS_11__hash_nodeINS_12basic_stringIcNS_11char_traitsIcEENS_9allocatorIcEEEEPvEEEENS_25__bucket_list_deallocatorINS6_ISD_EEEEE6secondB8ne190102Ev
FNA:5,12,_ZNKSt3__117__compressed_pairIPPNS_16__hash_node_baseIPNS_11__hash_nodeINS_17__hash_value_typeINS_12basic_stringIcNS_11char_traitsIcEENS_9allocatorIcEEEEPN7testing9TestSuiteEEEPvEEEENS_25__bucket_list_deallocatorINS7_ISI_EEEEE6secondB8ne190102Ev
FNA:5,0,_ZNKSt3__117__compressed_pairIPPcNS_9allocatorIS1_EEE6secondB8ne190102Ev
FNA:5,0,_ZNKSt3__117__compressed_pairIPdNS_9allocatorIdEEE6secondB8ne190102Ev
FNA:5,13,_ZNKSt3__117__compressed_pairIPiNS_9allocatorIiEEE6secondB8ne190102Ev
FNA:5,0,_ZNKSt3__117__compressed_pairIPmNS_9allocatorImEEE6secondB8ne190102Ev
FNA:5,0,_ZNKSt3__117__compressed_pairIfNS_8equal_toINS_12basic_stringIcNS_11char_traitsIcEENS_9allocatorIcEEEEEEE6secondB8ne190102Ev
FNA:5,0,_ZNKSt3__117__compressed_pairImNS_19__map_value_compareINS_12basic_stringIcNS_11char_traitsIcEENS_9allocatorIcEEEENS_12__value_typeIS7_N7testing8internal12CodeLocationEEENS_4lessIvEELb1EEEE6secondB8ne190102Ev
FNA:5,54,_ZNKSt3__117__compressed_pairImNS_4hashINS_12basic_stringIcNS_11char_traitsIcEENS_9allocatorIcEEEEEEE6secondB8ne190102Ev
FNA:5,0,_ZNKSt3__117__compressed_pairImNS_4lessINS_12basic_stringIcNS_11char_traitsIcEENS_9allocatorIcEEEEEEE6secondB8ne190102Ev
FNL:6,152,157
FNA:6,0,_ZNSt3__117__compressed_pairIPNS_12basic_stringIcNS_11char_traitsIcEENS_9allocatorIcEEEENS_14default_deleteIS6_EEE4swapB8ne190102ERSA_
FNL:7,48,48
FNA:7,92,_ZNSt3__122__compressed_pair_elemINS_12basic_stringIcNS_11char_traitsIcEENS_9allocatorIcEEE5__repELi0ELb0EEC2B8ne190102ENS_18__default_init_tagE
FNA:7,0,_ZNSt3__122__compressed_pair_elemINS_12basic_stringIwNS_11char_traitsIwEENS_9allocatorIwEEE5__repELi0ELb0EEC2B8ne190102ENS_18__default_init_tagE
FNL:8,49,49
FNA:8,228,_ZNSt3__122__compressed_pair_elemINS_12basic_stringIcNS_11char_traitsIcEENS_9allocatorIcEEE5__repELi0ELb0EEC2B8ne190102ENS_16__value_init_tagE
FNA:8,2,_ZNSt3__122__compressed_pair_elemINS_15__tree_end_nodeIPNS_16__tree_node_baseIPvEEEELi0ELb0EEC2B8ne190102ENS_16__value_init_tagE
FNA:8,11,_ZNSt3__122__compressed_pair_elemINS_16__hash_node_baseIPNS_11__hash_nodeINS_12basic_stringIcNS_11char_traitsIcEENS_9allocatorIcEEEEPvEEEELi0ELb0EEC2B8ne190102ENS_16__value_init_tagE
FNA:8,1,_ZNSt3__122__compressed_pair_elemINS_16__hash_node_baseIPNS_11__hash_nodeINS_17__hash_value_typeINS_12basic_stringIcNS_11char_traitsIcEENS_9allocatorIcEEEEPN7testing9TestSuiteEEEPvEEEELi0ELb0EEC2B8ne190102ENS_16__value_init_tagE
FNA:8,1,_ZNSt3__122__compressed_pair_elemINS_16__hash_node_baseIPNS_11__hash_nodeINS_17__hash_value_typeINS_12basic_stringIcNS_11char_traitsIcEENS_9allocatorIcEEEEmEEPvEEEELi0ELb0EEC2B8ne190102ENS_16__value_init_tagE
FNA:8,11,_ZNSt3__122__compressed_pair_elemINS_25__bucket_list_deallocatorINS_9allocatorIPNS_16__hash_node_baseIPNS_11__hash_nodeINS_12basic_stringIcNS_11char_traitsIcEENS2_IcEEEEPvEEEEEEEELi1ELb0EEC2B8ne190102ENS_16__value_init_tagE
FNA:8,1,_ZNSt3__122__compressed_pair_elemINS_25__bucket_list_deallocatorINS_9allocatorIPNS_16__hash_node_baseIPNS_11__hash_nodeINS_17__hash_value_typeINS_12basic_stringIcNS_11char_traitsIcEENS2_IcEEEEPN7testing9TestSuiteEEEPvEEEEEEEELi1ELb0EEC2B8ne190102ENS_16__value_init_tagE
FNA:8,1,_ZNSt3__122__compressed_pair_elemINS_25__bucket_list_deallocatorINS_9allocatorIPNS_16__hash_node_baseIPNS_11__hash_nodeINS_17__hash_value_typeINS_12basic_stringIcNS_11char_traitsIcEENS2_IcEEEEmEEPvEEEEEEEELi1ELb0EEC2B8ne190102ENS_16__value_init_tagE
FNA:8,1,_ZNSt3__122__compressed_pair_elemIPN7testing8internal24InternalRunDeathTestFlagELi0ELb0EEC2B8ne190102ENS_16__value_init_tagE
FNA:8,12,_ZNSt3__122__compressed_pair_elemIPNS_12basic_stringIcNS_11char_traitsIcEENS_9allocatorIcEEEELi0ELb0EEC2B8ne190102ENS_16__value_init_tagE
FNA:8,4,_ZNSt3__122__compressed_pair_elemIPPN7testing8TestInfoELi0ELb0EEC2B8ne190102ENS_16__value_init_tagE
FNA:8,11,_ZNSt3__122__compressed_pair_elemIPPNS_16__hash_node_baseIPNS_11__hash_nodeINS_12basic_stringIcNS_11char_traitsIcEENS_9allocatorIcEEEEPvEEEELi0ELb0EEC2B8ne190102ENS_16__value_init_tagE
FNA:8,1,_ZNSt3__122__compressed_pair_elemIPPNS_16__hash_node_baseIPNS_11__hash_nodeINS_17__hash_value_typeINS_12basic_stringIcNS_11char_traitsIcEENS_9allocatorIcEEEEPN7testing9TestSuiteEEEPvEEEELi0ELb0EEC2B8ne190102ENS_16__value_init_tagE
FNA:8,1,_ZNSt3__122__compressed_pair_elemIPPNS_16__hash_node_baseIPNS_11__hash_nodeINS_17__hash_value_typeINS_12basic_stringIcNS_11char_traitsIcEENS_9allocatorIcEEEEmEEPvEEEELi0ELb0EEC2B8ne190102ENS_16__value_init_tagE
FNL:9,52,53
FNA:9,0,_ZNSt3__122__compressed_pair_elemINS_22__hash_node_destructorINS_9allocatorINS_11__hash_nodeINS_12basic_stringIcNS_11char_traitsIcEENS2_IcEEEEPvEEEEEELi1ELb0EEC2B8ne190102ISC_Li0EEEOT_
FNA:9,4,_ZNSt3__122__compressed_pair_elemINS_22__hash_node_destructorINS_9allocatorINS_11__hash_nodeINS_17__hash_value_typeINS_12basic_stringIcNS_11char_traitsIcEENS2_IcEEEEPN7testing9TestSuiteEEEPvEEEEEELi1ELb0EEC2B8ne190102ISH_Li0EEEOT_
FNA:9,0,_ZNSt3__122__compressed_pair_elemINS_22__tree_node_destructorINS_9allocatorINS_11__tree_nodeINS_12__value_typeINS_12basic_stringIcNS_11char_traitsIcEENS2_IcEEEEN7testing8internal34TypeParameterizedTestSuiteRegistry30TypeParameterizedTestSuiteInfoEEEPvEEEEEELi1ELb0EEC2B8ne190102ISI_Li0EEEOT_
FNA:9,0,_ZNSt3__122__compressed_pair_elemINS_22__tree_node_destructorINS_9allocatorINS_11__tree_nodeINS_12__value_typeINS_12basic_stringIcNS_11char_traitsIcEENS2_IcEEEEmEEPvEEEEEELi1ELb0EEC2B8ne190102ISE_Li0EEEOT_
FNA:9,0,_ZNSt3__122__compressed_pair_elemINS_22__tree_node_destructorINS_9allocatorINS_11__tree_nodeINS_12basic_stringIcNS_11char_traitsIcEENS2_IcEEEEPvEEEEEELi1ELb0EEC2B8ne190102ISC_Li0EEEOT_
FNA:9,28,_ZNSt3__122__compressed_pair_elemIPKNS_12basic_stringIcNS_11char_traitsIcEENS_9allocatorIcEEEELi0ELb0EEC2B8ne190102IRS8_Li0EEEOT_
FNA:9,17,_ZNSt3__122__compressed_pair_elemIPN7testing12TestPropertyELi0ELb0EEC2B8ne190102IDnLi0EEEOT_
FNA:9,17,_ZNSt3__122__compressed_pair_elemIPN7testing14TestPartResultELi0ELb0EEC2B8ne190102IDnLi0EEEOT_
FNA:9,1,_ZNSt3__122__compressed_pair_elemIPN7testing8internal11ThreadLocalINS_6vectorINS2_9TraceInfoENS_9allocatorIS5_EEEEE18ValueHolderFactoryELi0ELb0EEC2B8ne190102IRSB_Li0EEEOT_
FNA:9,1,_ZNSt3__122__compressed_pair_elemIPN7testing8internal11ThreadLocalIPNS1_31TestPartResultReporterInterfaceEE18ValueHolderFactoryELi0ELb0EEC2B8ne190102IRS8_Li0EEEOT_
FNA:9,0,_ZNSt3__122__compressed_pair_elemIPN7testing8internal13edit_distance8EditTypeELi0ELb0EEC2B8ne190102IDnLi0EEEOT_
FNA:9,12,_ZNSt3__122__compressed_pair_elemIPN7testing8internal14GTestFlagSaverELi0ELb0EEC2B8ne190102IRS4_Li0EEEOT_
FNA:9,1,_ZNSt3__122__compressed_pair_elemIPN7testing8internal16DeathTestFactoryELi0ELb0EEC2B8ne190102IRS4_Li0EEEOT_
FNA:9,0,_ZNSt3__122__compressed_pair_elemIPN7testing8internal17StreamingListener20AbstractSocketWriterELi0ELb0EEC2B8ne190102IRS5_Li0EEEOT_
FNA:9,0,_ZNSt3__122__compressed_pair_elemIPN7testing8internal9TraceInfoELi0ELb0EEC2B8ne190102IDnLi0EEEOT_
FNA:9,0,_ZNSt3__122__compressed_pair_elemIPNS_11__hash_nodeINS_12basic_stringIcNS_11char_traitsIcEENS_9allocatorIcEEEEPvEELi0ELb0EEC2B8ne190102IRSA_Li0EEEOT_
FNA:9,4,_ZNSt3__122__compressed_pair_elemIPNS_11__hash_nodeINS_17__hash_value_typeINS_12basic_stringIcNS_11char_traitsIcEENS_9allocatorIcEEEEPN7testing9TestSuiteEEEPvEELi0ELb0EEC2B8ne190102IRSF_Li0EEEOT_
FNA:9,0,_ZNSt3__122__compressed_pair_elemIPNS_11__tree_nodeINS_12__value_typeINS_12basic_stringIcNS_11char_traitsIcEENS_9allocatorIcEEEEN7testing8internal34TypeParameterizedTestSuiteRegistry30TypeParameterizedTestSuiteInfoEEEPvEELi0ELb0EEC2B8ne190102IRSG_Li0EEEOT_
FNA:9,0,_ZNSt3__122__compressed_pair_elemIPNS_11__tree_nodeINS_12__value_typeINS_12basic_stringIcNS_11char_traitsIcEENS_9allocatorIcEEEEmEEPvEELi0ELb0EEC2B8ne190102IRSC_Li0EEEOT_
FNA:9,0,_ZNSt3__122__compressed_pair_elemIPNS_11__tree_nodeINS_12basic_stringIcNS_11char_traitsIcEENS_9allocatorIcEEEEPvEELi0ELb0EEC2B8ne190102IRSA_Li0EEEOT_
FNA:9,54,_ZNSt3__122__compressed_pair_elemIPNS_12basic_stringIcNS_11char_traitsIcEENS_9allocatorIcEEEELi0ELb0EEC2B8ne190102IDnLi0EEEOT_
FNA:9,0,_ZNSt3__122__compressed_pair_elemIPNS_12basic_stringIcNS_11char_traitsIcEENS_9allocatorIcEEEELi0ELb0EEC2B8ne190102IRS7_Li0EEEOT_
FNA:9,77,_ZNSt3__122__compressed_pair_elemIPNS_18basic_stringstreamIcNS_11char_traitsIcEENS_9allocatorIcEEEELi0ELb0EEC2B8ne190102IRS7_Li0EEEOT_
FNA:9,0,_ZNSt3__122__compressed_pair_elemIPNS_6vectorIN7testing8internal13edit_distance8EditTypeENS_9allocatorIS5_EEEELi0ELb0EEC2B8ne190102IDnLi0EEEOT_
FNA:9,0,_ZNSt3__122__compressed_pair_elemIPNS_6vectorIdNS_9allocatorIdEEEELi0ELb0EEC2B8ne190102IDnLi0EEEOT_
FNA:9,1,_ZNSt3__122__compressed_pair_elemIPPN7testing11EnvironmentELi0ELb0EEC2B8ne190102IDnLi0EEEOT_
FNA:9,2,_ZNSt3__122__compressed_pair_elemIPPN7testing17TestEventListenerELi0ELb0EEC2B8ne190102IDnLi0EEEOT_
FNA:9,14,_ZNSt3__122__compressed_pair_elemIPPN7testing8TestInfoELi0ELb0EEC2B8ne190102IDnLi0EEEOT_
FNA:9,0,_ZNSt3__122__compressed_pair_elemIPPN7testing8TestInfoELi0ELb0EEC2B8ne190102IRS4_Li0EEEOT_
FNA:9,1,_ZNSt3__122__compressed_pair_elemIPPN7testing8internal30ParameterizedTestSuiteInfoBaseELi0ELb0EEC2B8ne190102IDnLi0EEEOT_
FNA:9,4,_ZNSt3__122__compressed_pair_elemIPPN7testing9TestSuiteELi0ELb0EEC2B8ne190102IDnLi0EEEOT_
FNA:9,0,_ZNSt3__122__compressed_pair_elemIPPcLi0ELb0EEC2B8ne190102IDnLi0EEEOT_
FNA:9,0,_ZNSt3__122__compressed_pair_elemIPdLi0ELb0EEC2B8ne190102IDnLi0EEEOT_
FNA:9,18,_ZNSt3__122__compressed_pair_elemIPiLi0ELb0EEC2B8ne190102IDnLi0EEEOT_
FNA:9,0,_ZNSt3__122__compressed_pair_elemIPmLi0ELb0EEC2B8ne190102IDnLi0EEEOT_
FNA:9,0,_ZNSt3__122__compressed_pair_elemIRNS_12__destruct_nELi1ELb0EEC2B8ne190102IS2_Li0EEEOT_
FNA:9,0,_ZNSt3__122__compressed_pair_elemIRNS_9allocatorIN7testing12TestPropertyEEELi1ELb0EEC2B8ne190102IS5_Li0EEEOT_
FNA:9,0,_ZNSt3__122__compressed_pair_elemIRNS_9allocatorIN7testing14TestPartResultEEELi1ELb0EEC2B8ne190102IS5_Li0EEEOT_
FNA:9,0,_ZNSt3__122__compressed_pair_elemIRNS_9allocatorIN7testing8internal13edit_distance8EditTypeEEELi1ELb0EEC2B8ne190102IS7_Li0EEEOT_
FNA:9,0,_ZNSt3__122__compressed_pair_elemIRNS_9allocatorIN7testing8internal9TraceInfoEEELi1ELb0EEC2B8ne190102IS6_Li0EEEOT_
FNA:9,22,_ZNSt3__122__compressed_pair_elemIRNS_9allocatorINS_12basic_stringIcNS_11char_traitsIcEENS1_IcEEEEEELi1ELb0EEC2B8ne190102IS8_Li0EEEOT_
FNA:9,0,_ZNSt3__122__compressed_pair_elemIRNS_9allocatorIPN7testing11EnvironmentEEELi1ELb0EEC2B8ne190102IS6_Li0EEEOT_
FNA:9,1,_ZNSt3__122__compressed_pair_elemIRNS_9allocatorIPN7testing17TestEventListenerEEELi1ELb0EEC2B8ne190102IS6_Li0EEEOT_
FNA:9,10,_ZNSt3__122__compressed_pair_elemIRNS_9allocatorIPN7testing8TestInfoEEELi1ELb0EEC2B8ne190102IS6_Li0EEEOT_
FNA:9,3,_ZNSt3__122__compressed_pair_elemIRNS_9allocatorIPN7testing9TestSuiteEEELi1ELb0EEC2B8ne190102IS6_Li0EEEOT_
FNA:9,0,_ZNSt3__122__compressed_pair_elemIRNS_9allocatorIPcEELi1ELb0EEC2B8ne190102IS4_Li0EEEOT_
FNA:9,13,_ZNSt3__122__compressed_pair_elemIRNS_9allocatorIiEELi1ELb0EEC2B8ne190102IS3_Li0EEEOT_
FNA:9,0,_ZNSt3__122__compressed_pair_elemIRNS_9allocatorImEELi1ELb0EEC2B8ne190102IS3_Li0EEEOT_
FNA:9,13,_ZNSt3__122__compressed_pair_elemIfLi0ELb0EEC2B8ne190102IfLi0EEEOT_
FNA:9,28,_ZNSt3__122__compressed_pair_elemImLi0ELb0EEC2B8ne190102IiLi0EEEOT_
FNL:10,62,62
FNA:10,290,_ZNSt3__122__compressed_pair_elemINS_12basic_stringIcNS_11char_traitsIcEENS_9allocatorIcEEE5__repELi0ELb0EE5__getB8ne190102Ev
FNA:10,3,_ZNSt3__122__compressed_pair_elemINS_15__tree_end_nodeIPNS_16__tree_node_baseIPvEEEELi0ELb0EE5__getB8ne190102Ev
FNA:10,22,_ZNSt3__122__compressed_pair_elemINS_16__hash_node_baseIPNS_11__hash_nodeINS_12basic_stringIcNS_11char_traitsIcEENS_9allocatorIcEEEEPvEEEELi0ELb0EE5__getB8ne190102Ev
FNA:10,5,_ZNSt3__122__compressed_pair_elemINS_16__hash_node_baseIPNS_11__hash_nodeINS_17__hash_value_typeINS_12basic_stringIcNS_11char_traitsIcEENS_9allocatorIcEEEEPN7testing9TestSuiteEEEPvEEEELi0ELb0EE5__getB8ne190102Ev
FNA:10,0,_ZNSt3__122__compressed_pair_elemINS_16__hash_node_baseIPNS_11__hash_nodeINS_17__hash_value_typeINS_12basic_stringIcNS_11char_traitsIcEENS_9allocatorIcEEEEmEEPvEEEELi0ELb0EE5__getB8ne190102Ev
FNA:10,0,_ZNSt3__122__compressed_pair_elemINS_22__hash_node_destructorINS_9allocatorINS_11__hash_nodeINS_12basic_stringIcNS_11char_traitsIcEENS2_IcEEEEPvEEEEEELi1ELb0EE5__getB8ne190102Ev
FNA:10,4,_ZNSt3__122__compressed_pair_elemINS_22__hash_node_destructorINS_9allocatorINS_11__hash_nodeINS_17__hash_value_typeINS_12basic_stringIcNS_11char_traitsIcEENS2_IcEEEEPN7testing9TestSuiteEEEPvEEEEEELi1ELb0EE5__getB8ne190102Ev
FNA:10,0,_ZNSt3__122__compressed_pair_elemINS_22__tree_node_destructorINS_9allocatorINS_11__tree_nodeINS_12__value_typeINS_12basic_stringIcNS_11char_traitsIcEENS2_IcEEEEN7testing8internal34TypeParameterizedTestSuiteRegistry30TypeParameterizedTestSuiteInfoEEEPvEEEEEELi1ELb0EE5__getB8ne190102Ev
FNA:10,0,_ZNSt3__122__compressed_pair_elemINS_22__tree_node_destructorINS_9allocatorINS_11__tree_nodeINS_12__value_typeINS_12basic_stringIcNS_11char_traitsIcEENS2_IcEEEEmEEPvEEEEEELi1ELb0EE5__getB8ne190102Ev
FNA:10,0,_ZNSt3__122__compressed_pair_elemINS_22__tree_node_destructorINS_9allocatorINS_11__tree_nodeINS_12basic_stringIcNS_11char_traitsIcEENS2_IcEEEEPvEEEEEELi1ELb0EE5__getB8ne190102Ev
FNA:10,10,_ZNSt3__122__compressed_pair_elemINS_25__bucket_list_deallocatorINS_9allocatorIPNS_16__hash_node_baseIPNS_11__hash_nodeINS_12basic_stringIcNS_11char_traitsIcEENS2_IcEEEEPvEEEEEEEELi1ELb0EE5__getB8ne190102Ev
FNA:10,5,_ZNSt3__122__compressed_pair_elemINS_25__bucket_list_deallocatorINS_9allocatorIPNS_16__hash_node_baseIPNS_11__hash_nodeINS_17__hash_value_typeINS_12basic_stringIcNS_11char_traitsIcEENS2_IcEEEEPN7testing9TestSuiteEEEPvEEEEEEEELi1ELb0EE5__getB8ne190102Ev
FNA:10,0,_ZNSt3__122__compressed_pair_elemINS_25__bucket_list_deallocatorINS_9allocatorIPNS_16__hash_node_baseIPNS_11__hash_nodeINS_17__hash_value_typeINS_12basic_stringIcNS_11char_traitsIcEENS2_IcEEEEmEEPvEEEEEEEELi1ELb0EE5__getB8ne190102Ev
FNA:10,0,_ZNSt3__122__compressed_pair_elemIPKNS_12basic_stringIcNS_11char_traitsIcEENS_9allocatorIcEEEELi0ELb0EE5__getB8ne190102Ev
FNA:10,0,_ZNSt3__122__compressed_pair_elemIPN7testing12TestPropertyELi0ELb0EE5__getB8ne190102Ev
FNA:10,0,_ZNSt3__122__compressed_pair_elemIPN7testing14TestPartResultELi0ELb0EE5__getB8ne190102Ev
FNA:10,0,_ZNSt3__122__compressed_pair_elemIPN7testing8internal11ThreadLocalINS_6vectorINS2_9TraceInfoENS_9allocatorIS5_EEEEE18ValueHolderFactoryELi0ELb0EE5__getB8ne190102Ev
FNA:10,0,_ZNSt3__122__compressed_pair_elemIPN7testing8internal11ThreadLocalIPNS1_31TestPartResultReporterInterfaceEE18ValueHolderFactoryELi0ELb0EE5__getB8ne190102Ev
FNA:10,0,_ZNSt3__122__compressed_pair_elemIPN7testing8internal13edit_distance8EditTypeELi0ELb0EE5__getB8ne190102Ev
FNA:10,24,_ZNSt3__122__compressed_pair_elemIPN7testing8internal14GTestFlagSaverELi0ELb0EE5__getB8ne190102Ev
FNA:10,0,_ZNSt3__122__compressed_pair_elemIPN7testing8internal16DeathTestFactoryELi0ELb0EE5__getB8ne190102Ev
FNA:10,0,_ZNSt3__122__compressed_pair_elemIPN7testing8internal17StreamingListener20AbstractSocketWriterELi0ELb0EE5__getB8ne190102Ev
FNA:10,2,_ZNSt3__122__compressed_pair_elemIPN7testing8internal24InternalRunDeathTestFlagELi0ELb0EE5__getB8ne190102Ev
FNA:10,0,_ZNSt3__122__compressed_pair_elemIPN7testing8internal9TraceInfoELi0ELb0EE5__getB8ne190102Ev
FNA:10,0,_ZNSt3__122__compressed_pair_elemIPNS_11__hash_nodeINS_12basic_stringIcNS_11char_traitsIcEENS_9allocatorIcEEEEPvEELi0ELb0EE5__getB8ne190102Ev
FNA:10,16,_ZNSt3__122__compressed_pair_elemIPNS_11__hash_nodeINS_17__hash_value_typeINS_12basic_stringIcNS_11char_traitsIcEENS_9allocatorIcEEEEPN7testing9TestSuiteEEEPvEELi0ELb0EE5__getB8ne190102Ev
FNA:10,0,_ZNSt3__122__compressed_pair_elemIPNS_11__tree_nodeINS_12__value_typeINS_12basic_stringIcNS_11char_traitsIcEENS_9allocatorIcEEEEN7testing8internal34TypeParameterizedTestSuiteRegistry30TypeParameterizedTestSuiteInfoEEEPvEELi0ELb0EE5__getB8ne190102Ev
FNA:10,0,_ZNSt3__122__compressed_pair_elemIPNS_11__tree_nodeINS_12__value_typeINS_12basic_stringIcNS_11char_traitsIcEENS_9allocatorIcEEEEmEEPvEELi0ELb0EE5__getB8ne190102Ev
FNA:10,0,_ZNSt3__122__compressed_pair_elemIPNS_11__tree_nodeINS_12basic_stringIcNS_11char_traitsIcEENS_9allocatorIcEEEEPvEELi0ELb0EE5__getB8ne190102Ev
FNA:10,142,_ZNSt3__122__compressed_pair_elemIPNS_12basic_stringIcNS_11char_traitsIcEENS_9allocatorIcEEEELi0ELb0EE5__getB8ne190102Ev
FNA:10,154,_ZNSt3__122__compressed_pair_elemIPNS_18basic_stringstreamIcNS_11char_traitsIcEENS_9allocatorIcEEEELi0ELb0EE5__getB8ne190102Ev
FNA:10,0,_ZNSt3__122__compressed_pair_elemIPNS_6vectorIN7testing8internal13edit_distance8EditTypeENS_9allocatorIS5_EEEELi0ELb0EE5__getB8ne190102Ev
FNA:10,0,_ZNSt3__122__compressed_pair_elemIPNS_6vectorIdNS_9allocatorIdEEEELi0ELb0EE5__getB8ne190102Ev
FNA:10,0,_ZNSt3__122__compressed_pair_elemIPPN7testing11EnvironmentELi0ELb0EE5__getB8ne190102Ev
FNA:10,4,_ZNSt3__122__compressed_pair_elemIPPN7testing17TestEventListenerELi0ELb0EE5__getB8ne190102Ev
FNA:10,50,_ZNSt3__122__compressed_pair_elemIPPN7testing8TestInfoELi0ELb0EE5__getB8ne190102Ev
FNA:10,13,_ZNSt3__122__compressed_pair_elemIPPN7testing9TestSuiteELi0ELb0EE5__getB8ne190102Ev
FNA:10,30,_ZNSt3__122__compressed_pair_elemIPPNS_16__hash_node_baseIPNS_11__hash_nodeINS_12basic_stringIcNS_11char_traitsIcEENS_9allocatorIcEEEEPvEEEELi0ELb0EE5__getB8ne190102Ev
FNA:10,4,_ZNSt3__122__compressed_pair_elemIPPNS_16__hash_node_baseIPNS_11__hash_nodeINS_17__hash_value_typeINS_12basic_stringIcNS_11char_traitsIcEENS_9allocatorIcEEEEPN7testing9TestSuiteEEEPvEEEELi0ELb0EE5__getB8ne190102Ev
FNA:10,0,_ZNSt3__122__compressed_pair_elemIPPNS_16__hash_node_baseIPNS_11__hash_nodeINS_17__hash_value_typeINS_12basic_stringIcNS_11char_traitsIcEENS_9allocatorIcEEEEmEEPvEEEELi0ELb0EE5__getB8ne190102Ev
FNA:10,0,_ZNSt3__122__compressed_pair_elemIPPcLi0ELb0EE5__getB8ne190102Ev
FNA:10,0,_ZNSt3__122__compressed_pair_elemIPdLi0ELb0EE5__getB8ne190102Ev
FNA:10,55,_ZNSt3__122__compressed_pair_elemIPiLi0ELb0EE5__getB8ne190102Ev
FNA:10,0,_ZNSt3__122__compressed_pair_elemIPmLi0ELb0EE5__getB8ne190102Ev
FNA:10,0,_ZNSt3__122__compressed_pair_elemIRNS_12__destruct_nELi1ELb0EE5__getB8ne190102Ev
FNA:10,0,_ZNSt3__122__compressed_pair_elemIRNS_9allocatorIN7testing12TestPropertyEEELi1ELb0EE5__getB8ne190102Ev
FNA:10,0,_ZNSt3__122__compressed_pair_elemIRNS_9allocatorIN7testing14TestPartResultEEELi1ELb0EE5__getB8ne190102Ev
FNA:10,0,_ZNSt3__122__compressed_pair_elemIRNS_9allocatorIN7testing8internal13edit_distance8EditTypeEEELi1ELb0EE5__getB8ne190102Ev
FNA:10,0,_ZNSt3__122__compressed_pair_elemIRNS_9allocatorIN7testing8internal9TraceInfoEEELi1ELb0EE5__getB8ne190102Ev
FNA:10,27,_ZNSt3__122__compressed_pair_elemIRNS_9allocatorINS_12basic_stringIcNS_11char_traitsIcEENS1_IcEEEEEELi1ELb0EE5__getB8ne190102Ev
FNA:10,0,_ZNSt3__122__compressed_pair_elemIRNS_9allocatorIPN7testing11EnvironmentEEELi1ELb0EE5__getB8ne190102Ev
FNA:10,1,_ZNSt3__122__compressed_pair_elemIRNS_9allocatorIPN7testing17TestEventListenerEEELi1ELb0EE5__getB8ne190102Ev
FNA:10,16,_ZNSt3__122__compressed_pair_elemIRNS_9allocatorIPN7testing8TestInfoEEELi1ELb0EE5__getB8ne190102Ev
FNA:10,5,_ZNSt3__122__compressed_pair_elemIRNS_9allocatorIPN7testing9TestSuiteEEELi1ELb0EE5__getB8ne190102Ev
FNA:10,0,_ZNSt3__122__compressed_pair_elemIRNS_9allocatorIPcEELi1ELb0EE5__getB8ne190102Ev
FNA:10,21,_ZNSt3__122__compressed_pair_elemIRNS_9allocatorIiEELi1ELb0EE5__getB8ne190102Ev
FNA:10,0,_ZNSt3__122__compressed_pair_elemIRNS_9allocatorImEELi1ELb0EE5__getB8ne190102Ev
FNA:10,10,_ZNSt3__122__compressed_pair_elemIfLi0ELb0EE5__getB8ne190102Ev
FNA:10,27,_ZNSt3__122__compressed_pair_elemImLi0ELb0EE5__getB8ne190102Ev
FNL:11,63,63
FNA:11,4674,_ZNKSt3__122__compressed_pair_elemINS_12basic_stringIcNS_11char_traitsIcEENS_9allocatorIcEEE5__repELi0ELb0EE5__getB8ne190102Ev
FNA:11,0,_ZNKSt3__122__compressed_pair_elemINS_12basic_stringIwNS_11char_traitsIwEENS_9allocatorIwEEE5__repELi0ELb0EE5__getB8ne190102Ev
FNA:11,0,_ZNKSt3__122__compressed_pair_elemINS_15__tree_end_nodeIPNS_16__tree_node_baseIPvEEEELi0ELb0EE5__getB8ne190102Ev
FNA:11,54,_ZNKSt3__122__compressed_pair_elemINS_25__bucket_list_deallocatorINS_9allocatorIPNS_16__hash_node_baseIPNS_11__hash_nodeINS_12basic_stringIcNS_11char_traitsIcEENS2_IcEEEEPvEEEEEEEELi1ELb0EE5__getB8ne190102Ev
FNA:11,12,_ZNKSt3__122__compressed_pair_elemINS_25__bucket_list_deallocatorINS_9allocatorIPNS_16__hash_node_baseIPNS_11__hash_nodeINS_17__hash_value_typeINS_12basic_stringIcNS_11char_traitsIcEENS2_IcEEEEPN7testing9TestSuiteEEEPvEEEEEEEELi1ELb0EE5__getB8ne190102Ev
FNA:11,16,_ZNKSt3__122__compressed_pair_elemIPKNS_12basic_stringIcNS_11char_traitsIcEENS_9allocatorIcEEEELi0ELb0EE5__getB8ne190102Ev
FNA:11,0,_ZNKSt3__122__compressed_pair_elemIPN7testing12TestPropertyELi0ELb0EE5__getB8ne190102Ev
FNA:11,0,_ZNKSt3__122__compressed_pair_elemIPN7testing14TestPartResultELi0ELb0EE5__getB8ne190102Ev
FNA:11,0,_ZNKSt3__122__compressed_pair_elemIPN7testing8internal11ThreadLocalINS_6vectorINS2_9TraceInfoENS_9allocatorIS5_EEEEE18ValueHolderFactoryELi0ELb0EE5__getB8ne190102Ev
FNA:11,0,_ZNKSt3__122__compressed_pair_elemIPN7testing8internal11ThreadLocalIPNS1_31TestPartResultReporterInterfaceEE18ValueHolderFactoryELi0ELb0EE5__getB8ne190102Ev
FNA:11,0,_ZNKSt3__122__compressed_pair_elemIPN7testing8internal13edit_distance8EditTypeELi0ELb0EE5__getB8ne190102Ev
FNA:11,0,_ZNKSt3__122__compressed_pair_elemIPN7testing8internal16DeathTestFactoryELi0ELb0EE5__getB8ne190102Ev
FNA:11,0,_ZNKSt3__122__compressed_pair_elemIPN7testing8internal17StreamingListener20AbstractSocketWriterELi0ELb0EE5__getB8ne190102Ev
FNA:11,2,_ZNKSt3__122__compressed_pair_elemIPN7testing8internal24InternalRunDeathTestFlagELi0ELb0EE5__getB8ne190102Ev
FNA:11,0,_ZNKSt3__122__compressed_pair_elemIPN7testing8internal9TraceInfoELi0ELb0EE5__getB8ne190102Ev
FNA:11,0,_ZNKSt3__122__compressed_pair_elemIPNS_11__hash_nodeINS_12basic_stringIcNS_11char_traitsIcEENS_9allocatorIcEEEEPvEELi0ELb0EE5__getB8ne190102Ev
FNA:11,23,_ZNKSt3__122__compressed_pair_elemIPNS_11__hash_nodeINS_17__hash_value_typeINS_12basic_stringIcNS_11char_traitsIcEENS_9allocatorIcEEEEPN7testing9TestSuiteEEEPvEELi0ELb0EE5__getB8ne190102Ev
FNA:11,0,_ZNKSt3__122__compressed_pair_elemIPNS_11__tree_nodeINS_12__value_typeINS_12basic_stringIcNS_11char_traitsIcEENS_9allocatorIcEEEEN7testing8internal34TypeParameterizedTestSuiteRegistry30TypeParameterizedTestSuiteInfoEEEPvEELi0ELb0EE5__getB8ne190102Ev
FNA:11,0,_ZNKSt3__122__compressed_pair_elemIPNS_11__tree_nodeINS_12__value_typeINS_12basic_stringIcNS_11char_traitsIcEENS_9allocatorIcEEEEmEEPvEELi0ELb0EE5__getB8ne190102Ev
FNA:11,0,_ZNKSt3__122__compressed_pair_elemIPNS_11__tree_nodeINS_12basic_stringIcNS_11char_traitsIcEENS_9allocatorIcEEEEPvEELi0ELb0EE5__getB8ne190102Ev
FNA:11,44,_ZNKSt3__122__compressed_pair_elemIPNS_12basic_stringIcNS_11char_traitsIcEENS_9allocatorIcEEEELi0ELb0EE5__getB8ne190102Ev
FNA:11,703,_ZNKSt3__122__compressed_pair_elemIPNS_18basic_stringstreamIcNS_11char_traitsIcEENS_9allocatorIcEEEELi0ELb0EE5__getB8ne190102Ev
FNA:11,0,_ZNKSt3__122__compressed_pair_elemIPNS_6vectorIN7testing8internal13edit_distance8EditTypeENS_9allocatorIS5_EEEELi0ELb0EE5__getB8ne190102Ev
FNA:11,0,_ZNKSt3__122__compressed_pair_elemIPNS_6vectorIdNS_9allocatorIdEEEELi0ELb0EE5__getB8ne190102Ev
FNA:11,0,_ZNKSt3__122__compressed_pair_elemIPPN7testing11EnvironmentELi0ELb0EE5__getB8ne190102Ev
FNA:11,1,_ZNKSt3__122__compressed_pair_elemIPPN7testing17TestEventListenerELi0ELb0EE5__getB8ne190102Ev
FNA:11,16,_ZNKSt3__122__compressed_pair_elemIPPN7testing8TestInfoELi0ELb0EE5__getB8ne190102Ev
FNA:11,0,_ZNKSt3__122__compressed_pair_elemIPPN7testing8internal30ParameterizedTestSuiteInfoBaseELi0ELb0EE5__getB8ne190102Ev
FNA:11,5,_ZNKSt3__122__compressed_pair_elemIPPN7testing9TestSuiteELi0ELb0EE5__getB8ne190102Ev
FNA:11,0,_ZNKSt3__122__compressed_pair_elemIPPNS_16__hash_node_baseIPNS_11__hash_nodeINS_12basic_stringIcNS_11char_traitsIcEENS_9allocatorIcEEEEPvEEEELi0ELb0EE5__getB8ne190102Ev
FNA:11,23,_ZNKSt3__122__compressed_pair_elemIPPNS_16__hash_node_baseIPNS_11__hash_nodeINS_17__hash_value_typeINS_12basic_stringIcNS_11char_traitsIcEENS_9allocatorIcEEEEPN7testing9TestSuiteEEEPvEEEELi0ELb0EE5__getB8ne190102Ev
FNA:11,0,_ZNKSt3__122__compressed_pair_elemIPPcLi0ELb0EE5__getB8ne190102Ev
FNA:11,0,_ZNKSt3__122__compressed_pair_elemIPdLi0ELb0EE5__getB8ne190102Ev
FNA:11,21,_ZNKSt3__122__compressed_pair_elemIPiLi0ELb0EE5__getB8ne190102Ev
FNA:11,0,_ZNKSt3__122__compressed_pair_elemIPmLi0ELb0EE5__getB8ne190102Ev
FNA:11,66,_ZNKSt3__122__compressed_pair_elemImLi0ELb0EE5__getB8ne190102Ev
FNL:12,77,77
FNA:12,1,_ZNSt3__122__compressed_pair_elemINS_21__unordered_map_equalINS_12basic_stringIcNS_11char_traitsIcEENS_9allocatorIcEEEENS_17__hash_value_typeIS7_PN7testing9TestSuiteEEENS_8equal_toIS7_EENS_4hashIS7_EELb1EEELi1ELb1EEC2B8ne190102ENS_18__default_init_tagE
FNA:12,1,_ZNSt3__122__compressed_pair_elemINS_21__unordered_map_equalINS_12basic_stringIcNS_11char_traitsIcEENS_9allocatorIcEEEENS_17__hash_value_typeIS7_mEENS_8equal_toIS7_EENS_4hashIS7_EELb1EEELi1ELb1EEC2B8ne190102ENS_18__default_init_tagE
FNA:12,1,_ZNSt3__122__compressed_pair_elemINS_22__unordered_map_hasherINS_12basic_stringIcNS_11char_traitsIcEENS_9allocatorIcEEEENS_17__hash_value_typeIS7_PN7testing9TestSuiteEEENS_4hashIS7_EENS_8equal_toIS7_EELb1EEELi1ELb1EEC2B8ne190102ENS_18__default_init_tagE
FNA:12,1,_ZNSt3__122__compressed_pair_elemINS_22__unordered_map_hasherINS_12basic_stringIcNS_11char_traitsIcEENS_9allocatorIcEEEENS_17__hash_value_typeIS7_mEENS_4hashIS7_EENS_8equal_toIS7_EELb1EEELi1ELb1EEC2B8ne190102ENS_18__default_init_tagE
FNA:12,11,_ZNSt3__122__compressed_pair_elemINS_4hashINS_12basic_stringIcNS_11char_traitsIcEENS_9allocatorIcEEEEEELi1ELb1EEC2B8ne190102ENS_18__default_init_tagE
FNA:12,11,_ZNSt3__122__compressed_pair_elemINS_8equal_toINS_12basic_stringIcNS_11char_traitsIcEENS_9allocatorIcEEEEEELi1ELb1EEC2B8ne190102ENS_18__default_init_tagE
FNA:12,17,_ZNSt3__122__compressed_pair_elemINS_9allocatorIN7testing12TestPropertyEEELi1ELb1EEC2B8ne190102ENS_18__default_init_tagE
FNA:12,17,_ZNSt3__122__compressed_pair_elemINS_9allocatorIN7testing14TestPartResultEEELi1ELb1EEC2B8ne190102ENS_18__default_init_tagE
FNA:12,0,_ZNSt3__122__compressed_pair_elemINS_9allocatorIN7testing8internal13edit_distance8EditTypeEEELi1ELb1EEC2B8ne190102ENS_18__default_init_tagE
FNA:12,0,_ZNSt3__122__compressed_pair_elemINS_9allocatorIN7testing8internal9TraceInfoEEELi1ELb1EEC2B8ne190102ENS_18__default_init_tagE
FNA:12,0,_ZNSt3__122__compressed_pair_elemINS_9allocatorINS_11__list_nodeINS_4pairIcPKcEEPvEEEELi1ELb1EEC2B8ne190102ENS_18__default_init_tagE
FNA:12,30,_ZNSt3__122__compressed_pair_elemINS_9allocatorINS_12basic_stringIcNS_11char_traitsIcEENS1_IcEEEEEELi1ELb1EEC2B8ne190102ENS_18__default_init_tagE
FNA:12,0,_ZNSt3__122__compressed_pair_elemINS_9allocatorINS_6vectorIN7testing8internal13edit_distance8EditTypeENS1_IS6_EEEEEELi1ELb1EEC2B8ne190102ENS_18__default_init_tagE
FNA:12,0,_ZNSt3__122__compressed_pair_elemINS_9allocatorINS_6vectorIdNS1_IdEEEEEELi1ELb1EEC2B8ne190102ENS_18__default_init_tagE
FNA:12,1,_ZNSt3__122__compressed_pair_elemINS_9allocatorIPN7testing11EnvironmentEEELi1ELb1EEC2B8ne190102ENS_18__default_init_tagE
FNA:12,1,_ZNSt3__122__compressed_pair_elemINS_9allocatorIPN7testing17TestEventListenerEEELi1ELb1EEC2B8ne190102ENS_18__default_init_tagE
FNA:12,4,_ZNSt3__122__compressed_pair_elemINS_9allocatorIPN7testing8TestInfoEEELi1ELb1EEC2B8ne190102ENS_18__default_init_tagE
FNA:12,1,_ZNSt3__122__compressed_pair_elemINS_9allocatorIPN7testing8internal30ParameterizedTestSuiteInfoBaseEEELi1ELb1EEC2B8ne190102ENS_18__default_init_tagE
FNA:12,1,_ZNSt3__122__compressed_pair_elemINS_9allocatorIPN7testing9TestSuiteEEELi1ELb1EEC2B8ne190102ENS_18__default_init_tagE
FNA:12,11,_ZNSt3__122__compressed_pair_elemINS_9allocatorIPNS_16__hash_node_baseIPNS_11__hash_nodeINS_12basic_stringIcNS_11char_traitsIcEENS1_IcEEEEPvEEEEEELi1ELb1EEC2B8ne190102ENS_18__default_init_tagE
FNA:12,1,_ZNSt3__122__compressed_pair_elemINS_9allocatorIPNS_16__hash_node_baseIPNS_11__hash_nodeINS_17__hash_value_typeINS_12basic_stringIcNS_11char_traitsIcEENS1_IcEEEEPN7testing9TestSuiteEEEPvEEEEEELi1ELb1EEC2B8ne190102ENS_18__default_init_tagE
FNA:12,1,_ZNSt3__122__compressed_pair_elemINS_9allocatorIPNS_16__hash_node_baseIPNS_11__hash_nodeINS_17__hash_value_typeINS_12basic_stringIcNS_11char_traitsIcEENS1_IcEEEEmEEPvEEEEEELi1ELb1EEC2B8ne190102ENS_18__default_init_tagE
FNA:12,0,_ZNSt3__122__compressed_pair_elemINS_9allocatorIPcEELi1ELb1EEC2B8ne190102ENS_18__default_init_tagE
FNA:12,307,_ZNSt3__122__compressed_pair_elemINS_9allocatorIcEELi1ELb1EEC2B8ne190102ENS_18__default_init_tagE
FNA:12,0,_ZNSt3__122__compressed_pair_elemINS_9allocatorIdEELi1ELb1EEC2B8ne190102ENS_18__default_init_tagE
FNA:12,5,_ZNSt3__122__compressed_pair_elemINS_9allocatorIiEELi1ELb1EEC2B8ne190102ENS_18__default_init_tagE
FNA:12,0,_ZNSt3__122__compressed_pair_elemINS_9allocatorImEELi1ELb1EEC2B8ne190102ENS_18__default_init_tagE
FNA:12,0,_ZNSt3__122__compressed_pair_elemINS_9allocatorIwEELi1ELb1EEC2B8ne190102ENS_18__default_init_tagE
FNL:13,78,78
FNA:13,28,_ZNSt3__122__compressed_pair_elemINS_14default_deleteIKNS_12basic_stringIcNS_11char_traitsIcEENS_9allocatorIcEEEEEELi1ELb1EEC2B8ne190102ENS_16__value_init_tagE
FNA:13,1,_ZNSt3__122__compressed_pair_elemINS_14default_deleteIN7testing8internal11ThreadLocalINS_6vectorINS3_9TraceInfoENS_9allocatorIS6_EEEEE18ValueHolderFactoryEEELi1ELb1EEC2B8ne190102ENS_16__value_init_tagE
FNA:13,1,_ZNSt3__122__compressed_pair_elemINS_14default_deleteIN7testing8internal11ThreadLocalIPNS2_31TestPartResultReporterInterfaceEE18ValueHolderFactoryEEELi1ELb1EEC2B8ne190102ENS_16__value_init_tagE
FNA:13,12,_ZNSt3__122__compressed_pair_elemINS_14default_deleteIN7testing8internal14GTestFlagSaverEEELi1ELb1EEC2B8ne190102ENS_16__value_init_tagE
FNA:13,1,_ZNSt3__122__compressed_pair_elemINS_14default_deleteIN7testing8internal16DeathTestFactoryEEELi1ELb1EEC2B8ne190102ENS_16__value_init_tagE
FNA:13,0,_ZNSt3__122__compressed_pair_elemINS_14default_deleteIN7testing8internal17StreamingListener20AbstractSocketWriterEEELi1ELb1EEC2B8ne190102ENS_16__value_init_tagE
FNA:13,1,_ZNSt3__122__compressed_pair_elemINS_14default_deleteIN7testing8internal24InternalRunDeathTestFlagEEELi1ELb1EEC2B8ne190102ENS_16__value_init_tagE
FNA:13,12,_ZNSt3__122__compressed_pair_elemINS_14default_deleteINS_12basic_stringIcNS_11char_traitsIcEENS_9allocatorIcEEEEEELi1ELb1EEC2B8ne190102ENS_16__value_init_tagE
FNA:13,77,_ZNSt3__122__compressed_pair_elemINS_14default_deleteINS_18basic_stringstreamIcNS_11char_traitsIcEENS_9allocatorIcEEEEEELi1ELb1EEC2B8ne190102ENS_16__value_init_tagE
FNA:13,4,_ZNSt3__122__compressed_pair_elemINS_25__return_temporary_bufferELi1ELb1EEC2B8ne190102ENS_16__value_init_tagE
FNA:13,11,_ZNSt3__122__compressed_pair_elemINS_9allocatorINS_11__hash_nodeINS_12basic_stringIcNS_11char_traitsIcEENS1_IcEEEEPvEEEELi1ELb1EEC2B8ne190102ENS_16__value_init_tagE
FNA:13,1,_ZNSt3__122__compressed_pair_elemINS_9allocatorINS_11__hash_nodeINS_17__hash_value_typeINS_12basic_stringIcNS_11char_traitsIcEENS1_IcEEEEPN7testing9TestSuiteEEEPvEEEELi1ELb1EEC2B8ne190102ENS_16__value_init_tagE
FNA:13,1,_ZNSt3__122__compressed_pair_elemINS_9allocatorINS_11__hash_nodeINS_17__hash_value_typeINS_12basic_stringIcNS_11char_traitsIcEENS1_IcEEEEmEEPvEEEELi1ELb1EEC2B8ne190102ENS_16__value_init_tagE
FNA:13,1,_ZNSt3__122__compressed_pair_elemINS_9allocatorINS_11__tree_nodeINS_12__value_typeINS_12basic_stringIcNS_11char_traitsIcEENS1_IcEEEEN7testing8internal34TypeParameterizedTestSuiteRegistry30TypeParameterizedTestSuiteInfoEEEPvEEEELi1ELb1EEC2B8ne190102ENS_16__value_init_tagE
FNA:13,0,_ZNSt3__122__compressed_pair_elemINS_9allocatorINS_11__tree_nodeINS_12__value_typeINS_12basic_stringIcNS_11char_traitsIcEENS1_IcEEEEmEEPvEEEELi1ELb1EEC2B8ne190102ENS_16__value_init_tagE
FNA:13,1,_ZNSt3__122__compressed_pair_elemINS_9allocatorINS_11__tree_nodeINS_12basic_stringIcNS_11char_traitsIcEENS1_IcEEEEPvEEEELi1ELb1EEC2B8ne190102ENS_16__value_init_tagE
FNL:14,81,82
FNA:14,1,_ZNSt3__122__compressed_pair_elemINS_19__map_value_compareINS_12basic_stringIcNS_11char_traitsIcEENS_9allocatorIcEEEENS_12__value_typeIS7_N7testing8internal34TypeParameterizedTestSuiteRegistry30TypeParameterizedTestSuiteInfoEEENS_4lessIS7_EELb1EEELi1ELb1EEC2B8ne190102IRKSG_Li0EEEOT_
FNA:14,0,_ZNSt3__122__compressed_pair_elemINS_19__map_value_compareINS_12basic_stringIcNS_11char_traitsIcEENS_9allocatorIcEEEENS_12__value_typeIS7_mEENS_4lessIS7_EELb1EEELi1ELb1EEC2B8ne190102IRKSC_Li0EEEOT_
FNA:14,1,_ZNSt3__122__compressed_pair_elemINS_4lessINS_12basic_stringIcNS_11char_traitsIcEENS_9allocatorIcEEEEEELi1ELb1EEC2B8ne190102IRKS8_Li0EEEOT_
FNA:14,0,_ZNSt3__122__compressed_pair_elemINS_9allocatorIN7testing8internal13edit_distance8EditTypeEEELi1ELb1EEC2B8ne190102IS6_Li0EEEOT_
FNA:14,2,_ZNSt3__122__compressed_pair_elemINS_9allocatorINS_12basic_stringIcNS_11char_traitsIcEENS1_IcEEEEEELi1ELb1EEC2B8ne190102IS7_Li0EEEOT_
FNA:14,13,_ZNSt3__122__compressed_pair_elemINS_9allocatorIcEELi1ELb1EEC2B8ne190102IRKS2_Li0EEEOT_
FNA:14,0,_ZNSt3__122__compressed_pair_elemINS_9allocatorIdEELi1ELb1EEC2B8ne190102IS2_Li0EEEOT_
FNL:15,91,91
FNA:15,0,_ZNSt3__122__compressed_pair_elemINS_14default_deleteIKNS_12basic_stringIcNS_11char_traitsIcEENS_9allocatorIcEEEEEELi1ELb1EE5__getB8ne190102Ev
FNA:15,0,_ZNSt3__122__compressed_pair_elemINS_14default_deleteIN7testing8internal11ThreadLocalINS_6vectorINS3_9TraceInfoENS_9allocatorIS6_EEEEE18ValueHolderFactoryEEELi1ELb1EE5__getB8ne190102Ev
FNA:15,0,_ZNSt3__122__compressed_pair_elemINS_14default_deleteIN7testing8internal11ThreadLocalIPNS2_31TestPartResultReporterInterfaceEE18ValueHolderFactoryEEELi1ELb1EE5__getB8ne190102Ev
FNA:15,12,_ZNSt3__122__compressed_pair_elemINS_14default_deleteIN7testing8internal14GTestFlagSaverEEELi1ELb1EE5__getB8ne190102Ev
FNA:15,0,_ZNSt3__122__compressed_pair_elemINS_14default_deleteIN7testing8internal16DeathTestFactoryEEELi1ELb1EE5__getB8ne190102Ev
FNA:15,0,_ZNSt3__122__compressed_pair_elemINS_14default_deleteIN7testing8internal17StreamingListener20AbstractSocketWriterEEELi1ELb1EE5__getB8ne190102Ev
FNA:15,0,_ZNSt3__122__compressed_pair_elemINS_14default_deleteIN7testing8internal24InternalRunDeathTestFlagEEELi1ELb1EE5__getB8ne190102Ev
FNA:15,0,_ZNSt3__122__compressed_pair_elemINS_14default_deleteINS_12basic_stringIcNS_11char_traitsIcEENS_9allocatorIcEEEEEELi1ELb1EE5__getB8ne190102Ev
FNA:15,77,_ZNSt3__122__compressed_pair_elemINS_14default_deleteINS_18basic_stringstreamIcNS_11char_traitsIcEENS_9allocatorIcEEEEEELi1ELb1EE5__getB8ne190102Ev
FNA:15,0,_ZNSt3__122__compressed_pair_elemINS_19__map_value_compareINS_12basic_stringIcNS_11char_traitsIcEENS_9allocatorIcEEEENS_12__value_typeIS7_N7testing8internal34TypeParameterizedTestSuiteRegistry30TypeParameterizedTestSuiteInfoEEENS_4lessIS7_EELb1EEELi1ELb1EE5__getB8ne190102Ev
FNA:15,0,_ZNSt3__122__compressed_pair_elemINS_19__map_value_compareINS_12basic_stringIcNS_11char_traitsIcEENS_9allocatorIcEEEENS_12__value_typeIS7_mEENS_4lessIS7_EELb1EEELi1ELb1EE5__getB8ne190102Ev
FNA:15,0,_ZNSt3__122__compressed_pair_elemINS_21__unordered_map_equalINS_12basic_stringIcNS_11char_traitsIcEENS_9allocatorIcEEEENS_17__hash_value_typeIS7_PN7testing9TestSuiteEEENS_8equal_toIS7_EENS_4hashIS7_EELb1EEELi1ELb1EE5__getB8ne190102Ev
FNA:15,8,_ZNSt3__122__compressed_pair_elemINS_22__unordered_map_hasherINS_12basic_stringIcNS_11char_traitsIcEENS_9allocatorIcEEEENS_17__hash_value_typeIS7_PN7testing9TestSuiteEEENS_4hashIS7_EENS_8equal_toIS7_EELb1EEELi1ELb1EE5__getB8ne190102Ev
FNA:15,0,_ZNSt3__122__compressed_pair_elemINS_25__return_temporary_bufferELi1ELb1EE5__getB8ne190102Ev
FNA:15,4,_ZNSt3__122__compressed_pair_elemINS_4hashINS_12basic_stringIcNS_11char_traitsIcEENS_9allocatorIcEEEEEELi1ELb1EE5__getB8ne190102Ev
FNA:15,0,_ZNSt3__122__compressed_pair_elemINS_4lessINS_12basic_stringIcNS_11char_traitsIcEENS_9allocatorIcEEEEEELi1ELb1EE5__getB8ne190102Ev
FNA:15,4,_ZNSt3__122__compressed_pair_elemINS_8equal_toINS_12basic_stringIcNS_11char_traitsIcEENS_9allocatorIcEEEEEELi1ELb1EE5__getB8ne190102Ev
FNA:15,0,_ZNSt3__122__compressed_pair_elemINS_9allocatorIN7testing12TestPropertyEEELi1ELb1EE5__getB8ne190102Ev
FNA:15,0,_ZNSt3__122__compressed_pair_elemINS_9allocatorIN7testing14TestPartResultEEELi1ELb1EE5__getB8ne190102Ev
FNA:15,0,_ZNSt3__122__compressed_pair_elemINS_9allocatorIN7testing8internal13edit_distance8EditTypeEEELi1ELb1EE5__getB8ne190102Ev
FNA:15,0,_ZNSt3__122__compressed_pair_elemINS_9allocatorIN7testing8internal9TraceInfoEEELi1ELb1EE5__getB8ne190102Ev
FNA:15,15,_ZNSt3__122__compressed_pair_elemINS_9allocatorINS_11__hash_nodeINS_12basic_stringIcNS_11char_traitsIcEENS1_IcEEEEPvEEEELi1ELb1EE5__getB8ne190102Ev
FNA:15,4,_ZNSt3__122__compressed_pair_elemINS_9allocatorINS_11__hash_nodeINS_17__hash_value_typeINS_12basic_stringIcNS_11char_traitsIcEENS1_IcEEEEPN7testing9TestSuiteEEEPvEEEELi1ELb1EE5__getB8ne190102Ev
FNA:15,0,_ZNSt3__122__compressed_pair_elemINS_9allocatorINS_11__hash_nodeINS_17__hash_value_typeINS_12basic_stringIcNS_11char_traitsIcEENS1_IcEEEEmEEPvEEEELi1ELb1EE5__getB8ne190102Ev
FNA:15,0,_ZNSt3__122__compressed_pair_elemINS_9allocatorINS_11__list_nodeINS_4pairIcPKcEEPvEEEELi1ELb1EE5__getB8ne190102Ev
FNA:15,0,_ZNSt3__122__compressed_pair_elemINS_9allocatorINS_11__tree_nodeINS_12__value_typeINS_12basic_stringIcNS_11char_traitsIcEENS1_IcEEEEN7testing8internal34TypeParameterizedTestSuiteRegistry30TypeParameterizedTestSuiteInfoEEEPvEEEELi1ELb1EE5__getB8ne190102Ev
FNA:15,0,_ZNSt3__122__compressed_pair_elemINS_9allocatorINS_11__tree_nodeINS_12__value_typeINS_12basic_stringIcNS_11char_traitsIcEENS1_IcEEEEmEEPvEEEELi1ELb1EE5__getB8ne190102Ev
FNA:15,0,_ZNSt3__122__compressed_pair_elemINS_9allocatorINS_11__tree_nodeINS_12basic_stringIcNS_11char_traitsIcEENS1_IcEEEEPvEEEELi1ELb1EE5__getB8ne190102Ev
FNA:15,124,_ZNSt3__122__compressed_pair_elemINS_9allocatorINS_12basic_stringIcNS_11char_traitsIcEENS1_IcEEEEEELi1ELb1EE5__getB8ne190102Ev
FNA:15,0,_ZNSt3__122__compressed_pair_elemINS_9allocatorINS_6vectorIN7testing8internal13edit_distance8EditTypeENS1_IS6_EEEEEELi1ELb1EE5__getB8ne190102Ev
FNA:15,0,_ZNSt3__122__compressed_pair_elemINS_9allocatorINS_6vectorIdNS1_IdEEEEEELi1ELb1EE5__getB8ne190102Ev
FNA:15,0,_ZNSt3__122__compressed_pair_elemINS_9allocatorIPN7testing11EnvironmentEEELi1ELb1EE5__getB8ne190102Ev
FNA:15,2,_ZNSt3__122__compressed_pair_elemINS_9allocatorIPN7testing17TestEventListenerEEELi1ELb1EE5__getB8ne190102Ev
FNA:15,22,_ZNSt3__122__compressed_pair_elemINS_9allocatorIPN7testing8TestInfoEEELi1ELb1EE5__getB8ne190102Ev
FNA:15,0,_ZNSt3__122__compressed_pair_elemINS_9allocatorIPN7testing8internal30ParameterizedTestSuiteInfoBaseEEELi1ELb1EE5__getB8ne190102Ev
FNA:15,7,_ZNSt3__122__compressed_pair_elemINS_9allocatorIPN7testing9TestSuiteEEELi1ELb1EE5__getB8ne190102Ev
FNA:15,4,_ZNSt3__122__compressed_pair_elemINS_9allocatorIPNS_16__hash_node_baseIPNS_11__hash_nodeINS_12basic_stringIcNS_11char_traitsIcEENS1_IcEEEEPvEEEEEELi1ELb1EE5__getB8ne190102Ev
FNA:15,3,_ZNSt3__122__compressed_pair_elemINS_9allocatorIPNS_16__hash_node_baseIPNS_11__hash_nodeINS_17__hash_value_typeINS_12basic_stringIcNS_11char_traitsIcEENS1_IcEEEEPN7testing9TestSuiteEEEPvEEEEEELi1ELb1EE5__getB8ne190102Ev
FNA:15,0,_ZNSt3__122__compressed_pair_elemINS_9allocatorIPNS_16__hash_node_baseIPNS_11__hash_nodeINS_17__hash_value_typeINS_12basic_stringIcNS_11char_traitsIcEENS1_IcEEEEmEEPvEEEEEELi1ELb1EE5__getB8ne190102Ev
FNA:15,0,_ZNSt3__122__compressed_pair_elemINS_9allocatorIPcEELi1ELb1EE5__getB8ne190102Ev
FNA:15,2,_ZNSt3__122__compressed_pair_elemINS_9allocatorIcEELi1ELb1EE5__getB8ne190102Ev
FNA:15,0,_ZNSt3__122__compressed_pair_elemINS_9allocatorIdEELi1ELb1EE5__getB8ne190102Ev
FNA:15,29,_ZNSt3__122__compressed_pair_elemINS_9allocatorIiEELi1ELb1EE5__getB8ne190102Ev
FNA:15,0,_ZNSt3__122__compressed_pair_elemINS_9allocatorImEELi1ELb1EE5__getB8ne190102Ev
FNL:16,92,92
FNA:16,0,_ZNKSt3__122__compressed_pair_elemINS_19__map_value_compareINS_12basic_stringIcNS_11char_traitsIcEENS_9allocatorIcEEEENS_12__value_typeIS7_N7testing8internal12CodeLocationEEENS_4lessIvEELb1EEELi1ELb1EE5__getB8ne190102Ev
FNA:16,54,_ZNKSt3__122__compressed_pair_elemINS_4hashINS_12basic_stringIcNS_11char_traitsIcEENS_9allocatorIcEEEEEELi1ELb1EE5__getB8ne190102Ev
FNA:16,0,_ZNKSt3__122__compressed_pair_elemINS_4lessINS_12basic_stringIcNS_11char_traitsIcEENS_9allocatorIcEEEEEELi1ELb1EE5__getB8ne190102Ev
FNA:16,0,_ZNKSt3__122__compressed_pair_elemINS_8equal_toINS_12basic_stringIcNS_11char_traitsIcEENS_9allocatorIcEEEEEELi1ELb1EE5__getB8ne190102Ev
FNA:16,0,_ZNKSt3__122__compressed_pair_elemINS_9allocatorIN7testing12TestPropertyEEELi1ELb1EE5__getB8ne190102Ev
FNA:16,0,_ZNKSt3__122__compressed_pair_elemINS_9allocatorIN7testing14TestPartResultEEELi1ELb1EE5__getB8ne190102Ev
FNA:16,0,_ZNKSt3__122__compressed_pair_elemINS_9allocatorIN7testing8internal13edit_distance8EditTypeEEELi1ELb1EE5__getB8ne190102Ev
FNA:16,0,_ZNKSt3__122__compressed_pair_elemINS_9allocatorIN7testing8internal9TraceInfoEEELi1ELb1EE5__getB8ne190102Ev
FNA:16,25,_ZNKSt3__122__compressed_pair_elemINS_9allocatorINS_12basic_stringIcNS_11char_traitsIcEENS1_IcEEEEEELi1ELb1EE5__getB8ne190102Ev
FNA:16,0,_ZNKSt3__122__compressed_pair_elemINS_9allocatorINS_6vectorIN7testing8internal13edit_distance8EditTypeENS1_IS6_EEEEEELi1ELb1EE5__getB8ne190102Ev
FNA:16,0,_ZNKSt3__122__compressed_pair_elemINS_9allocatorINS_6vectorIdNS1_IdEEEEEELi1ELb1EE5__getB8ne190102Ev
FNA:16,0,_ZNKSt3__122__compressed_pair_elemINS_9allocatorIPN7testing11EnvironmentEEELi1ELb1EE5__getB8ne190102Ev
FNA:16,1,_ZNKSt3__122__compressed_pair_elemINS_9allocatorIPN7testing17TestEventListenerEEELi1ELb1EE5__getB8ne190102Ev
FNA:16,10,_ZNKSt3__122__compressed_pair_elemINS_9allocatorIPN7testing8TestInfoEEELi1ELb1EE5__getB8ne190102Ev
FNA:16,3,_ZNKSt3__122__compressed_pair_elemINS_9allocatorIPN7testing9TestSuiteEEELi1ELb1EE5__getB8ne190102Ev
FNA:16,0,_ZNKSt3__122__compressed_pair_elemINS_9allocatorIPcEELi1ELb1EE5__getB8ne190102Ev
FNA:16,26,_ZNKSt3__122__compressed_pair_elemINS_9allocatorIcEELi1ELb1EE5__getB8ne190102Ev
FNA:16,0,_ZNKSt3__122__compressed_pair_elemINS_9allocatorIdEELi1ELb1EE5__getB8ne190102Ev
FNA:16,13,_ZNKSt3__122__compressed_pair_elemINS_9allocatorIiEELi1ELb1EE5__getB8ne190102Ev
FNA:16,0,_ZNKSt3__122__compressed_pair_elemINS_9allocatorImEELi1ELb1EE5__getB8ne190102Ev
FNF:17
FNH:16
DA:48,92
DA:49,286
DA:52,346
DA:53,346
DA:62,940
DA:63,5660
DA:77,423
DA:78,152
DA:81,17
DA:82,17
DA:91,317
DA:92,132
DA:114,30
DA:115,30
DA:118,1286
DA:119,1286
DA:129,851
DA:130,851
DA:133,5594
DA:134,5594
DA:137,406
DA:138,406
DA:141,198
DA:142,198
DA:152,0
DA:155,0
DA:156,0
DA:157,0
LF:28
LH:24
end_of_record
TN:
SF:/Library/Developer/CommandLineTools/SDKs/MacOSX.sdk/usr/include/c++/v1/__memory/construct_at.h
FNL:0,47,52
FNA:0,0,_ZNSt3__114__construct_atB8ne190102INS_11__hash_nodeINS_12basic_stringIcNS_11char_traitsIcEENS_9allocatorIcEEEEPvEEJDnRmEPS9_EEPT_SD_DpOT0_
FNA:0,4,_ZNSt3__114__construct_atB8ne190102INS_11__hash_nodeINS_17__hash_value_typeINS_12basic_stringIcNS_11char_traitsIcEENS_9allocatorIcEEEEPN7testing9TestSuiteEEEPvEEJDnRmEPSE_EEPT_SI_DpOT0_
FNA:0,0,_ZNSt3__114__construct_atB8ne190102INS_11__list_nodeINS_4pairIcPKcEEPvEEJRPNS_16__list_node_baseIS5_S6_EESB_EPS7_EEPT_SE_DpOT0_
FNL:1,65,68
FNA:1,0,_ZNSt3__112__destroy_atB8ne190102INS_11__hash_nodeINS_12basic_stringIcNS_11char_traitsIcEENS_9allocatorIcEEEEPvEELi0EEEvPT_
FNA:1,0,_ZNSt3__112__destroy_atB8ne190102INS_11__hash_nodeINS_17__hash_value_typeINS_12basic_stringIcNS_11char_traitsIcEENS_9allocatorIcEEEEPN7testing9TestSuiteEEEPvEELi0EEEvPT_
FNA:1,0,_ZNSt3__112__destroy_atB8ne190102INS_11__hash_nodeINS_17__hash_value_typeINS_12basic_stringIcNS_11char_traitsIcEENS_9allocatorIcEEEEmEEPvEELi0EEEvPT_
FNA:1,0,_ZNSt3__112__destroy_atB8ne190102INS_11__list_nodeINS_4pairIcPKcEEPvEELi0EEEvPT_
FNA:1,0,_ZNSt3__112__destroy_atB8ne190102INS_12basic_stringIcNS_11char_traitsIcEENS_9allocatorIcEEEELi0EEEvPT_
FNA:1,0,_ZNSt3__112__destroy_atB8ne190102INS_4pairIKNS_12basic_stringIcNS_11char_traitsIcEENS_9allocatorIcEEEEN7testing8internal34TypeParameterizedTestSuiteRegistry30TypeParameterizedTestSuiteInfoEEELi0EEEvPT_
FNA:1,0,_ZNSt3__112__destroy_atB8ne190102INS_4pairIKNS_12basic_stringIcNS_11char_traitsIcEENS_9allocatorIcEEEEPN7testing9TestSuiteEEELi0EEEvPT_
FNA:1,0,_ZNSt3__112__destroy_atB8ne190102INS_4pairIKNS_12basic_stringIcNS_11char_traitsIcEENS_9allocatorIcEEEEmEELi0EEEvPT_
FNA:1,0,_ZNSt3__112__destroy_atB8ne190102INS_4pairIcPKcEELi0EEEvPT_
FNF:2
FNH:1
DA:47,4
DA:51,4
DA:52,4
DA:65,0
DA:67,0
DA:68,0
LF:6
LH:3
end_of_record
TN:
SF:/Library/Developer/CommandLineTools/SDKs/MacOSX.sdk/usr/include/c++/v1/__memory/destruct_n.h
FNL:0,34,34
FNA:0,0,_ZNSt3__112__destruct_n9__processB8ne190102IPN7testing8TestInfoEEEvPT_NS_17integral_constantIbLb1EEE
FNL:1,37,37
FNA:1,0,_ZNSt3__112__destruct_n6__incrB8ne190102ENS_17integral_constantIbLb1EEE
FNL:2,40,40
FNA:2,0,_ZNSt3__112__destruct_n5__setB8ne190102EmNS_17integral_constantIbLb1EEE
FNL:3,43,43
FNA:3,0,_ZNSt3__112__destruct_nC1B8ne190102Em
FNA:3,0,_ZNSt3__112__destruct_nC2B8ne190102Em
FNL:4,46,48
FNA:4,0,_ZNSt3__112__destruct_n6__incrB8ne190102IPN7testing8TestInfoEEEvv
FNL:5,51,53
FNA:5,0,_ZNSt3__112__destruct_n5__setB8ne190102IPN7testing8TestInfoEEEvmPT_
FNL:6,56,58
FNA:6,0,_ZNSt3__112__destruct_nclB8ne190102IPN7testing8TestInfoEEEvPT_
FNF:7
FNH:0
DA:34,0
DA:37,0
DA:40,0
DA:43,0
DA:46,0
DA:47,0
DA:48,0
DA:51,0
DA:52,0
DA:53,0
DA:56,0
DA:57,0
DA:58,0
LF:13
LH:0
end_of_record
TN:
SF:/Library/Developer/CommandLineTools/SDKs/MacOSX.sdk/usr/include/c++/v1/__memory/pointer_traits.h
FNL:0,171,172
FNA:0,0,_ZNSt3__114pointer_traitsIPKNS_12__value_typeINS_12basic_stringIcNS_11char_traitsIcEENS_9allocatorIcEEEEN7testing8internal12CodeLocationEEEE10pointer_toB8ne190102ERSC_
FNA:0,0,_ZNSt3__114pointer_traitsIPKNS_4pairIKNS_12basic_stringIcNS_11char_traitsIcEENS_9allocatorIcEEEEN7testing8internal12CodeLocationEEEE10pointer_toB8ne190102ERSD_
FNA:0,0,_ZNSt3__114pointer_traitsIPKNS_4pairIcPKcEEE10pointer_toB8ne190102ERS5_
FNA:0,0,_ZNSt3__114pointer_traitsIPKPN7testing9TestSuiteEE10pointer_toB8ne190102ERS4_
FNA:0,600,_ZNSt3__114pointer_traitsIPKcE10pointer_toB8ne190102ERS1_
FNA:0,0,_ZNSt3__114pointer_traitsIPKwE10pointer_toB8ne190102ERS1_
FNA:0,0,_ZNSt3__114pointer_traitsIPNS_12__value_typeINS_12basic_stringIcNS_11char_traitsIcEENS_9allocatorIcEEEEN7testing8internal34TypeParameterizedTestSuiteRegistry30TypeParameterizedTestSuiteInfoEEEE10pointer_toB8ne190102ERSC_
FNA:0,0,_ZNSt3__114pointer_traitsIPNS_12__value_typeINS_12basic_stringIcNS_11char_traitsIcEENS_9allocatorIcEEEEmEEE10pointer_toB8ne190102ERS8_
FNA:0,3,_ZNSt3__114pointer_traitsIPNS_15__tree_end_nodeIPNS_16__tree_node_baseIPvEEEEE10pointer_toB8ne190102ERS6_
FNA:0,0,_ZNSt3__114pointer_traitsIPNS_16__hash_node_baseIPNS_11__hash_nodeINS_12basic_stringIcNS_11char_traitsIcEENS_9allocatorIcEEEEPvEEEEE10pointer_toB8ne190102ERSC_
FNA:0,10,_ZNSt3__114pointer_traitsIPNS_16__hash_node_baseIPNS_11__hash_nodeINS_17__hash_value_typeINS_12basic_stringIcNS_11char_traitsIcEENS_9allocatorIcEEEEPN7testing9TestSuiteEEEPvEEEEE10pointer_toB8ne190102ERSH_
FNA:0,0,_ZNSt3__114pointer_traitsIPNS_16__hash_node_baseIPNS_11__hash_nodeINS_17__hash_value_typeINS_12basic_stringIcNS_11char_traitsIcEENS_9allocatorIcEEEEmEEPvEEEEE10pointer_toB8ne190102ERSE_
FNA:0,0,_ZNSt3__114pointer_traitsIPNS_16__list_node_baseINS_4pairIcPKcEEPvEEE10pointer_toB8ne190102ERS7_
FNA:0,0,_ZNSt3__114pointer_traitsIPNS_17__hash_value_typeINS_12basic_stringIcNS_11char_traitsIcEENS_9allocatorIcEEEEPN7testing9TestSuiteEEEE10pointer_toB8ne190102ERSB_
FNA:0,0,_ZNSt3__114pointer_traitsIPNS_4pairIKNS_12basic_stringIcNS_11char_traitsIcEENS_9allocatorIcEEEEN7testing8internal34TypeParameterizedTestSuiteRegistry30TypeParameterizedTestSuiteInfoEEEE10pointer_toB8ne190102ERSD_
FNA:0,0,_ZNSt3__114pointer_traitsIPNS_4pairIKNS_12basic_stringIcNS_11char_traitsIcEENS_9allocatorIcEEEEPN7testing9TestSuiteEEEE10pointer_toB8ne190102ERSC_
FNA:0,0,_ZNSt3__114pointer_traitsIPNS_4pairIKNS_12basic_stringIcNS_11char_traitsIcEENS_9allocatorIcEEEEmEEE10pointer_toB8ne190102ERS9_
FNA:0,14,_ZNSt3__114pointer_traitsIPcE10pointer_toB8ne190102ERc
FNL:1,190,192
FNA:1,0,_ZNSt3__112__to_addressB8ne190102IKNS_12basic_stringIcNS_11char_traitsIcEENS_9allocatorIcEEEEEEPT_S9_
FNA:1,0,_ZNSt3__112__to_addressB8ne190102IKPKcEEPT_S5_
FNA:1,1077,_ZNSt3__112__to_addressB8ne190102IKcEEPT_S3_
FNA:1,0,_ZNSt3__112__to_addressB8ne190102IKwEEPT_S3_
FNA:1,0,_ZNSt3__112__to_addressB8ne190102IN7testing12TestPropertyEEEPT_S4_
FNA:1,0,_ZNSt3__112__to_addressB8ne190102IN7testing14TestPartResultEEEPT_S4_
FNA:1,0,_ZNSt3__112__to_addressB8ne190102IN7testing8internal13edit_distance8EditTypeEEEPT_S6_
FNA:1,0,_ZNSt3__112__to_addressB8ne190102IN7testing8internal9TraceInfoEEEPT_S5_
FNA:1,167,_ZNSt3__112__to_addressB8ne190102INS_12basic_stringIcNS_11char_traitsIcEENS_9allocatorIcEEEEEEPT_S8_
FNA:1,0,_ZNSt3__112__to_addressB8ne190102INS_6vectorIN7testing8internal13edit_distance8EditTypeENS_9allocatorIS5_EEEEEEPT_SA_
FNA:1,0,_ZNSt3__112__to_addressB8ne190102INS_6vectorIdNS_9allocatorIdEEEEEEPT_S6_
FNA:1,0,_ZNSt3__112__to_addressB8ne190102IPN7testing11EnvironmentEEEPT_S5_
FNA:1,4,_ZNSt3__112__to_addressB8ne190102IPN7testing17TestEventListenerEEEPT_S5_
FNA:1,42,_ZNSt3__112__to_addressB8ne190102IPN7testing8TestInfoEEEPT_S5_
FNA:1,0,_ZNSt3__112__to_addressB8ne190102IPN7testing8internal30ParameterizedTestSuiteInfoBaseEEEPT_S6_
FNA:1,13,_ZNSt3__112__to_addressB8ne190102IPN7testing9TestSuiteEEEPT_S5_
FNA:1,0,_ZNSt3__112__to_addressB8ne190102IPcEEPT_S3_
FNA:1,13,_ZNSt3__112__to_addressB8ne190102IcEEPT_S2_
FNA:1,0,_ZNSt3__112__to_addressB8ne190102IdEEPT_S2_
FNA:1,55,_ZNSt3__112__to_addressB8ne190102IiEEPT_S2_
FNA:1,0,_ZNSt3__112__to_addressB8ne190102ImEEPT_S2_
FNL:2,217,218
FNA:2,0,_ZNSt3__112__to_addressB8ne190102INS_11__wrap_iterIPKNS_12basic_stringIcNS_11char_traitsIcEENS_9allocatorIcEEEEEELi0EEEu7__decayIDTclsr19__to_address_helperIT_EE6__callclsr3stdE7declvalIRKSB_EEEEESD_
FNA:2,42,_ZNSt3__112__to_addressB8ne190102INS_11__wrap_iterIPNS_12basic_stringIcNS_11char_traitsIcEENS_9allocatorIcEEEEEELi0EEEu7__decayIDTclsr19__to_address_helperIT_EE6__callclsr3stdE7declvalIRKSA_EEEEESC_
FNA:2,0,_ZNSt3__112__to_addressB8ne190102INS_11__wrap_iterIPPN7testing8TestInfoEEELi0EEEu7__decayIDTclsr19__to_address_helperIT_EE6__callclsr3stdE7declvalIRKS7_EEEEES9_
FNA:2,0,_ZNSt3__112__to_addressB8ne190102INS_16reverse_iteratorIPN7testing12TestPropertyEEELi0EEEu7__decayIDTclsr19__to_address_helperIT_EE6__callclsr3stdE7declvalIRKS6_EEEEES8_
FNA:2,0,_ZNSt3__112__to_addressB8ne190102INS_16reverse_iteratorIPN7testing14TestPartResultEEELi0EEEu7__decayIDTclsr19__to_address_helperIT_EE6__callclsr3stdE7declvalIRKS6_EEEEES8_
FNA:2,0,_ZNSt3__112__to_addressB8ne190102INS_16reverse_iteratorIPN7testing8internal9TraceInfoEEELi0EEEu7__decayIDTclsr19__to_address_helperIT_EE6__callclsr3stdE7declvalIRKS7_EEEEES9_
FNA:2,0,_ZNSt3__112__to_addressB8ne190102INS_16reverse_iteratorIPNS_12basic_stringIcNS_11char_traitsIcEENS_9allocatorIcEEEEEELi0EEEu7__decayIDTclsr19__to_address_helperIT_EE6__callclsr3stdE7declvalIRKSA_EEEEESC_
FNL:3,225,226
FNA:3,0,_ZNSt3__119__to_address_helperINS_16reverse_iteratorIPN7testing12TestPropertyEEEvE6__callB8ne190102ERKS5_
FNA:3,0,_ZNSt3__119__to_address_helperINS_16reverse_iteratorIPN7testing14TestPartResultEEEvE6__callB8ne190102ERKS5_
FNA:3,0,_ZNSt3__119__to_address_helperINS_16reverse_iteratorIPN7testing8internal9TraceInfoEEEvE6__callB8ne190102ERKS6_
FNA:3,0,_ZNSt3__119__to_address_helperINS_16reverse_iteratorIPNS_12basic_stringIcNS_11char_traitsIcEENS_9allocatorIcEEEEEEvE6__callB8ne190102ERKS9_
FNL:4,235,236
FNA:4,0,_ZNSt3__119__to_address_helperINS_11__wrap_iterIPKNS_12basic_stringIcNS_11char_traitsIcEENS_9allocatorIcEEEEEEvE6__callB8ne190102ERKSA_
FNA:4,42,_ZNSt3__119__to_address_helperINS_11__wrap_iterIPNS_12basic_stringIcNS_11char_traitsIcEENS_9allocatorIcEEEEEEvE6__callB8ne190102ERKS9_
FNA:4,0,_ZNSt3__119__to_address_helperINS_11__wrap_iterIPPN7testing8TestInfoEEEvE6__callB8ne190102ERKS6_
FNF:5
FNH:4
DA:171,627
DA:172,627
DA:190,1371
DA:192,1371
DA:217,42
DA:218,42
DA:225,0
DA:226,0
DA:235,42
DA:236,42
LF:10
LH:8
end_of_record
TN:
SF:/Library/Developer/CommandLineTools/SDKs/MacOSX.sdk/usr/include/c++/v1/__memory/swap_allocator.h
FNL:0,38,38
FNA:0,9,_ZNSt3__116__swap_allocatorB8ne190102INS_9allocatorINS_12basic_stringIcNS_11char_traitsIcEENS1_IcEEEEEEEEvRT_S9_NS_17integral_constantIbLb0EEE
FNA:0,0,_ZNSt3__116__swap_allocatorB8ne190102INS_9allocatorIcEEEEvRT_S4_NS_17integral_constantIbLb0EEE
FNL:1,41,50
FNA:1,0,_ZNSt3__116__swap_allocatorB8ne190102INS_9allocatorIcEEEEvRT_S4_
FNF:2
FNH:1
DA:38,9
DA:41,0
DA:48,0
DA:49,0
DA:50,0
LF:5
LH:1
end_of_record
TN:
SF:/Library/Developer/CommandLineTools/SDKs/MacOSX.sdk/usr/include/c++/v1/__memory/temporary_buffer.h
FNL:0,26,56
FNA:0,0,_ZNSt3__120get_temporary_bufferB8ne190102IPN7testing8TestInfoEEENS_4pairIPT_lEEl
FNL:1,60,62
FNA:1,0,_ZNSt3__123return_temporary_bufferB8ne190102IPN7testing8TestInfoEEEvPT_
FNL:2,67,69
FNA:2,0,_ZNKSt3__125__return_temporary_bufferclB8ne190102IPN7testing8TestInfoEEEvPT_
FNF:3
FNH:0
DA:26,0
DA:27,0
DA:28,0
DA:30,0
DA:31,0
DA:32,0
DA:38,0
DA:50,0
DA:51,0
DA:52,0
DA:54,0
DA:56,0
DA:60,0
DA:61,0
DA:62,0
DA:67,0
DA:68,0
DA:69,0
LF:18
LH:0
end_of_record
TN:
SF:/Library/Developer/CommandLineTools/SDKs/MacOSX.sdk/usr/include/c++/v1/__memory/uninitialized_algorithms.h
FNL:0,519,522
FNA:0,0,_ZNSt3__119__allocator_destroyB8ne190102INS_9allocatorIN7testing12TestPropertyEEENS_16reverse_iteratorIPS3_EES7_EEvRT_T0_T1_
FNA:0,0,_ZNSt3__119__allocator_destroyB8ne190102INS_9allocatorIN7testing12TestPropertyEEEPS3_S5_EEvRT_T0_T1_
FNA:0,0,_ZNSt3__119__allocator_destroyB8ne190102INS_9allocatorIN7testing14TestPartResultEEENS_16reverse_iteratorIPS3_EES7_EEvRT_T0_T1_
FNA:0,0,_ZNSt3__119__allocator_destroyB8ne190102INS_9allocatorIN7testing14TestPartResultEEEPS3_S5_EEvRT_T0_T1_
FNA:0,0,_ZNSt3__119__allocator_destroyB8ne190102INS_9allocatorIN7testing8internal9TraceInfoEEENS_16reverse_iteratorIPS4_EES8_EEvRT_T0_T1_
FNA:0,0,_ZNSt3__119__allocator_destroyB8ne190102INS_9allocatorIN7testing8internal9TraceInfoEEEPS4_S6_EEvRT_T0_T1_
FNA:0,0,_ZNSt3__119__allocator_destroyB8ne190102INS_9allocatorINS_12basic_stringIcNS_11char_traitsIcEENS1_IcEEEEEENS_16reverse_iteratorIPS6_EESA_EEvRT_T0_T1_
FNL:1,528,529
FNA:1,0,_ZNSt3__129_AllocatorDestroyRangeReverseINS_9allocatorIN7testing12TestPropertyEEEPS3_EC1B8ne190102ERS4_RS5_S8_
FNA:1,0,_ZNSt3__129_AllocatorDestroyRangeReverseINS_9allocatorIN7testing12TestPropertyEEEPS3_EC2B8ne190102ERS4_RS5_S8_
FNA:1,0,_ZNSt3__129_AllocatorDestroyRangeReverseINS_9allocatorIN7testing14TestPartResultEEEPS3_EC1B8ne190102ERS4_RS5_S8_
FNA:1,0,_ZNSt3__129_AllocatorDestroyRangeReverseINS_9allocatorIN7testing14TestPartResultEEEPS3_EC2B8ne190102ERS4_RS5_S8_
FNA:1,0,_ZNSt3__129_AllocatorDestroyRangeReverseINS_9allocatorIN7testing8internal9TraceInfoEEEPS4_EC1B8ne190102ERS5_RS6_S9_
FNA:1,0,_ZNSt3__129_AllocatorDestroyRangeReverseINS_9allocatorIN7testing8internal9TraceInfoEEEPS4_EC2B8ne190102ERS5_RS6_S9_
FNA:1,1,_ZNSt3__129_AllocatorDestroyRangeReverseINS_9allocatorINS_12basic_stringIcNS_11char_traitsIcEENS1_IcEEEEEEPS6_EC1B8ne190102ERS7_RS8_SB_
FNA:1,1,_ZNSt3__129_AllocatorDestroyRangeReverseINS_9allocatorINS_12basic_stringIcNS_11char_traitsIcEENS1_IcEEEEEEPS6_EC2B8ne190102ERS7_RS8_SB_
FNL:2,531,533
FNA:2,0,_ZNKSt3__129_AllocatorDestroyRangeReverseINS_9allocatorIN7testing12TestPropertyEEEPS3_EclB8ne190102Ev
FNA:2,0,_ZNKSt3__129_AllocatorDestroyRangeReverseINS_9allocatorIN7testing14TestPartResultEEEPS3_EclB8ne190102Ev
FNA:2,0,_ZNKSt3__129_AllocatorDestroyRangeReverseINS_9allocatorIN7testing8internal9TraceInfoEEEPS4_EclB8ne190102Ev
FNA:2,0,_ZNKSt3__129_AllocatorDestroyRangeReverseINS_9allocatorINS_12basic_stringIcNS_11char_traitsIcEENS1_IcEEEEEEPS6_EclB8ne190102Ev
FNL:3,547,558
FNA:3,0,_ZNSt3__135__uninitialized_allocator_copy_implB8ne190102INS_9allocatorINS_12basic_stringIcNS_11char_traitsIcEENS1_IcEEEEEEPKPKcSB_PS6_EET2_RT_T0_T1_SD_
FNA:3,0,_ZNSt3__135__uninitialized_allocator_copy_implB8ne190102INS_9allocatorINS_12basic_stringIcNS_11char_traitsIcEENS1_IcEEEEEEPKS6_S9_PS6_EET2_RT_T0_T1_SB_
FNA:3,1,_ZNSt3__135__uninitialized_allocator_copy_implB8ne190102INS_9allocatorINS_12basic_stringIcNS_11char_traitsIcEENS1_IcEEEEEEPS6_S8_S8_EET2_RT_T0_T1_S9_
FNL:4,577,587
FNA:4,0,_ZNSt3__135__uninitialized_allocator_copy_implB8ne190102INS_9allocatorIN7testing8internal13edit_distance8EditTypeEEES5_S5_S5_Li0EEEPT2_RT_PT0_SC_S8_
FNA:4,0,_ZNSt3__135__uninitialized_allocator_copy_implB8ne190102INS_9allocatorIdEEdddLi0EEEPT2_RT_PT0_S8_S4_
FNL:5,593,597
FNA:5,0,_ZNSt3__130__uninitialized_allocator_copyB8ne190102INS_9allocatorIN7testing8internal13edit_distance8EditTypeEEEPS5_S7_S7_EET2_RT_T0_T1_S8_
FNA:5,0,_ZNSt3__130__uninitialized_allocator_copyB8ne190102INS_9allocatorINS_12basic_stringIcNS_11char_traitsIcEENS1_IcEEEEEENS_11__wrap_iterIPKS6_EESB_PS6_EET2_RT_T0_T1_SD_
FNA:5,0,_ZNSt3__130__uninitialized_allocator_copyB8ne190102INS_9allocatorINS_12basic_stringIcNS_11char_traitsIcEENS1_IcEEEEEEPKPKcSB_PS6_EET2_RT_T0_T1_SD_
FNA:5,1,_ZNSt3__130__uninitialized_allocator_copyB8ne190102INS_9allocatorINS_12basic_stringIcNS_11char_traitsIcEENS1_IcEEEEEEPS6_S8_S8_EET2_RT_T0_T1_S9_
FNA:5,0,_ZNSt3__130__uninitialized_allocator_copyB8ne190102INS_9allocatorIdEEPdS3_S3_EET2_RT_T0_T1_S4_
FNL:6,626,650
FNA:6,0,_ZNSt3__134__uninitialized_allocator_relocateB8ne190102INS_9allocatorIN7testing12TestPropertyEEES3_EEvRT_PT0_S8_S8_
FNA:6,0,_ZNSt3__134__uninitialized_allocator_relocateB8ne190102INS_9allocatorIN7testing14TestPartResultEEES3_EEvRT_PT0_S8_S8_
FNA:6,0,_ZNSt3__134__uninitialized_allocator_relocateB8ne190102INS_9allocatorIN7testing8internal13edit_distance8EditTypeEEES5_EEvRT_PT0_SA_SA_
FNA:6,0,_ZNSt3__134__uninitialized_allocator_relocateB8ne190102INS_9allocatorIN7testing8internal9TraceInfoEEES4_EEvRT_PT0_S9_S9_
FNA:6,22,_ZNSt3__134__uninitialized_allocator_relocateB8ne190102INS_9allocatorINS_12basic_stringIcNS_11char_traitsIcEENS1_IcEEEEEES6_EEvRT_PT0_SB_SB_
FNA:6,0,_ZNSt3__134__uninitialized_allocator_relocateB8ne190102INS_9allocatorIPN7testing11EnvironmentEEES4_EEvRT_PT0_S9_S9_
FNA:6,1,_ZNSt3__134__uninitialized_allocator_relocateB8ne190102INS_9allocatorIPN7testing17TestEventListenerEEES4_EEvRT_PT0_S9_S9_
FNA:6,10,_ZNSt3__134__uninitialized_allocator_relocateB8ne190102INS_9allocatorIPN7testing8TestInfoEEES4_EEvRT_PT0_S9_S9_
FNA:6,3,_ZNSt3__134__uninitialized_allocator_relocateB8ne190102INS_9allocatorIPN7testing9TestSuiteEEES4_EEvRT_PT0_S9_S9_
FNA:6,0,_ZNSt3__134__uninitialized_allocator_relocateB8ne190102INS_9allocatorIPcEES2_EEvRT_PT0_S7_S7_
FNA:6,13,_ZNSt3__134__uninitialized_allocator_relocateB8ne190102INS_9allocatorIiEEiEEvRT_PT0_S6_S6_
FNA:6,0,_ZNSt3__134__uninitialized_allocator_relocateB8ne190102INS_9allocatorImEEmEEvRT_PT0_S6_S6_
FNF:7
FNH:4
DA:519,0
DA:520,0
DA:521,0
DA:522,0
DA:528,2
DA:529,2
DA:531,0
DA:532,0
DA:533,0
DA:547,1
DA:548,1
DA:550,1
DA:551,2
DA:552,1
DA:553,1
DA:554,1
DA:556,1
DA:557,1
DA:558,1
DA:577,0
DA:587,0
DA:593,1
DA:594,1
DA:595,1
DA:596,1
DA:597,1
DA:626,49
DA:632,0
DA:634,0
DA:635,0
DA:636,0
DA:638,0
DA:642,0
DA:643,0
DA:645,0
DA:646,0
DA:647,0
DA:648,49
DA:650,49
LF:39
LH:20
end_of_record
TN:
SF:/Library/Developer/CommandLineTools/SDKs/MacOSX.sdk/usr/include/c++/v1/__memory/unique_ptr.h
FNL:0,193,193
FNA:0,1,_ZNSt3__110unique_ptrIN7testing8internal24InternalRunDeathTestFlagENS_14default_deleteIS3_EEEC1B8ne190102ILb1EvEEv
FNA:0,1,_ZNSt3__110unique_ptrIN7testing8internal24InternalRunDeathTestFlagENS_14default_deleteIS3_EEEC2B8ne190102ILb1EvEEv
FNA:0,12,_ZNSt3__110unique_ptrINS_12basic_stringIcNS_11char_traitsIcEENS_9allocatorIcEEEENS_14default_deleteIS6_EEEC1B8ne190102ILb1EvEEv
FNA:0,12,_ZNSt3__110unique_ptrINS_12basic_stringIcNS_11char_traitsIcEENS_9allocatorIcEEEENS_14default_deleteIS6_EEEC2B8ne190102ILb1EvEEv
FNA:0,4,_ZNSt3__110unique_ptrIPN7testing8TestInfoENS_25__return_temporary_bufferEEC1B8ne190102ILb1EvEEv
FNA:0,4,_ZNSt3__110unique_ptrIPN7testing8TestInfoENS_25__return_temporary_bufferEEC2B8ne190102ILb1EvEEv
FNL:1,201,201
FNA:1,28,_ZNSt3__110unique_ptrIKNS_12basic_stringIcNS_11char_traitsIcEENS_9allocatorIcEEEENS_14default_deleteIS7_EEEC1B8ne190102ILb1EvEEPS7_
FNA:1,28,_ZNSt3__110unique_ptrIKNS_12basic_stringIcNS_11char_traitsIcEENS_9allocatorIcEEEENS_14default_deleteIS7_EEEC2B8ne190102ILb1EvEEPS7_
FNA:1,1,_ZNSt3__110unique_ptrIN7testing8internal11ThreadLocalINS_6vectorINS2_9TraceInfoENS_9allocatorIS5_EEEEE18ValueHolderFactoryENS_14default_deleteISA_EEEC1B8ne190102ILb1EvEEPSA_
FNA:1,1,_ZNSt3__110unique_ptrIN7testing8internal11ThreadLocalINS_6vectorINS2_9TraceInfoENS_9allocatorIS5_EEEEE18ValueHolderFactoryENS_14default_deleteISA_EEEC2B8ne190102ILb1EvEEPSA_
FNA:1,1,_ZNSt3__110unique_ptrIN7testing8internal11ThreadLocalIPNS1_31TestPartResultReporterInterfaceEE18ValueHolderFactoryENS_14default_deleteIS7_EEEC1B8ne190102ILb1EvEEPS7_
FNA:1,1,_ZNSt3__110unique_ptrIN7testing8internal11ThreadLocalIPNS1_31TestPartResultReporterInterfaceEE18ValueHolderFactoryENS_14default_deleteIS7_EEEC2B8ne190102ILb1EvEEPS7_
FNA:1,12,_ZNSt3__110unique_ptrIN7testing8internal14GTestFlagSaverENS_14default_deleteIS3_EEEC1B8ne190102ILb1EvEEPS3_
FNA:1,12,_ZNSt3__110unique_ptrIN7testing8internal14GTestFlagSaverENS_14default_deleteIS3_EEEC2B8ne190102ILb1EvEEPS3_
FNA:1,1,_ZNSt3__110unique_ptrIN7testing8internal16DeathTestFactoryENS_14default_deleteIS3_EEEC1B8ne190102ILb1EvEEPS3_
FNA:1,1,_ZNSt3__110unique_ptrIN7testing8internal16DeathTestFactoryENS_14default_deleteIS3_EEEC2B8ne190102ILb1EvEEPS3_
FNA:1,0,_ZNSt3__110unique_ptrIN7testing8internal17StreamingListener20AbstractSocketWriterENS_14default_deleteIS4_EEEC1B8ne190102ILb1EvEEPS4_
FNA:1,0,_ZNSt3__110unique_ptrIN7testing8internal17StreamingListener20AbstractSocketWriterENS_14default_deleteIS4_EEEC2B8ne190102ILb1EvEEPS4_
FNA:1,0,_ZNSt3__110unique_ptrINS_12basic_stringIcNS_11char_traitsIcEENS_9allocatorIcEEEENS_14default_deleteIS6_EEEC1B8ne190102ILb1EvEEPS6_
FNA:1,0,_ZNSt3__110unique_ptrINS_12basic_stringIcNS_11char_traitsIcEENS_9allocatorIcEEEENS_14default_deleteIS6_EEEC2B8ne190102ILb1EvEEPS6_
FNA:1,77,_ZNSt3__110unique_ptrINS_18basic_stringstreamIcNS_11char_traitsIcEENS_9allocatorIcEEEENS_14default_deleteIS6_EEEC1B8ne190102ILb1EvEEPS6_
FNA:1,77,_ZNSt3__110unique_ptrINS_18basic_stringstreamIcNS_11char_traitsIcEENS_9allocatorIcEEEENS_14default_deleteIS6_EEEC2B8ne190102ILb1EvEEPS6_
FNL:2,204,205
FNA:2,0,_ZNSt3__110unique_ptrIPN7testing8TestInfoERNS_12__destruct_nEEC1B8ne190102ILb1EvEEPS3_NS_16__dependent_typeINS_27__unique_ptr_deleter_sfinaeIS5_EEXT_EE15__lval_ref_typeE
FNA:2,0,_ZNSt3__110unique_ptrIPN7testing8TestInfoERNS_12__destruct_nEEC2B8ne190102ILb1EvEEPS3_NS_16__dependent_typeINS_27__unique_ptr_deleter_sfinaeIS5_EEXT_EE15__lval_ref_typeE
FNL:3,208,211
FNA:3,0,_ZNSt3__110unique_ptrINS_11__hash_nodeINS_12basic_stringIcNS_11char_traitsIcEENS_9allocatorIcEEEEPvEENS_22__hash_node_destructorINS5_IS9_EEEEEC1B8ne190102ILb1EvEEPS9_NS_16__dependent_typeINS_27__unique_ptr_deleter_sfinaeISC_EEXT_EE20__good_rval_ref_typeE
FNA:3,0,_ZNSt3__110unique_ptrINS_11__hash_nodeINS_12basic_stringIcNS_11char_traitsIcEENS_9allocatorIcEEEEPvEENS_22__hash_node_destructorINS5_IS9_EEEEEC2B8ne190102ILb1EvEEPS9_NS_16__dependent_typeINS_27__unique_ptr_deleter_sfinaeISC_EEXT_EE20__good_rval_ref_typeE
FNA:3,4,_ZNSt3__110unique_ptrINS_11__hash_nodeINS_17__hash_value_typeINS_12basic_stringIcNS_11char_traitsIcEENS_9allocatorIcEEEEPN7testing9TestSuiteEEEPvEENS_22__hash_node_destructorINS6_ISE_EEEEEC1B8ne190102ILb1EvEEPSE_NS_16__dependent_typeINS_27__unique_ptr_deleter_sfinaeISH_EEXT_EE20__good_rval_ref_typeE
FNA:3,4,_ZNSt3__110unique_ptrINS_11__hash_nodeINS_17__hash_value_typeINS_12basic_stringIcNS_11char_traitsIcEENS_9allocatorIcEEEEPN7testing9TestSuiteEEEPvEENS_22__hash_node_destructorINS6_ISE_EEEEEC2B8ne190102ILb1EvEEPSE_NS_16__dependent_typeINS_27__unique_ptr_deleter_sfinaeISH_EEXT_EE20__good_rval_ref_typeE
FNA:3,0,_ZNSt3__110unique_ptrINS_11__tree_nodeINS_12__value_typeINS_12basic_stringIcNS_11char_traitsIcEENS_9allocatorIcEEEEN7testing8internal34TypeParameterizedTestSuiteRegistry30TypeParameterizedTestSuiteInfoEEEPvEENS_22__tree_node_destructorINS6_ISF_EEEEEC1B8ne190102ILb1EvEEPSF_NS_16__dependent_typeINS_27__unique_ptr_deleter_sfinaeISI_EEXT_EE20__good_rval_ref_typeE
FNA:3,0,_ZNSt3__110unique_ptrINS_11__tree_nodeINS_12__value_typeINS_12basic_stringIcNS_11char_traitsIcEENS_9allocatorIcEEEEN7testing8internal34TypeParameterizedTestSuiteRegistry30TypeParameterizedTestSuiteInfoEEEPvEENS_22__tree_node_destructorINS6_ISF_EEEEEC2B8ne190102ILb1EvEEPSF_NS_16__dependent_typeINS_27__unique_ptr_deleter_sfinaeISI_EEXT_EE20__good_rval_ref_typeE
FNA:3,0,_ZNSt3__110unique_ptrINS_11__tree_nodeINS_12__value_typeINS_12basic_stringIcNS_11char_traitsIcEENS_9allocatorIcEEEEmEEPvEENS_22__tree_node_destructorINS6_ISB_EEEEEC1B8ne190102ILb1EvEEPSB_NS_16__dependent_typeINS_27__unique_ptr_deleter_sfinaeISE_EEXT_EE20__good_rval_ref_typeE
FNA:3,0,_ZNSt3__110unique_ptrINS_11__tree_nodeINS_12__value_typeINS_12basic_stringIcNS_11char_traitsIcEENS_9allocatorIcEEEEmEEPvEENS_22__tree_node_destructorINS6_ISB_EEEEEC2B8ne190102ILb1EvEEPSB_NS_16__dependent_typeINS_27__unique_ptr_deleter_sfinaeISE_EEXT_EE20__good_rval_ref_typeE
FNA:3,0,_ZNSt3__110unique_ptrINS_11__tree_nodeINS_12basic_stringIcNS_11char_traitsIcEENS_9allocatorIcEEEEPvEENS_22__tree_node_destructorINS5_IS9_EEEEEC1B8ne190102ILb1EvEEPS9_NS_16__dependent_typeINS_27__unique_ptr_deleter_sfinaeISC_EEXT_EE20__good_rval_ref_typeE
FNA:3,0,_ZNSt3__110unique_ptrINS_11__tree_nodeINS_12basic_stringIcNS_11char_traitsIcEENS_9allocatorIcEEEEPvEENS_22__tree_node_destructorINS5_IS9_EEEEEC2B8ne190102ILb1EvEEPS9_NS_16__dependent_typeINS_27__unique_ptr_deleter_sfinaeISC_EEXT_EE20__good_rval_ref_typeE
FNL:4,232,235
FNA:4,0,_ZNSt3__110unique_ptrINS_12basic_stringIcNS_11char_traitsIcEENS_9allocatorIcEEEENS_14default_deleteIS6_EEEaSB8ne190102EOS9_
FNL:5,262,262
FNA:5,0,_ZNSt3__110unique_ptrIKNS_12basic_stringIcNS_11char_traitsIcEENS_9allocatorIcEEEENS_14default_deleteIS7_EEED1B8ne190102Ev
FNA:5,0,_ZNSt3__110unique_ptrIKNS_12basic_stringIcNS_11char_traitsIcEENS_9allocatorIcEEEENS_14default_deleteIS7_EEED2B8ne190102Ev
FNA:5,0,_ZNSt3__110unique_ptrIN7testing8internal11ThreadLocalINS_6vectorINS2_9TraceInfoENS_9allocatorIS5_EEEEE18ValueHolderFactoryENS_14default_deleteISA_EEED1B8ne190102Ev
FNA:5,0,_ZNSt3__110unique_ptrIN7testing8internal11ThreadLocalINS_6vectorINS2_9TraceInfoENS_9allocatorIS5_EEEEE18ValueHolderFactoryENS_14default_deleteISA_EEED2B8ne190102Ev
FNA:5,0,_ZNSt3__110unique_ptrIN7testing8internal11ThreadLocalIPNS1_31TestPartResultReporterInterfaceEE18ValueHolderFactoryENS_14default_deleteIS7_EEED1B8ne190102Ev
FNA:5,0,_ZNSt3__110unique_ptrIN7testing8internal11ThreadLocalIPNS1_31TestPartResultReporterInterfaceEE18ValueHolderFactoryENS_14default_deleteIS7_EEED2B8ne190102Ev
FNA:5,12,_ZNSt3__110unique_ptrIN7testing8internal14GTestFlagSaverENS_14default_deleteIS3_EEED1B8ne190102Ev
FNA:5,12,_ZNSt3__110unique_ptrIN7testing8internal14GTestFlagSaverENS_14default_deleteIS3_EEED2B8ne190102Ev
FNA:5,0,_ZNSt3__110unique_ptrIN7testing8internal16DeathTestFactoryENS_14default_deleteIS3_EEED1B8ne190102Ev
FNA:5,0,_ZNSt3__110unique_ptrIN7testing8internal16DeathTestFactoryENS_14default_deleteIS3_EEED2B8ne190102Ev
FNA:5,0,_ZNSt3__110unique_ptrIN7testing8internal17StreamingListener20AbstractSocketWriterENS_14default_deleteIS4_EEED1B8ne190102Ev
FNA:5,0,_ZNSt3__110unique_ptrIN7testing8internal17StreamingListener20AbstractSocketWriterENS_14default_deleteIS4_EEED2B8ne190102Ev
FNA:5,0,_ZNSt3__110unique_ptrIN7testing8internal24InternalRunDeathTestFlagENS_14default_deleteIS3_EEED1B8ne190102Ev
FNA:5,0,_ZNSt3__110unique_ptrIN7testing8internal24InternalRunDeathTestFlagENS_14default_deleteIS3_EEED2B8ne190102Ev
FNA:5,0,_ZNSt3__110unique_ptrINS_11__hash_nodeINS_12basic_stringIcNS_11char_traitsIcEENS_9allocatorIcEEEEPvEENS_22__hash_node_destructorINS5_IS9_EEEEED1B8ne190102Ev
FNA:5,0,_ZNSt3__110unique_ptrINS_11__hash_nodeINS_12basic_stringIcNS_11char_traitsIcEENS_9allocatorIcEEEEPvEENS_22__hash_node_destructorINS5_IS9_EEEEED2B8ne190102Ev
FNA:5,4,_ZNSt3__110unique_ptrINS_11__hash_nodeINS_17__hash_value_typeINS_12basic_stringIcNS_11char_traitsIcEENS_9allocatorIcEEEEPN7testing9TestSuiteEEEPvEENS_22__hash_node_destructorINS6_ISE_EEEEED1B8ne190102Ev
FNA:5,4,_ZNSt3__110unique_ptrINS_11__hash_nodeINS_17__hash_value_typeINS_12basic_stringIcNS_11char_traitsIcEENS_9allocatorIcEEEEPN7testing9TestSuiteEEEPvEENS_22__hash_node_destructorINS6_ISE_EEEEED2B8ne190102Ev
FNA:5,0,_ZNSt3__110unique_ptrINS_11__tree_nodeINS_12__value_typeINS_12basic_stringIcNS_11char_traitsIcEENS_9allocatorIcEEEEN7testing8internal34TypeParameterizedTestSuiteRegistry30TypeParameterizedTestSuiteInfoEEEPvEENS_22__tree_node_destructorINS6_ISF_EEEEED1B8ne190102Ev
FNA:5,0,_ZNSt3__110unique_ptrINS_11__tree_nodeINS_12__value_typeINS_12basic_stringIcNS_11char_traitsIcEENS_9allocatorIcEEEEN7testing8internal34TypeParameterizedTestSuiteRegistry30TypeParameterizedTestSuiteInfoEEEPvEENS_22__tree_node_destructorINS6_ISF_EEEEED2B8ne190102Ev
FNA:5,0,_ZNSt3__110unique_ptrINS_11__tree_nodeINS_12__value_typeINS_12basic_stringIcNS_11char_traitsIcEENS_9allocatorIcEEEEmEEPvEENS_22__tree_node_destructorINS6_ISB_EEEEED1B8ne190102Ev
FNA:5,0,_ZNSt3__110unique_ptrINS_11__tree_nodeINS_12__value_typeINS_12basic_stringIcNS_11char_traitsIcEENS_9allocatorIcEEEEmEEPvEENS_22__tree_node_destructorINS6_ISB_EEEEED2B8ne190102Ev
FNA:5,0,_ZNSt3__110unique_ptrINS_11__tree_nodeINS_12basic_stringIcNS_11char_traitsIcEENS_9allocatorIcEEEEPvEENS_22__tree_node_destructorINS5_IS9_EEEEED1B8ne190102Ev
FNA:5,0,_ZNSt3__110unique_ptrINS_11__tree_nodeINS_12basic_stringIcNS_11char_traitsIcEENS_9allocatorIcEEEEPvEENS_22__tree_node_destructorINS5_IS9_EEEEED2B8ne190102Ev
FNA:5,12,_ZNSt3__110unique_ptrINS_12basic_stringIcNS_11char_traitsIcEENS_9allocatorIcEEEENS_14default_deleteIS6_EEED1B8ne190102Ev
FNA:5,12,_ZNSt3__110unique_ptrINS_12basic_stringIcNS_11char_traitsIcEENS_9allocatorIcEEEENS_14default_deleteIS6_EEED2B8ne190102Ev
FNA:5,77,_ZNSt3__110unique_ptrINS_18basic_stringstreamIcNS_11char_traitsIcEENS_9allocatorIcEEEENS_14default_deleteIS6_EEED1B8ne190102Ev
FNA:5,77,_ZNSt3__110unique_ptrINS_18basic_stringstreamIcNS_11char_traitsIcEENS_9allocatorIcEEEENS_14default_deleteIS6_EEED2B8ne190102Ev
FNA:5,4,_ZNSt3__110unique_ptrIPN7testing8TestInfoENS_25__return_temporary_bufferEED1B8ne190102Ev
FNA:5,4,_ZNSt3__110unique_ptrIPN7testing8TestInfoENS_25__return_temporary_bufferEED2B8ne190102Ev
FNA:5,0,_ZNSt3__110unique_ptrIPN7testing8TestInfoERNS_12__destruct_nEED1B8ne190102Ev
FNA:5,0,_ZNSt3__110unique_ptrIPN7testing8TestInfoERNS_12__destruct_nEED2B8ne190102Ev
FNL:6,269,271
FNA:6,0,_ZNKSt3__110unique_ptrINS_11__hash_nodeINS_12basic_stringIcNS_11char_traitsIcEENS_9allocatorIcEEEEPvEENS_22__hash_node_destructorINS5_IS9_EEEEEdeB8ne190102Ev
FNA:6,4,_ZNKSt3__110unique_ptrINS_11__hash_nodeINS_17__hash_value_typeINS_12basic_stringIcNS_11char_traitsIcEENS_9allocatorIcEEEEPN7testing9TestSuiteEEEPvEENS_22__hash_node_destructorINS6_ISE_EEEEEdeB8ne190102Ev
FNA:6,0,_ZNKSt3__110unique_ptrINS_12basic_stringIcNS_11char_traitsIcEENS_9allocatorIcEEEENS_14default_deleteIS6_EEEdeB8ne190102Ev
FNA:6,626,_ZNKSt3__110unique_ptrINS_18basic_stringstreamIcNS_11char_traitsIcEENS_9allocatorIcEEEENS_14default_deleteIS6_EEEdeB8ne190102Ev
FNL:7,273,273
FNA:7,0,_ZNKSt3__110unique_ptrIKNS_12basic_stringIcNS_11char_traitsIcEENS_9allocatorIcEEEENS_14default_deleteIS7_EEEptB8ne190102Ev
FNA:7,0,_ZNKSt3__110unique_ptrIN7testing8internal11ThreadLocalINS_6vectorINS2_9TraceInfoENS_9allocatorIS5_EEEEE18ValueHolderFactoryENS_14default_deleteISA_EEEptB8ne190102Ev
FNA:7,0,_ZNKSt3__110unique_ptrIN7testing8internal11ThreadLocalIPNS1_31TestPartResultReporterInterfaceEE18ValueHolderFactoryENS_14default_deleteIS7_EEEptB8ne190102Ev
FNA:7,0,_ZNKSt3__110unique_ptrIN7testing8internal17StreamingListener20AbstractSocketWriterENS_14default_deleteIS4_EEEptB8ne190102Ev
FNA:7,0,_ZNKSt3__110unique_ptrINS_11__hash_nodeINS_12basic_stringIcNS_11char_traitsIcEENS_9allocatorIcEEEEPvEENS_22__hash_node_destructorINS5_IS9_EEEEEptB8ne190102Ev
FNA:7,13,_ZNKSt3__110unique_ptrINS_11__hash_nodeINS_17__hash_value_typeINS_12basic_stringIcNS_11char_traitsIcEENS_9allocatorIcEEEEPN7testing9TestSuiteEEEPvEENS_22__hash_node_destructorINS6_ISE_EEEEEptB8ne190102Ev
FNA:7,0,_ZNKSt3__110unique_ptrINS_11__tree_nodeINS_12__value_typeINS_12basic_stringIcNS_11char_traitsIcEENS_9allocatorIcEEEEN7testing8internal34TypeParameterizedTestSuiteRegistry30TypeParameterizedTestSuiteInfoEEEPvEENS_22__tree_node_destructorINS6_ISF_EEEEEptB8ne190102Ev
FNA:7,0,_ZNKSt3__110unique_ptrINS_11__tree_nodeINS_12__value_typeINS_12basic_stringIcNS_11char_traitsIcEENS_9allocatorIcEEEEmEEPvEENS_22__tree_node_destructorINS6_ISB_EEEEEptB8ne190102Ev
FNA:7,0,_ZNKSt3__110unique_ptrINS_11__tree_nodeINS_12basic_stringIcNS_11char_traitsIcEENS_9allocatorIcEEEEPvEENS_22__tree_node_destructorINS5_IS9_EEEEEptB8ne190102Ev
FNA:7,0,_ZNKSt3__110unique_ptrINS_12basic_stringIcNS_11char_traitsIcEENS_9allocatorIcEEEENS_14default_deleteIS6_EEEptB8ne190102Ev
FNL:8,274,274
FNA:8,0,_ZNKSt3__110unique_ptrIN7testing8internal16DeathTestFactoryENS_14default_deleteIS3_EEE3getB8ne190102Ev
FNA:8,0,_ZNKSt3__110unique_ptrIN7testing8internal24InternalRunDeathTestFlagENS_14default_deleteIS3_EEE3getB8ne190102Ev
FNA:8,0,_ZNKSt3__110unique_ptrINS_11__hash_nodeINS_12basic_stringIcNS_11char_traitsIcEENS_9allocatorIcEEEEPvEENS_22__hash_node_destructorINS5_IS9_EEEEE3getB8ne190102Ev
FNA:8,6,_ZNKSt3__110unique_ptrINS_11__hash_nodeINS_17__hash_value_typeINS_12basic_stringIcNS_11char_traitsIcEENS_9allocatorIcEEEEPN7testing9TestSuiteEEEPvEENS_22__hash_node_destructorINS6_ISE_EEEEE3getB8ne190102Ev
FNA:8,0,_ZNKSt3__110unique_ptrINS_11__tree_nodeINS_12__value_typeINS_12basic_stringIcNS_11char_traitsIcEENS_9allocatorIcEEEEN7testing8internal34TypeParameterizedTestSuiteRegistry30TypeParameterizedTestSuiteInfoEEEPvEENS_22__tree_node_destructorINS6_ISF_EEEEE3getB8ne190102Ev
FNA:8,0,_ZNKSt3__110unique_ptrINS_11__tree_nodeINS_12__value_typeINS_12basic_stringIcNS_11char_traitsIcEENS_9allocatorIcEEEEmEEPvEENS_22__tree_node_destructorINS6_ISB_EEEEE3getB8ne190102Ev
FNA:8,0,_ZNKSt3__110unique_ptrINS_11__tree_nodeINS_12basic_stringIcNS_11char_traitsIcEENS_9allocatorIcEEEEPvEENS_22__tree_node_destructorINS5_IS9_EEEEE3getB8ne190102Ev
FNA:8,77,_ZNKSt3__110unique_ptrINS_18basic_stringstreamIcNS_11char_traitsIcEENS_9allocatorIcEEEENS_14default_deleteIS6_EEE3getB8ne190102Ev
FNL:9,275,275
FNA:9,0,_ZNSt3__110unique_ptrINS_11__hash_nodeINS_12basic_stringIcNS_11char_traitsIcEENS_9allocatorIcEEEEPvEENS_22__hash_node_destructorINS5_IS9_EEEEE11get_deleterB8ne190102Ev
FNA:9,4,_ZNSt3__110unique_ptrINS_11__hash_nodeINS_17__hash_value_typeINS_12basic_stringIcNS_11char_traitsIcEENS_9allocatorIcEEEEPN7testing9TestSuiteEEEPvEENS_22__hash_node_destructorINS6_ISE_EEEEE11get_deleterB8ne190102Ev
FNA:9,0,_ZNSt3__110unique_ptrINS_11__tree_nodeINS_12__value_typeINS_12basic_stringIcNS_11char_traitsIcEENS_9allocatorIcEEEEN7testing8internal34TypeParameterizedTestSuiteRegistry30TypeParameterizedTestSuiteInfoEEEPvEENS_22__tree_node_destructorINS6_ISF_EEEEE11get_deleterB8ne190102Ev
FNA:9,0,_ZNSt3__110unique_ptrINS_11__tree_nodeINS_12__value_typeINS_12basic_stringIcNS_11char_traitsIcEENS_9allocatorIcEEEEmEEPvEENS_22__tree_node_destructorINS6_ISB_EEEEE11get_deleterB8ne190102Ev
FNA:9,0,_ZNSt3__110unique_ptrINS_11__tree_nodeINS_12basic_stringIcNS_11char_traitsIcEENS_9allocatorIcEEEEPvEENS_22__tree_node_destructorINS5_IS9_EEEEE11get_deleterB8ne190102Ev
FNA:9,0,_ZNSt3__110unique_ptrINS_12basic_stringIcNS_11char_traitsIcEENS_9allocatorIcEEEENS_14default_deleteIS6_EEE11get_deleterB8ne190102Ev
FNL:10,279,280
FNA:10,16,_ZNKSt3__110unique_ptrIKNS_12basic_stringIcNS_11char_traitsIcEENS_9allocatorIcEEEENS_14default_deleteIS7_EEEcvbB8ne190102Ev
FNA:10,2,_ZNKSt3__110unique_ptrIN7testing8internal24InternalRunDeathTestFlagENS_14default_deleteIS3_EEEcvbB8ne190102Ev
FNA:10,0,_ZNKSt3__110unique_ptrINS_12basic_stringIcNS_11char_traitsIcEENS_9allocatorIcEEEENS_14default_deleteIS6_EEEcvbB8ne190102Ev
FNL:11,283,286
FNA:11,0,_ZNSt3__110unique_ptrINS_11__hash_nodeINS_12basic_stringIcNS_11char_traitsIcEENS_9allocatorIcEEEEPvEENS_22__hash_node_destructorINS5_IS9_EEEEE7releaseB8ne190102Ev
FNA:11,4,_ZNSt3__110unique_ptrINS_11__hash_nodeINS_17__hash_value_typeINS_12basic_stringIcNS_11char_traitsIcEENS_9allocatorIcEEEEPN7testing9TestSuiteEEEPvEENS_22__hash_node_destructorINS6_ISE_EEEEE7releaseB8ne190102Ev
FNA:11,0,_ZNSt3__110unique_ptrINS_11__tree_nodeINS_12__value_typeINS_12basic_stringIcNS_11char_traitsIcEENS_9allocatorIcEEEEN7testing8internal34TypeParameterizedTestSuiteRegistry30TypeParameterizedTestSuiteInfoEEEPvEENS_22__tree_node_destructorINS6_ISF_EEEEE7releaseB8ne190102Ev
FNA:11,0,_ZNSt3__110unique_ptrINS_11__tree_nodeINS_12__value_typeINS_12basic_stringIcNS_11char_traitsIcEENS_9allocatorIcEEEEmEEPvEENS_22__tree_node_destructorINS6_ISB_EEEEE7releaseB8ne190102Ev
FNA:11,0,_ZNSt3__110unique_ptrINS_11__tree_nodeINS_12basic_stringIcNS_11char_traitsIcEENS_9allocatorIcEEEEPvEENS_22__tree_node_destructorINS5_IS9_EEEEE7releaseB8ne190102Ev
FNA:11,0,_ZNSt3__110unique_ptrINS_12basic_stringIcNS_11char_traitsIcEENS_9allocatorIcEEEENS_14default_deleteIS6_EEE7releaseB8ne190102Ev
FNA:11,0,_ZNSt3__110unique_ptrIPN7testing8TestInfoERNS_12__destruct_nEE7releaseB8ne190102Ev
FNL:12,289,294
FNA:12,0,_ZNSt3__110unique_ptrIKNS_12basic_stringIcNS_11char_traitsIcEENS_9allocatorIcEEEENS_14default_deleteIS7_EEE5resetB8ne190102EPS7_
FNA:12,0,_ZNSt3__110unique_ptrIN7testing8internal11ThreadLocalINS_6vectorINS2_9TraceInfoENS_9allocatorIS5_EEEEE18ValueHolderFactoryENS_14default_deleteISA_EEE5resetB8ne190102EPSA_
FNA:12,0,_ZNSt3__110unique_ptrIN7testing8internal11ThreadLocalIPNS1_31TestPartResultReporterInterfaceEE18ValueHolderFactoryENS_14default_deleteIS7_EEE5resetB8ne190102EPS7_
FNA:12,12,_ZNSt3__110unique_ptrIN7testing8internal14GTestFlagSaverENS_14default_deleteIS3_EEE5resetB8ne190102EPS3_
FNA:12,0,_ZNSt3__110unique_ptrIN7testing8internal16DeathTestFactoryENS_14default_deleteIS3_EEE5resetB8ne190102EPS3_
FNA:12,0,_ZNSt3__110unique_ptrIN7testing8internal17StreamingListener20AbstractSocketWriterENS_14default_deleteIS4_EEE5resetB8ne190102EPS4_
FNA:12,1,_ZNSt3__110unique_ptrIN7testing8internal24InternalRunDeathTestFlagENS_14default_deleteIS3_EEE5resetB8ne190102EPS3_
FNA:12,0,_ZNSt3__110unique_ptrINS_11__hash_nodeINS_12basic_stringIcNS_11char_traitsIcEENS_9allocatorIcEEEEPvEENS_22__hash_node_destructorINS5_IS9_EEEEE5resetB8ne190102EPS9_
FNA:12,4,_ZNSt3__110unique_ptrINS_11__hash_nodeINS_17__hash_value_typeINS_12basic_stringIcNS_11char_traitsIcEENS_9allocatorIcEEEEPN7testing9TestSuiteEEEPvEENS_22__hash_node_destructorINS6_ISE_EEEEE5resetB8ne190102EPSE_
FNA:12,0,_ZNSt3__110unique_ptrINS_11__tree_nodeINS_12__value_typeINS_12basic_stringIcNS_11char_traitsIcEENS_9allocatorIcEEEEN7testing8internal34TypeParameterizedTestSuiteRegistry30TypeParameterizedTestSuiteInfoEEEPvEENS_22__tree_node_destructorINS6_ISF_EEEEE5resetB8ne190102EPSF_
FNA:12,0,_ZNSt3__110unique_ptrINS_11__tree_nodeINS_12__value_typeINS_12basic_stringIcNS_11char_traitsIcEENS_9allocatorIcEEEEmEEPvEENS_22__tree_node_destructorINS6_ISB_EEEEE5resetB8ne190102EPSB_
FNA:12,0,_ZNSt3__110unique_ptrINS_11__tree_nodeINS_12basic_stringIcNS_11char_traitsIcEENS_9allocatorIcEEEEPvEENS_22__tree_node_destructorINS5_IS9_EEEEE5resetB8ne190102EPS9_
FNA:12,12,_ZNSt3__110unique_ptrINS_12basic_stringIcNS_11char_traitsIcEENS_9allocatorIcEEEENS_14default_deleteIS6_EEE5resetB8ne190102EPS6_
FNA:12,77,_ZNSt3__110unique_ptrINS_18basic_stringstreamIcNS_11char_traitsIcEENS_9allocatorIcEEEENS_14default_deleteIS6_EEE5resetB8ne190102EPS6_
FNA:12,4,_ZNSt3__110unique_ptrIPN7testing8TestInfoENS_25__return_temporary_bufferEE5resetB8ne190102EPS3_
FNA:12,0,_ZNSt3__110unique_ptrIPN7testing8TestInfoERNS_12__destruct_nEE5resetB8ne190102EPS3_
FNL:13,296,296
FNA:13,0,_ZNSt3__110unique_ptrINS_12basic_stringIcNS_11char_traitsIcEENS_9allocatorIcEEEENS_14default_deleteIS6_EEE4swapB8ne190102ERS9_
FNL:14,367,367
FNA:14,11,_ZNSt3__110unique_ptrIA_PNS_16__hash_node_baseIPNS_11__hash_nodeINS_12basic_stringIcNS_11char_traitsIcEENS_9allocatorIcEEEEPvEEEENS_25__bucket_list_deallocatorINS6_ISD_EEEEEC1B8ne190102ILb1EvEEv
FNA:14,11,_ZNSt3__110unique_ptrIA_PNS_16__hash_node_baseIPNS_11__hash_nodeINS_12basic_stringIcNS_11char_traitsIcEENS_9allocatorIcEEEEPvEEEENS_25__bucket_list_deallocatorINS6_ISD_EEEEEC2B8ne190102ILb1EvEEv
FNA:14,1,_ZNSt3__110unique_ptrIA_PNS_16__hash_node_baseIPNS_11__hash_nodeINS_17__hash_value_typeINS_12basic_stringIcNS_11char_traitsIcEENS_9allocatorIcEEEEPN7testing9TestSuiteEEEPvEEEENS_25__bucket_list_deallocatorINS7_ISI_EEEEEC1B8ne190102ILb1EvEEv
FNA:14,1,_ZNSt3__110unique_ptrIA_PNS_16__hash_node_baseIPNS_11__hash_nodeINS_17__hash_value_typeINS_12basic_stringIcNS_11char_traitsIcEENS_9allocatorIcEEEEPN7testing9TestSuiteEEEPvEEEENS_25__bucket_list_deallocatorINS7_ISI_EEEEEC2B8ne190102ILb1EvEEv
FNA:14,1,_ZNSt3__110unique_ptrIA_PNS_16__hash_node_baseIPNS_11__hash_nodeINS_17__hash_value_typeINS_12basic_stringIcNS_11char_traitsIcEENS_9allocatorIcEEEEmEEPvEEEENS_25__bucket_list_deallocatorINS7_ISF_EEEEEC1B8ne190102ILb1EvEEv
FNA:14,1,_ZNSt3__110unique_ptrIA_PNS_16__hash_node_baseIPNS_11__hash_nodeINS_17__hash_value_typeINS_12basic_stringIcNS_11char_traitsIcEENS_9allocatorIcEEEEmEEPvEEEENS_25__bucket_list_deallocatorINS7_ISF_EEEEEC2B8ne190102ILb1EvEEv
FNL:15,444,444
FNA:15,11,_ZNSt3__110unique_ptrIA_PNS_16__hash_node_baseIPNS_11__hash_nodeINS_12basic_stringIcNS_11char_traitsIcEENS_9allocatorIcEEEEPvEEEENS_25__bucket_list_deallocatorINS6_ISD_EEEEED1B8ne190102Ev
FNA:15,11,_ZNSt3__110unique_ptrIA_PNS_16__hash_node_baseIPNS_11__hash_nodeINS_12basic_stringIcNS_11char_traitsIcEENS_9allocatorIcEEEEPvEEEENS_25__bucket_list_deallocatorINS6_ISD_EEEEED2B8ne190102Ev
FNA:15,0,_ZNSt3__110unique_ptrIA_PNS_16__hash_node_baseIPNS_11__hash_nodeINS_17__hash_value_typeINS_12basic_stringIcNS_11char_traitsIcEENS_9allocatorIcEEEEPN7testing9TestSuiteEEEPvEEEENS_25__bucket_list_deallocatorINS7_ISI_EEEEED1B8ne190102Ev
FNA:15,0,_ZNSt3__110unique_ptrIA_PNS_16__hash_node_baseIPNS_11__hash_nodeINS_17__hash_value_typeINS_12basic_stringIcNS_11char_traitsIcEENS_9allocatorIcEEEEPN7testing9TestSuiteEEEPvEEEENS_25__bucket_list_deallocatorINS7_ISI_EEEEED2B8ne190102Ev
FNA:15,0,_ZNSt3__110unique_ptrIA_PNS_16__hash_node_baseIPNS_11__hash_nodeINS_17__hash_value_typeINS_12basic_stringIcNS_11char_traitsIcEENS_9allocatorIcEEEEmEEPvEEEENS_25__bucket_list_deallocatorINS7_ISF_EEEEED1B8ne190102Ev
FNA:15,0,_ZNSt3__110unique_ptrIA_PNS_16__hash_node_baseIPNS_11__hash_nodeINS_17__hash_value_typeINS_12basic_stringIcNS_11char_traitsIcEENS_9allocatorIcEEEEmEEPvEEEENS_25__bucket_list_deallocatorINS7_ISF_EEEEED2B8ne190102Ev
FNL:16,451,452
FNA:16,0,_ZNKSt3__110unique_ptrIA_PNS_16__hash_node_baseIPNS_11__hash_nodeINS_12basic_stringIcNS_11char_traitsIcEENS_9allocatorIcEEEEPvEEEENS_25__bucket_list_deallocatorINS6_ISD_EEEEEixB8ne190102Em
FNA:16,23,_ZNKSt3__110unique_ptrIA_PNS_16__hash_node_baseIPNS_11__hash_nodeINS_17__hash_value_typeINS_12basic_stringIcNS_11char_traitsIcEENS_9allocatorIcEEEEPN7testing9TestSuiteEEEPvEEEENS_25__bucket_list_deallocatorINS7_ISI_EEEEEixB8ne190102Em
FNL:17,456,456
FNA:17,10,_ZNSt3__110unique_ptrIA_PNS_16__hash_node_baseIPNS_11__hash_nodeINS_12basic_stringIcNS_11char_traitsIcEENS_9allocatorIcEEEEPvEEEENS_25__bucket_list_deallocatorINS6_ISD_EEEEE11get_deleterB8ne190102Ev
FNA:17,4,_ZNSt3__110unique_ptrIA_PNS_16__hash_node_baseIPNS_11__hash_nodeINS_17__hash_value_typeINS_12basic_stringIcNS_11char_traitsIcEENS_9allocatorIcEEEEPN7testing9TestSuiteEEEPvEEEENS_25__bucket_list_deallocatorINS7_ISI_EEEEE11get_deleterB8ne190102Ev
FNL:18,458,459
FNA:18,54,_ZNKSt3__110unique_ptrIA_PNS_16__hash_node_baseIPNS_11__hash_nodeINS_12basic_stringIcNS_11char_traitsIcEENS_9allocatorIcEEEEPvEEEENS_25__bucket_list_deallocatorINS6_ISD_EEEEE11get_deleterB8ne190102Ev
FNA:18,12,_ZNKSt3__110unique_ptrIA_PNS_16__hash_node_baseIPNS_11__hash_nodeINS_17__hash_value_typeINS_12basic_stringIcNS_11char_traitsIcEENS_9allocatorIcEEEEPN7testing9TestSuiteEEEPvEEEENS_25__bucket_list_deallocatorINS7_ISI_EEEEE11get_deleterB8ne190102Ev
FNL:19,465,468
FNA:19,2,_ZNSt3__110unique_ptrIA_PNS_16__hash_node_baseIPNS_11__hash_nodeINS_12basic_stringIcNS_11char_traitsIcEENS_9allocatorIcEEEEPvEEEENS_25__bucket_list_deallocatorINS6_ISD_EEEEE7releaseB8ne190102Ev
FNL:20,472,477
FNA:20,2,_ZNSt3__110unique_ptrIA_PNS_16__hash_node_baseIPNS_11__hash_nodeINS_12basic_stringIcNS_11char_traitsIcEENS_9allocatorIcEEEEPvEEEENS_25__bucket_list_deallocatorINS6_ISD_EEEEE5resetB8ne190102IPSD_Li0EEEvT_
FNA:20,2,_ZNSt3__110unique_ptrIA_PNS_16__hash_node_baseIPNS_11__hash_nodeINS_17__hash_value_typeINS_12basic_stringIcNS_11char_traitsIcEENS_9allocatorIcEEEEPN7testing9TestSuiteEEEPvEEEENS_25__bucket_list_deallocatorINS7_ISI_EEEEE5resetB8ne190102IPSI_Li0EEEvT_
FNL:21,479,484
FNA:21,11,_ZNSt3__110unique_ptrIA_PNS_16__hash_node_baseIPNS_11__hash_nodeINS_12basic_stringIcNS_11char_traitsIcEENS_9allocatorIcEEEEPvEEEENS_25__bucket_list_deallocatorINS6_ISD_EEEEE5resetB8ne190102EDn
FNA:21,0,_ZNSt3__110unique_ptrIA_PNS_16__hash_node_baseIPNS_11__hash_nodeINS_17__hash_value_typeINS_12basic_stringIcNS_11char_traitsIcEENS_9allocatorIcEEEEPN7testing9TestSuiteEEEPvEEEENS_25__bucket_list_deallocatorINS7_ISI_EEEEE5resetB8ne190102EDn
FNA:21,0,_ZNSt3__110unique_ptrIA_PNS_16__hash_node_baseIPNS_11__hash_nodeINS_17__hash_value_typeINS_12basic_stringIcNS_11char_traitsIcEENS_9allocatorIcEEEEmEEPvEEEENS_25__bucket_list_deallocatorINS7_ISF_EEEEE5resetB8ne190102EDn
FNL:22,491,493
FNA:22,0,_ZNSt3__14swapB8ne190102INS_12basic_stringIcNS_11char_traitsIcEENS_9allocatorIcEEEENS_14default_deleteIS6_EELi0EEEvRNS_10unique_ptrIT_T0_EESD_
FNL:23,543,544
FNA:23,0,_ZNSt3__1eqB8ne190102INS_12basic_stringIcNS_11char_traitsIcEENS_9allocatorIcEEEENS_14default_deleteIS6_EEEEbRKNS_10unique_ptrIT_T0_EEDn
FNL:24,554,555
FNA:24,16,_ZNSt3__1neB8ne190102IKNS_12basic_stringIcNS_11char_traitsIcEENS_9allocatorIcEEEENS_14default_deleteIS7_EEEEbRKNS_10unique_ptrIT_T0_EEDn
FNA:24,2,_ZNSt3__1neB8ne190102IN7testing8internal24InternalRunDeathTestFlagENS_14default_deleteIS3_EEEEbRKNS_10unique_ptrIT_T0_EEDn
FNA:24,0,_ZNSt3__1neB8ne190102INS_12basic_stringIcNS_11char_traitsIcEENS_9allocatorIcEEEENS_14default_deleteIS6_EEEEbRKNS_10unique_ptrIT_T0_EEDn
FNL:25,634,635
FNA:25,0,_ZNSt3__111make_uniqueB8ne190102INS_12basic_stringIcNS_11char_traitsIcEENS_9allocatorIcEEEEJEEENS_11__unique_ifIT_E15__unique_singleEDpOT0_
FNL:26,78,82
FNA:26,0,_ZNKSt3__114default_deleteIKNS_12basic_stringIcNS_11char_traitsIcEENS_9allocatorIcEEEEEclB8ne190102EPS7_
FNA:26,0,_ZNKSt3__114default_deleteIN7testing8internal11ThreadLocalINS_6vectorINS2_9TraceInfoENS_9allocatorIS5_EEEEE18ValueHolderFactoryEEclB8ne190102EPSA_
FNA:26,0,_ZNKSt3__114default_deleteIN7testing8internal11ThreadLocalIPNS1_31TestPartResultReporterInterfaceEE18ValueHolderFactoryEEclB8ne190102EPS7_
FNA:26,12,_ZNKSt3__114default_deleteIN7testing8internal14GTestFlagSaverEEclB8ne190102EPS3_
FNA:26,0,_ZNKSt3__114default_deleteIN7testing8internal16DeathTestFactoryEEclB8ne190102EPS3_
FNA:26,0,_ZNKSt3__114default_deleteIN7testing8internal17StreamingListener20AbstractSocketWriterEEclB8ne190102EPS4_
FNA:26,0,_ZNKSt3__114default_deleteIN7testing8internal24InternalRunDeathTestFlagEEclB8ne190102EPS3_
FNA:26,0,_ZNKSt3__114default_deleteINS_12basic_stringIcNS_11char_traitsIcEENS_9allocatorIcEEEEEclB8ne190102EPS6_
FNA:26,77,_ZNKSt3__114default_deleteINS_18basic_stringstreamIcNS_11char_traitsIcEENS_9allocatorIcEEEEEclB8ne190102EPS6_
FNF:27
FNH:21
DA:78,89
DA:81,89
DA:82,89
DA:193,34
DA:201,240
DA:204,0
DA:205,0
DA:208,8
DA:209,8
DA:211,8
DA:232,0
DA:233,0
DA:234,0
DA:235,0
DA:262,218
DA:269,630
DA:271,630
DA:273,13
DA:274,83
DA:275,4
DA:279,18
DA:280,18
DA:283,4
DA:284,4
DA:285,4
DA:286,4
DA:289,110
DA:290,110
DA:291,110
DA:292,110
DA:293,89
DA:294,110
DA:296,0
DA:367,26
DA:444,22
DA:451,23
DA:452,23
DA:456,14
DA:458,66
DA:459,66
DA:465,2
DA:466,2
DA:467,2
DA:468,2
DA:472,4
DA:473,4
DA:474,4
DA:475,4
DA:476,1
DA:477,4
DA:479,11
DA:480,11
DA:481,11
DA:482,11
DA:483,0
DA:484,11
DA:491,0
DA:492,0
DA:493,0
DA:543,0
DA:544,0
DA:554,18
DA:555,18
DA:634,0
DA:635,0
LF:65
LH:50
end_of_record
TN:
SF:/Library/Developer/CommandLineTools/SDKs/MacOSX.sdk/usr/include/c++/v1/__ostream/basic_ostream.h
FNL:0,127,127
FNA:0,77,_ZNSt3__113basic_ostreamIcNS_11char_traitsIcEEEC2B8ne190102Ev
FNL:1,141,141
FNA:1,519,_ZNKSt3__113basic_ostreamIcNS_11char_traitsIcEEE6sentrycvbB8ne190102Ev
FNL:2,499,522
FNA:2,519,_ZNSt3__124__put_character_sequenceB8ne190102IcNS_11char_traitsIcEEEERNS_13basic_ostreamIT_T0_EES7_PKS4_m
FNL:3,50,52
FNA:3,0,_ZNSt3__113basic_ostreamIcNS_11char_traitsIcEEEC2B8ne190102EPNS_15basic_streambufIcS2_EE
FNL:4,557,558
FNA:4,472,_ZNSt3__1lsB8ne190102INS_11char_traitsIcEEEERNS_13basic_ostreamIcT_EES6_c
FNL:5,618,619
FNA:5,47,_ZNSt3__1lsB8ne190102INS_11char_traitsIcEEEERNS_13basic_ostreamIcT_EES6_PKc
FNL:6,723,726
FNA:6,0,_ZNSt3__14endlB8ne190102IcNS_11char_traitsIcEEEERNS_13basic_ostreamIT_T0_EES7_
FNL:7,73,74
FNA:7,0,_ZNSt3__113basic_ostreamIcNS_11char_traitsIcEEElsB8ne190102EPFRS3_S4_E
FNL:8,757,758
FNA:8,0,_ZNSt3__1lsB8ne190102IcNS_11char_traitsIcEENS_9allocatorIcEEEERNS_13basic_ostreamIT_T0_EES9_RKNS_12basic_stringIS6_S7_T1_EE
FNL:9,763,764
FNA:9,0,_ZNSt3__1lsB8ne190102IcNS_11char_traitsIcEEEERNS_13basic_ostreamIT_T0_EES7_NS_17basic_string_viewIS4_S5_EE
FNL:10,83,85
FNA:10,0,_ZNSt3__113basic_ostreamIcNS_11char_traitsIcEEElsB8ne190102EPFRNS_8ios_baseES5_E
FNF:11
FNH:5
DA:50,0
DA:51,0
DA:52,0
DA:73,0
DA:74,0
DA:83,0
DA:84,0
DA:85,0
DA:127,77
DA:141,519
DA:499,519
DA:503,519
DA:504,519
DA:506,519
DA:507,519
DA:508,519
DA:509,519
DA:510,519
DA:511,519
DA:512,519
DA:513,519
DA:514,0
DA:515,519
DA:517,519
DA:518,0
DA:519,0
DA:521,519
DA:522,0
DA:557,472
DA:558,472
DA:618,47
DA:619,47
DA:723,0
DA:724,0
DA:725,0
DA:726,0
DA:757,0
DA:758,0
DA:763,0
DA:764,0
LF:40
LH:20
end_of_record
TN:
SF:/Library/Developer/CommandLineTools/SDKs/MacOSX.sdk/usr/include/c++/v1/__split_buffer
FNL:0,114
FNA:0,0,_ZNSt3__114__split_bufferIN7testing12TestPropertyERNS_9allocatorIS2_EEE7__allocB8ne190102Ev
FNA:0,0,_ZNSt3__114__split_bufferIN7testing14TestPartResultERNS_9allocatorIS2_EEE7__allocB8ne190102Ev
FNA:0,0,_ZNSt3__114__split_bufferIN7testing8internal13edit_distance8EditTypeERNS_9allocatorIS4_EEE7__allocB8ne190102Ev
FNA:0,0,_ZNSt3__114__split_bufferIN7testing8internal9TraceInfoERNS_9allocatorIS3_EEE7__allocB8ne190102Ev
FNA:0,27,_ZNSt3__114__split_bufferINS_12basic_stringIcNS_11char_traitsIcEENS_9allocatorIcEEEERNS4_IS6_EEE7__allocB8ne190102Ev
FNA:0,0,_ZNSt3__114__split_bufferIPN7testing11EnvironmentERNS_9allocatorIS3_EEE7__allocB8ne190102Ev
FNA:0,1,_ZNSt3__114__split_bufferIPN7testing17TestEventListenerERNS_9allocatorIS3_EEE7__allocB8ne190102Ev
FNA:0,16,_ZNSt3__114__split_bufferIPN7testing8TestInfoERNS_9allocatorIS3_EEE7__allocB8ne190102Ev
FNA:0,5,_ZNSt3__114__split_bufferIPN7testing9TestSuiteERNS_9allocatorIS3_EEE7__allocB8ne190102Ev
FNA:0,0,_ZNSt3__114__split_bufferIPcRNS_9allocatorIS1_EEE7__allocB8ne190102Ev
FNA:0,21,_ZNSt3__114__split_bufferIiRNS_9allocatorIiEEE7__allocB8ne190102Ev
FNA:0,0,_ZNSt3__114__split_bufferImRNS_9allocatorImEEE7__allocB8ne190102Ev
FNL:1,119
FNA:1,0,_ZNSt3__114__split_bufferIN7testing12TestPropertyERNS_9allocatorIS2_EEE9__end_capB8ne190102Ev
FNA:1,0,_ZNSt3__114__split_bufferIN7testing14TestPartResultERNS_9allocatorIS2_EEE9__end_capB8ne190102Ev
FNA:1,0,_ZNSt3__114__split_bufferIN7testing8internal13edit_distance8EditTypeERNS_9allocatorIS4_EEE9__end_capB8ne190102Ev
FNA:1,0,_ZNSt3__114__split_bufferIN7testing8internal9TraceInfoERNS_9allocatorIS3_EEE9__end_capB8ne190102Ev
FNA:1,44,_ZNSt3__114__split_bufferINS_12basic_stringIcNS_11char_traitsIcEENS_9allocatorIcEEEERNS4_IS6_EEE9__end_capB8ne190102Ev
FNA:1,0,_ZNSt3__114__split_bufferIPN7testing11EnvironmentERNS_9allocatorIS3_EEE9__end_capB8ne190102Ev
FNA:1,2,_ZNSt3__114__split_bufferIPN7testing17TestEventListenerERNS_9allocatorIS3_EEE9__end_capB8ne190102Ev
FNA:1,20,_ZNSt3__114__split_bufferIPN7testing8TestInfoERNS_9allocatorIS3_EEE9__end_capB8ne190102Ev
FNA:1,6,_ZNSt3__114__split_bufferIPN7testing9TestSuiteERNS_9allocatorIS3_EEE9__end_capB8ne190102Ev
FNA:1,0,_ZNSt3__114__split_bufferIPcRNS_9allocatorIS1_EEE9__end_capB8ne190102Ev
FNA:1,26,_ZNSt3__114__split_bufferIiRNS_9allocatorIiEEE9__end_capB8ne190102Ev
FNA:1,0,_ZNSt3__114__split_bufferImRNS_9allocatorImEEE9__end_capB8ne190102Ev
FNL:2,120
FNA:2,0,_ZNKSt3__114__split_bufferIN7testing12TestPropertyERNS_9allocatorIS2_EEE9__end_capB8ne190102Ev
FNA:2,0,_ZNKSt3__114__split_bufferIN7testing14TestPartResultERNS_9allocatorIS2_EEE9__end_capB8ne190102Ev
FNA:2,0,_ZNKSt3__114__split_bufferIN7testing8internal13edit_distance8EditTypeERNS_9allocatorIS4_EEE9__end_capB8ne190102Ev
FNA:2,0,_ZNKSt3__114__split_bufferIN7testing8internal9TraceInfoERNS_9allocatorIS3_EEE9__end_capB8ne190102Ev
FNA:2,5,_ZNKSt3__114__split_bufferINS_12basic_stringIcNS_11char_traitsIcEENS_9allocatorIcEEEERNS4_IS6_EEE9__end_capB8ne190102Ev
FNA:2,0,_ZNKSt3__114__split_bufferIPN7testing11EnvironmentERNS_9allocatorIS3_EEE9__end_capB8ne190102Ev
FNA:2,0,_ZNKSt3__114__split_bufferIPN7testing17TestEventListenerERNS_9allocatorIS3_EEE9__end_capB8ne190102Ev
FNA:2,6,_ZNKSt3__114__split_bufferIPN7testing8TestInfoERNS_9allocatorIS3_EEE9__end_capB8ne190102Ev
FNA:2,2,_ZNKSt3__114__split_bufferIPN7testing9TestSuiteERNS_9allocatorIS3_EEE9__end_capB8ne190102Ev
FNA:2,0,_ZNKSt3__114__split_bufferIPcRNS_9allocatorIS1_EEE9__end_capB8ne190102Ev
FNA:2,8,_ZNKSt3__114__split_bufferIiRNS_9allocatorIiEEE9__end_capB8ne190102Ev
FNA:2,0,_ZNKSt3__114__split_bufferImRNS_9allocatorImEEE9__end_capB8ne190102Ev
FNL:3,130
FNA:3,0,_ZNSt3__114__split_bufferIN7testing12TestPropertyERNS_9allocatorIS2_EEE5clearB8ne190102Ev
FNA:3,0,_ZNSt3__114__split_bufferIN7testing14TestPartResultERNS_9allocatorIS2_EEE5clearB8ne190102Ev
FNA:3,0,_ZNSt3__114__split_bufferIN7testing8internal13edit_distance8EditTypeERNS_9allocatorIS4_EEE5clearB8ne190102Ev
FNA:3,0,_ZNSt3__114__split_bufferIN7testing8internal9TraceInfoERNS_9allocatorIS3_EEE5clearB8ne190102Ev
FNA:3,22,_ZNSt3__114__split_bufferINS_12basic_stringIcNS_11char_traitsIcEENS_9allocatorIcEEEERNS4_IS6_EEE5clearB8ne190102Ev
FNA:3,0,_ZNSt3__114__split_bufferIPN7testing11EnvironmentERNS_9allocatorIS3_EEE5clearB8ne190102Ev
FNA:3,1,_ZNSt3__114__split_bufferIPN7testing17TestEventListenerERNS_9allocatorIS3_EEE5clearB8ne190102Ev
FNA:3,10,_ZNSt3__114__split_bufferIPN7testing8TestInfoERNS_9allocatorIS3_EEE5clearB8ne190102Ev
FNA:3,3,_ZNSt3__114__split_bufferIPN7testing9TestSuiteERNS_9allocatorIS3_EEE5clearB8ne190102Ev
FNA:3,0,_ZNSt3__114__split_bufferIPcRNS_9allocatorIS1_EEE5clearB8ne190102Ev
FNA:3,13,_ZNSt3__114__split_bufferIiRNS_9allocatorIiEEE5clearB8ne190102Ev
FNA:3,0,_ZNSt3__114__split_bufferImRNS_9allocatorImEEE5clearB8ne190102Ev
FNL:4,138
FNA:4,0,_ZNKSt3__114__split_bufferIN7testing12TestPropertyERNS_9allocatorIS2_EEE8capacityB8ne190102Ev
FNA:4,0,_ZNKSt3__114__split_bufferIN7testing14TestPartResultERNS_9allocatorIS2_EEE8capacityB8ne190102Ev
FNA:4,0,_ZNKSt3__114__split_bufferIN7testing8internal13edit_distance8EditTypeERNS_9allocatorIS4_EEE8capacityB8ne190102Ev
FNA:4,0,_ZNKSt3__114__split_bufferIN7testing8internal9TraceInfoERNS_9allocatorIS3_EEE8capacityB8ne190102Ev
FNA:4,5,_ZNKSt3__114__split_bufferINS_12basic_stringIcNS_11char_traitsIcEENS_9allocatorIcEEEERNS4_IS6_EEE8capacityB8ne190102Ev
FNA:4,0,_ZNKSt3__114__split_bufferIPN7testing11EnvironmentERNS_9allocatorIS3_EEE8capacityB8ne190102Ev
FNA:4,0,_ZNKSt3__114__split_bufferIPN7testing17TestEventListenerERNS_9allocatorIS3_EEE8capacityB8ne190102Ev
FNA:4,6,_ZNKSt3__114__split_bufferIPN7testing8TestInfoERNS_9allocatorIS3_EEE8capacityB8ne190102Ev
FNA:4,2,_ZNKSt3__114__split_bufferIPN7testing9TestSuiteERNS_9allocatorIS3_EEE8capacityB8ne190102Ev
FNA:4,0,_ZNKSt3__114__split_bufferIPcRNS_9allocatorIS1_EEE8capacityB8ne190102Ev
FNA:4,8,_ZNKSt3__114__split_bufferIiRNS_9allocatorIiEEE8capacityB8ne190102Ev
FNA:4,0,_ZNKSt3__114__split_bufferImRNS_9allocatorImEEE8capacityB8ne190102Ev
FNL:5,193
FNA:5,0,_ZNSt3__114__split_bufferIN7testing12TestPropertyERNS_9allocatorIS2_EEE17__destruct_at_endB8ne190102EPS2_
FNA:5,0,_ZNSt3__114__split_bufferIN7testing14TestPartResultERNS_9allocatorIS2_EEE17__destruct_at_endB8ne190102EPS2_
FNA:5,0,_ZNSt3__114__split_bufferIN7testing8internal13edit_distance8EditTypeERNS_9allocatorIS4_EEE17__destruct_at_endB8ne190102EPS4_
FNA:5,0,_ZNSt3__114__split_bufferIN7testing8internal9TraceInfoERNS_9allocatorIS3_EEE17__destruct_at_endB8ne190102EPS3_
FNA:5,22,_ZNSt3__114__split_bufferINS_12basic_stringIcNS_11char_traitsIcEENS_9allocatorIcEEEERNS4_IS6_EEE17__destruct_at_endB8ne190102EPS6_
FNA:5,0,_ZNSt3__114__split_bufferIPN7testing11EnvironmentERNS_9allocatorIS3_EEE17__destruct_at_endB8ne190102EPS3_
FNA:5,1,_ZNSt3__114__split_bufferIPN7testing17TestEventListenerERNS_9allocatorIS3_EEE17__destruct_at_endB8ne190102EPS3_
FNA:5,10,_ZNSt3__114__split_bufferIPN7testing8TestInfoERNS_9allocatorIS3_EEE17__destruct_at_endB8ne190102EPS3_
FNA:5,3,_ZNSt3__114__split_bufferIPN7testing9TestSuiteERNS_9allocatorIS3_EEE17__destruct_at_endB8ne190102EPS3_
FNA:5,0,_ZNSt3__114__split_bufferIPcRNS_9allocatorIS1_EEE17__destruct_at_endB8ne190102EPS1_
FNA:5,13,_ZNSt3__114__split_bufferIiRNS_9allocatorIiEEE17__destruct_at_endB8ne190102EPi
FNA:5,0,_ZNSt3__114__split_bufferImRNS_9allocatorImEEE17__destruct_at_endB8ne190102EPm
FNL:6,215
FNA:6,0,_ZNSt3__114__split_bufferINS_12basic_stringIcNS_11char_traitsIcEENS_9allocatorIcEEEERNS4_IS6_EEE21_ConstructTransactionC1B8ne190102EPPS6_m
FNA:6,0,_ZNSt3__114__split_bufferINS_12basic_stringIcNS_11char_traitsIcEENS_9allocatorIcEEEERNS4_IS6_EEE21_ConstructTransactionC2B8ne190102EPPS6_m
FNA:6,0,_ZNSt3__114__split_bufferIPN7testing9TestSuiteERNS_9allocatorIS3_EEE21_ConstructTransactionC1B8ne190102EPPS3_m
FNA:6,0,_ZNSt3__114__split_bufferIPN7testing9TestSuiteERNS_9allocatorIS3_EEE21_ConstructTransactionC2B8ne190102EPPS3_m
FNL:7,220
FNA:7,0,_ZNSt3__114__split_bufferINS_12basic_stringIcNS_11char_traitsIcEENS_9allocatorIcEEEERNS4_IS6_EEE21_ConstructTransactionD1B8ne190102Ev
FNA:7,0,_ZNSt3__114__split_bufferINS_12basic_stringIcNS_11char_traitsIcEENS_9allocatorIcEEEERNS4_IS6_EEE21_ConstructTransactionD2B8ne190102Ev
FNA:7,0,_ZNSt3__114__split_bufferIPN7testing9TestSuiteERNS_9allocatorIS3_EEE21_ConstructTransactionD1B8ne190102Ev
FNA:7,0,_ZNSt3__114__split_bufferIPN7testing9TestSuiteERNS_9allocatorIS3_EEE21_ConstructTransactionD2B8ne190102Ev
FNL:8,306
FNA:8,0,_ZNSt3__114__split_bufferINS_12basic_stringIcNS_11char_traitsIcEENS_9allocatorIcEEEERNS4_IS6_EEE18__construct_at_endINS_13move_iteratorIPS6_EELi0EEEvT_SE_
FNA:8,0,_ZNSt3__114__split_bufferIPN7testing9TestSuiteERNS_9allocatorIS3_EEE18__construct_at_endINS_13move_iteratorIPS3_EELi0EEEvT_SC_
FNL:9,313
FNA:9,0,_ZNSt3__114__split_bufferINS_12basic_stringIcNS_11char_traitsIcEENS_9allocatorIcEEEERNS4_IS6_EEE28__construct_at_end_with_sizeINS_13move_iteratorIPS6_EEEEvT_m
FNA:9,0,_ZNSt3__114__split_bufferIPN7testing9TestSuiteERNS_9allocatorIS3_EEE28__construct_at_end_with_sizeINS_13move_iteratorIPS3_EEEEvT_m
FNL:10,335
FNA:10,0,_ZNSt3__114__split_bufferIN7testing12TestPropertyERNS_9allocatorIS2_EEE17__destruct_at_endB8ne190102EPS2_NS_17integral_constantIbLb0EEE
FNA:10,0,_ZNSt3__114__split_bufferIN7testing14TestPartResultERNS_9allocatorIS2_EEE17__destruct_at_endB8ne190102EPS2_NS_17integral_constantIbLb0EEE
FNA:10,0,_ZNSt3__114__split_bufferIN7testing8internal13edit_distance8EditTypeERNS_9allocatorIS4_EEE17__destruct_at_endB8ne190102EPS4_NS_17integral_constantIbLb0EEE
FNA:10,0,_ZNSt3__114__split_bufferIN7testing8internal9TraceInfoERNS_9allocatorIS3_EEE17__destruct_at_endB8ne190102EPS3_NS_17integral_constantIbLb0EEE
FNA:10,22,_ZNSt3__114__split_bufferINS_12basic_stringIcNS_11char_traitsIcEENS_9allocatorIcEEEERNS4_IS6_EEE17__destruct_at_endB8ne190102EPS6_NS_17integral_constantIbLb0EEE
FNA:10,0,_ZNSt3__114__split_bufferIPN7testing11EnvironmentERNS_9allocatorIS3_EEE17__destruct_at_endB8ne190102EPS3_NS_17integral_constantIbLb0EEE
FNA:10,1,_ZNSt3__114__split_bufferIPN7testing17TestEventListenerERNS_9allocatorIS3_EEE17__destruct_at_endB8ne190102EPS3_NS_17integral_constantIbLb0EEE
FNA:10,10,_ZNSt3__114__split_bufferIPN7testing8TestInfoERNS_9allocatorIS3_EEE17__destruct_at_endB8ne190102EPS3_NS_17integral_constantIbLb0EEE
FNA:10,3,_ZNSt3__114__split_bufferIPN7testing9TestSuiteERNS_9allocatorIS3_EEE17__destruct_at_endB8ne190102EPS3_NS_17integral_constantIbLb0EEE
FNA:10,0,_ZNSt3__114__split_bufferIPcRNS_9allocatorIS1_EEE17__destruct_at_endB8ne190102EPS1_NS_17integral_constantIbLb0EEE
FNA:10,13,_ZNSt3__114__split_bufferIiRNS_9allocatorIiEEE17__destruct_at_endB8ne190102EPiNS_17integral_constantIbLb0EEE
FNA:10,0,_ZNSt3__114__split_bufferImRNS_9allocatorImEEE17__destruct_at_endB8ne190102EPmNS_17integral_constantIbLb0EEE
FNL:11,348
FNA:11,0,_ZNSt3__114__split_bufferIN7testing12TestPropertyERNS_9allocatorIS2_EEEC1EmmS5_
FNA:11,0,_ZNSt3__114__split_bufferIN7testing12TestPropertyERNS_9allocatorIS2_EEEC2EmmS5_
FNA:11,0,_ZNSt3__114__split_bufferIN7testing14TestPartResultERNS_9allocatorIS2_EEEC1EmmS5_
FNA:11,0,_ZNSt3__114__split_bufferIN7testing14TestPartResultERNS_9allocatorIS2_EEEC2EmmS5_
FNA:11,0,_ZNSt3__114__split_bufferIN7testing8internal13edit_distance8EditTypeERNS_9allocatorIS4_EEEC1EmmS7_
FNA:11,0,_ZNSt3__114__split_bufferIN7testing8internal13edit_distance8EditTypeERNS_9allocatorIS4_EEEC2EmmS7_
FNA:11,0,_ZNSt3__114__split_bufferIN7testing8internal9TraceInfoERNS_9allocatorIS3_EEEC1EmmS6_
FNA:11,0,_ZNSt3__114__split_bufferIN7testing8internal9TraceInfoERNS_9allocatorIS3_EEEC2EmmS6_
FNA:11,22,_ZNSt3__114__split_bufferINS_12basic_stringIcNS_11char_traitsIcEENS_9allocatorIcEEEERNS4_IS6_EEEC1EmmS8_
FNA:11,22,_ZNSt3__114__split_bufferINS_12basic_stringIcNS_11char_traitsIcEENS_9allocatorIcEEEERNS4_IS6_EEEC2EmmS8_
FNA:11,0,_ZNSt3__114__split_bufferIPN7testing11EnvironmentERNS_9allocatorIS3_EEEC1EmmS6_
FNA:11,0,_ZNSt3__114__split_bufferIPN7testing11EnvironmentERNS_9allocatorIS3_EEEC2EmmS6_
FNA:11,1,_ZNSt3__114__split_bufferIPN7testing17TestEventListenerERNS_9allocatorIS3_EEEC1EmmS6_
FNA:11,1,_ZNSt3__114__split_bufferIPN7testing17TestEventListenerERNS_9allocatorIS3_EEEC2EmmS6_
FNA:11,10,_ZNSt3__114__split_bufferIPN7testing8TestInfoERNS_9allocatorIS3_EEEC1EmmS6_
FNA:11,10,_ZNSt3__114__split_bufferIPN7testing8TestInfoERNS_9allocatorIS3_EEEC2EmmS6_
FNA:11,3,_ZNSt3__114__split_bufferIPN7testing9TestSuiteERNS_9allocatorIS3_EEEC1EmmS6_
FNA:11,3,_ZNSt3__114__split_bufferIPN7testing9TestSuiteERNS_9allocatorIS3_EEEC2EmmS6_
FNA:11,0,_ZNSt3__114__split_bufferIPcRNS_9allocatorIS1_EEEC1EmmS4_
FNA:11,0,_ZNSt3__114__split_bufferIPcRNS_9allocatorIS1_EEEC2EmmS4_
FNA:11,13,_ZNSt3__114__split_bufferIiRNS_9allocatorIiEEEC1EmmS3_
FNA:11,13,_ZNSt3__114__split_bufferIiRNS_9allocatorIiEEEC2EmmS3_
FNA:11,0,_ZNSt3__114__split_bufferImRNS_9allocatorImEEEC1EmmS3_
FNA:11,0,_ZNSt3__114__split_bufferImRNS_9allocatorImEEEC2EmmS3_
FNL:12,362
FNA:12,0,_ZNSt3__114__split_bufferIN7testing12TestPropertyERNS_9allocatorIS2_EEED1Ev
FNA:12,0,_ZNSt3__114__split_bufferIN7testing12TestPropertyERNS_9allocatorIS2_EEED2Ev
FNA:12,0,_ZNSt3__114__split_bufferIN7testing14TestPartResultERNS_9allocatorIS2_EEED1Ev
FNA:12,0,_ZNSt3__114__split_bufferIN7testing14TestPartResultERNS_9allocatorIS2_EEED2Ev
FNA:12,0,_ZNSt3__114__split_bufferIN7testing8internal13edit_distance8EditTypeERNS_9allocatorIS4_EEED1Ev
FNA:12,0,_ZNSt3__114__split_bufferIN7testing8internal13edit_distance8EditTypeERNS_9allocatorIS4_EEED2Ev
FNA:12,0,_ZNSt3__114__split_bufferIN7testing8internal9TraceInfoERNS_9allocatorIS3_EEED1Ev
FNA:12,0,_ZNSt3__114__split_bufferIN7testing8internal9TraceInfoERNS_9allocatorIS3_EEED2Ev
FNA:12,22,_ZNSt3__114__split_bufferINS_12basic_stringIcNS_11char_traitsIcEENS_9allocatorIcEEEERNS4_IS6_EEED1Ev
FNA:12,22,_ZNSt3__114__split_bufferINS_12basic_stringIcNS_11char_traitsIcEENS_9allocatorIcEEEERNS4_IS6_EEED2Ev
FNA:12,0,_ZNSt3__114__split_bufferIPN7testing11EnvironmentERNS_9allocatorIS3_EEED1Ev
FNA:12,0,_ZNSt3__114__split_bufferIPN7testing11EnvironmentERNS_9allocatorIS3_EEED2Ev
FNA:12,1,_ZNSt3__114__split_bufferIPN7testing17TestEventListenerERNS_9allocatorIS3_EEED1Ev
FNA:12,1,_ZNSt3__114__split_bufferIPN7testing17TestEventListenerERNS_9allocatorIS3_EEED2Ev
FNA:12,10,_ZNSt3__114__split_bufferIPN7testing8TestInfoERNS_9allocatorIS3_EEED1Ev
FNA:12,10,_ZNSt3__114__split_bufferIPN7testing8TestInfoERNS_9allocatorIS3_EEED2Ev
FNA:12,3,_ZNSt3__114__split_bufferIPN7testing9TestSuiteERNS_9allocatorIS3_EEED1Ev
FNA:12,3,_ZNSt3__114__split_bufferIPN7testing9TestSuiteERNS_9allocatorIS3_EEED2Ev
FNA:12,0,_ZNSt3__114__split_bufferIPcRNS_9allocatorIS1_EEED1Ev
FNA:12,0,_ZNSt3__114__split_bufferIPcRNS_9allocatorIS1_EEED2Ev
FNA:12,13,_ZNSt3__114__split_bufferIiRNS_9allocatorIiEEED1Ev
FNA:12,13,_ZNSt3__114__split_bufferIiRNS_9allocatorIiEEED2Ev
FNA:12,0,_ZNSt3__114__split_bufferImRNS_9allocatorImEEED1Ev
FNA:12,0,_ZNSt3__114__split_bufferImRNS_9allocatorImEEED2Ev
FNL:13,509
FNA:13,0,_ZNSt3__114__split_bufferIPN7testing9TestSuiteERNS_9allocatorIS3_EEE9push_backB8ne190102ERKS3_
FNL:14,531
FNA:14,0,_ZNSt3__114__split_bufferINS_12basic_stringIcNS_11char_traitsIcEENS_9allocatorIcEEEERNS4_IS6_EEE9push_backEOS6_
FNF:15
FNH:9
DA:114,70
DA:119,98
DA:120,21
DA:121,21
DA:130,49
DA:138,21
DA:139,21
DA:193,49
DA:194,49
DA:195,49
DA:215,0
DA:216,0
DA:217,0
DA:218,0
DA:220,0
DA:306,0
DA:307,0
DA:308,0
DA:313,0
DA:314,0
DA:315,0
DA:316,0
DA:317,0
DA:318,0
DA:335,49
DA:336,49
DA:337,0
DA:338,49
DA:348,98
DA:349,98
DA:350,49
DA:351,0
DA:352,0
DA:353,49
DA:354,49
DA:355,49
DA:357,49
DA:358,49
DA:359,98
DA:362,98
DA:363,49
DA:364,49
DA:365,21
DA:366,98
DA:509,0
DA:510,0
DA:511,0
DA:512,0
DA:513,0
DA:514,0
DA:515,0
DA:516,0
DA:517,0
DA:518,0
DA:519,0
DA:520,0
DA:521,0
DA:522,0
DA:523,0
DA:524,0
DA:525,0
DA:526,0
DA:527,0
DA:528,0
DA:531,0
DA:532,0
DA:533,0
DA:534,0
DA:535,0
DA:536,0
DA:537,0
DA:538,0
DA:539,0
DA:540,0
DA:541,0
DA:542,0
DA:543,0
DA:544,0
DA:545,0
DA:546,0
DA:547,0
DA:548,0
DA:549,0
DA:550,0
LF:84
LH:27
end_of_record
TN:
SF:/Library/Developer/CommandLineTools/SDKs/MacOSX.sdk/usr/include/c++/v1/__string/char_traits.h
FNL:0,191,193
FNA:0,1,_ZNSt3__111char_traitsIcE6assignB8ne190102ERcRKc
FNL:1,206,224
FNA:1,8,_ZNSt3__111char_traitsIcE7compareB8ne190102EPKcS3_m
FNL:2,228,229
FNA:2,141,_ZNSt3__111char_traitsIcE6lengthB8ne190102EPKc
FNL:3,233,237
FNA:3,0,_ZNSt3__111char_traitsIcE4findB8ne190102EPKcmRS2_
FNL:4,245,249
FNA:4,26,_ZNSt3__111char_traitsIcE4copyB8ne190102EPcPKcm
FNL:5,253,255
FNA:5,13,_ZNSt3__111char_traitsIcE6assignB8ne190102EPcmc
FNL:6,270,270
FNA:6,596,_ZNSt3__111char_traitsIcE3eofB8ne190102Ev
FNL:7,291,292
FNA:7,0,_ZNSt3__118__char_traits_baseIDijLj4294967295EE2eqB8ne190102EDiDi
FNA:7,0,_ZNSt3__118__char_traits_baseIDstLt65535EE2eqB8ne190102EDsDs
FNL:8,340,344
FNA:8,0,_ZNSt3__111char_traitsIwE7compareB8ne190102EPKwS3_m
FNL:9,346,347
FNA:9,0,_ZNSt3__111char_traitsIwE6lengthB8ne190102EPKw
FNL:10,351,355
FNA:10,0,_ZNSt3__111char_traitsIwE4findB8ne190102EPKwmRS2_
FNL:11,409,413
FNA:11,0,_ZNSt3__111char_traitsIDsE6lengthB8ne190102EPKDs
FNL:12,444,448
FNA:12,0,_ZNSt3__111char_traitsIDiE6lengthB8ne190102EPKDi
FNL:13,466,501
FNA:13,0,_ZNSt3__118__search_substringB8ne190102IcNS_11char_traitsIcEEEEPKT_S5_S5_S5_S5_
FNA:13,0,_ZNSt3__118__search_substringB8ne190102IwNS_11char_traitsIwEEEEPKT_S5_S5_S5_S5_
FNL:14,505,517
FNA:14,0,_ZNSt3__110__str_findB8ne190102IcmNS_11char_traitsIcEELm18446744073709551615EEET0_PKT_S3_S6_S3_S3_
FNA:14,0,_ZNSt3__110__str_findB8ne190102IwmNS_11char_traitsIwEELm18446744073709551615EEET0_PKT_S3_S6_S3_S3_
FNL:15,634,636
FNA:15,62,_ZNSt3__116__do_string_hashB8ne190102IPKcEEmT_S3_
FNF:16
FNH:7
DA:191,1
DA:192,1
DA:193,1
DA:206,8
DA:224,8
DA:228,141
DA:229,141
DA:233,0
DA:234,0
DA:235,0
DA:236,0
DA:237,0
DA:245,26
DA:248,26
DA:249,26
DA:253,13
DA:254,13
DA:255,13
DA:270,596
DA:291,0
DA:292,0
DA:340,0
DA:341,0
DA:342,0
DA:343,0
DA:344,0
DA:346,0
DA:347,0
DA:351,0
DA:352,0
DA:353,0
DA:354,0
DA:355,0
DA:409,0
DA:410,0
DA:411,0
DA:412,0
DA:413,0
DA:444,0
DA:445,0
DA:446,0
DA:447,0
DA:448,0
DA:466,0
DA:470,0
DA:471,0
DA:472,0
DA:474,0
DA:475,0
DA:476,0
DA:479,0
DA:480,0
DA:481,0
DA:483,0
DA:484,0
DA:487,0
DA:488,0
DA:489,0
DA:496,0
DA:497,0
DA:499,0
DA:501,0
DA:505,0
DA:506,0
DA:507,0
DA:509,0
DA:510,0
DA:512,0
DA:514,0
DA:515,0
DA:516,0
DA:517,0
DA:634,62
DA:636,62
LF:74
LH:16
end_of_record
TN:
SF:/Library/Developer/CommandLineTools/SDKs/MacOSX.sdk/usr/include/c++/v1/__string/constexpr_c_functions.h
FNL:0,133,153
FNA:0,0,_ZNSt3__118__constexpr_memchrB8ne190102IKccEEPT_S3_T0_m
FNL:1,212,231
FNA:1,0,_ZNSt3__119__constexpr_memmoveB8ne190102IN7testing8internal13edit_distance8EditTypeES4_Li0EEEPT_S6_PT0_NS_15__element_countE
FNA:1,0,_ZNSt3__119__constexpr_memmoveB8ne190102IPN7testing17TestEventListenerES3_Li0EEEPT_S5_PT0_NS_15__element_countE
FNA:1,0,_ZNSt3__119__constexpr_memmoveB8ne190102IPN7testing8TestInfoES3_Li0EEEPT_S5_PT0_NS_15__element_countE
FNA:1,0,_ZNSt3__119__constexpr_memmoveB8ne190102IPN7testing9TestSuiteES3_Li0EEEPT_S5_PT0_NS_15__element_countE
FNA:1,26,_ZNSt3__119__constexpr_memmoveB8ne190102IcKcLi0EEEPT_S3_PT0_NS_15__element_countE
FNA:1,0,_ZNSt3__119__constexpr_memmoveB8ne190102IddLi0EEEPT_S2_PT0_NS_15__element_countE
FNL:2,52,66
FNA:2,141,_ZNSt3__118__constexpr_strlenB8ne190102IcEEmPKT_
FNF:3
FNH:2
DA:52,141
DA:66,141
DA:133,0
DA:151,0
DA:152,0
DA:153,0
DA:212,26
DA:213,26
DA:228,26
DA:229,26
DA:230,26
DA:231,26
LF:12
LH:8
end_of_record
TN:
SF:/Library/Developer/CommandLineTools/SDKs/MacOSX.sdk/usr/include/c++/v1/__tree
FNL:0,1038
FNA:0,0,_ZNSt3__16__treeINS_12__value_typeINS_12basic_stringIcNS_11char_traitsIcEENS_9allocatorIcEEEEN7testing8internal34TypeParameterizedTestSuiteRegistry30TypeParameterizedTestSuiteInfoEEENS_19__map_value_compareIS7_SC_NS_4lessIS7_EELb1EEENS5_ISC_EEE16__emplace_uniqueB8ne190102IS7_SB_Li0EEENS_4pairINS_15__tree_iteratorISC_PNS_11__tree_nodeISC_PvEElEEbEEOT_OT0_
FNL:1,109
FNA:1,0,_ZNSt3__120__tree_is_left_childB8ne190102IPNS_16__tree_node_baseIPvEEEEbT_
FNL:2,1097
FNA:2,0,_ZNSt3__16__treeINS_12basic_stringIcNS_11char_traitsIcEENS_9allocatorIcEEEENS_4lessIS6_EENS4_IS6_EEE15__insert_uniqueB8ne190102ERKS6_
FNL:3,1105
FNA:3,0,_ZNSt3__16__treeINS_12basic_stringIcNS_11char_traitsIcEENS_9allocatorIcEEEENS_4lessIS6_EENS4_IS6_EEE15__insert_uniqueB8ne190102EOS6_
FNL:4,1325
FNA:4,1,_ZNSt3__16__treeINS_12__value_typeINS_12basic_stringIcNS_11char_traitsIcEENS_9allocatorIcEEEEN7testing8internal34TypeParameterizedTestSuiteRegistry30TypeParameterizedTestSuiteInfoEEENS_19__map_value_compareIS7_SC_NS_4lessIS7_EELb1EEENS5_ISC_EEEC1ERKSG_
FNA:4,1,_ZNSt3__16__treeINS_12__value_typeINS_12basic_stringIcNS_11char_traitsIcEENS_9allocatorIcEEEEN7testing8internal34TypeParameterizedTestSuiteRegistry30TypeParameterizedTestSuiteInfoEEENS_19__map_value_compareIS7_SC_NS_4lessIS7_EELb1EEENS5_ISC_EEEC2ERKSG_
FNA:4,0,_ZNSt3__16__treeINS_12__value_typeINS_12basic_stringIcNS_11char_traitsIcEENS_9allocatorIcEEEEmEENS_19__map_value_compareIS7_S8_NS_4lessIS7_EELb1EEENS5_IS8_EEEC1ERKSC_
FNA:4,0,_ZNSt3__16__treeINS_12__value_typeINS_12basic_stringIcNS_11char_traitsIcEENS_9allocatorIcEEEEmEENS_19__map_value_compareIS7_S8_NS_4lessIS7_EELb1EEENS5_IS8_EEEC2ERKSC_
FNA:4,1,_ZNSt3__16__treeINS_12basic_stringIcNS_11char_traitsIcEENS_9allocatorIcEEEENS_4lessIS6_EENS4_IS6_EEEC1ERKS8_
FNA:4,1,_ZNSt3__16__treeINS_12basic_stringIcNS_11char_traitsIcEENS_9allocatorIcEEEENS_4lessIS6_EENS4_IS6_EEEC2ERKS8_
FNL:5,1530
FNA:5,0,_ZNSt3__16__treeINS_12__value_typeINS_12basic_stringIcNS_11char_traitsIcEENS_9allocatorIcEEEEN7testing8internal34TypeParameterizedTestSuiteRegistry30TypeParameterizedTestSuiteInfoEEENS_19__map_value_compareIS7_SC_NS_4lessIS7_EELb1EEENS5_ISC_EEED1Ev
FNA:5,0,_ZNSt3__16__treeINS_12__value_typeINS_12basic_stringIcNS_11char_traitsIcEENS_9allocatorIcEEEEN7testing8internal34TypeParameterizedTestSuiteRegistry30TypeParameterizedTestSuiteInfoEEENS_19__map_value_compareIS7_SC_NS_4lessIS7_EELb1EEENS5_ISC_EEED2Ev
FNA:5,0,_ZNSt3__16__treeINS_12__value_typeINS_12basic_stringIcNS_11char_traitsIcEENS_9allocatorIcEEEEmEENS_19__map_value_compareIS7_S8_NS_4lessIS7_EELb1EEENS5_IS8_EEED1Ev
FNA:5,0,_ZNSt3__16__treeINS_12__value_typeINS_12basic_stringIcNS_11char_traitsIcEENS_9allocatorIcEEEEmEENS_19__map_value_compareIS7_S8_NS_4lessIS7_EELb1EEENS5_IS8_EEED2Ev
FNA:5,0,_ZNSt3__16__treeINS_12basic_stringIcNS_11char_traitsIcEENS_9allocatorIcEEEENS_4lessIS6_EENS4_IS6_EEED1Ev
FNA:5,0,_ZNSt3__16__treeINS_12basic_stringIcNS_11char_traitsIcEENS_9allocatorIcEEEENS_4lessIS6_EENS4_IS6_EEED2Ev
FNL:6,1536
FNA:6,0,_ZNSt3__16__treeINS_12__value_typeINS_12basic_stringIcNS_11char_traitsIcEENS_9allocatorIcEEEEN7testing8internal34TypeParameterizedTestSuiteRegistry30TypeParameterizedTestSuiteInfoEEENS_19__map_value_compareIS7_SC_NS_4lessIS7_EELb1EEENS5_ISC_EEE7destroyEPNS_11__tree_nodeISC_PvEE
FNA:6,0,_ZNSt3__16__treeINS_12__value_typeINS_12basic_stringIcNS_11char_traitsIcEENS_9allocatorIcEEEEmEENS_19__map_value_compareIS7_S8_NS_4lessIS7_EELb1EEENS5_IS8_EEE7destroyEPNS_11__tree_nodeIS8_PvEE
FNA:6,0,_ZNSt3__16__treeINS_12basic_stringIcNS_11char_traitsIcEENS_9allocatorIcEEEENS_4lessIS6_EENS4_IS6_EEE7destroyEPNS_11__tree_nodeIS6_PvEE
FNL:7,166
FNA:7,0,_ZNSt3__110__tree_minB8ne190102IPNS_16__tree_node_baseIPvEEEET_S5_
FNL:8,1675
FNA:8,0,_ZNSt3__16__treeINS_12__value_typeINS_12basic_stringIcNS_11char_traitsIcEENS_9allocatorIcEEEEN7testing8internal34TypeParameterizedTestSuiteRegistry30TypeParameterizedTestSuiteInfoEEENS_19__map_value_compareIS7_SC_NS_4lessIS7_EELb1EEENS5_ISC_EEE12__find_equalIS7_EERPNS_16__tree_node_baseIPvEERPNS_15__tree_end_nodeISN_EERKT_
FNA:8,0,_ZNSt3__16__treeINS_12__value_typeINS_12basic_stringIcNS_11char_traitsIcEENS_9allocatorIcEEEEmEENS_19__map_value_compareIS7_S8_NS_4lessIS7_EELb1EEENS5_IS8_EEE12__find_equalIS7_EERPNS_16__tree_node_baseIPvEERPNS_15__tree_end_nodeISJ_EERKT_
FNA:8,0,_ZNSt3__16__treeINS_12basic_stringIcNS_11char_traitsIcEENS_9allocatorIcEEEENS_4lessIS6_EENS4_IS6_EEE12__find_equalIS6_EERPNS_16__tree_node_baseIPvEERPNS_15__tree_end_nodeISF_EERKT_
FNL:9,1757
FNA:9,0,_ZNSt3__16__treeINS_12__value_typeINS_12basic_stringIcNS_11char_traitsIcEENS_9allocatorIcEEEEN7testing8internal34TypeParameterizedTestSuiteRegistry30TypeParameterizedTestSuiteInfoEEENS_19__map_value_compareIS7_SC_NS_4lessIS7_EELb1EEENS5_ISC_EEE16__insert_node_atEPNS_15__tree_end_nodeIPNS_16__tree_node_baseIPvEEEERSN_SN_
FNA:9,0,_ZNSt3__16__treeINS_12__value_typeINS_12basic_stringIcNS_11char_traitsIcEENS_9allocatorIcEEEEmEENS_19__map_value_compareIS7_S8_NS_4lessIS7_EELb1EEENS5_IS8_EEE16__insert_node_atEPNS_15__tree_end_nodeIPNS_16__tree_node_baseIPvEEEERSJ_SJ_
FNA:9,0,_ZNSt3__16__treeINS_12basic_stringIcNS_11char_traitsIcEENS_9allocatorIcEEEENS_4lessIS6_EENS4_IS6_EEE16__insert_node_atEPNS_15__tree_end_nodeIPNS_16__tree_node_baseIPvEEEERSF_SF_
FNL:10,1773
FNA:10,0,_ZNSt3__16__treeINS_12__value_typeINS_12basic_stringIcNS_11char_traitsIcEENS_9allocatorIcEEEEN7testing8internal34TypeParameterizedTestSuiteRegistry30TypeParameterizedTestSuiteInfoEEENS_19__map_value_compareIS7_SC_NS_4lessIS7_EELb1EEENS5_ISC_EEE25__emplace_unique_key_argsIS7_JS7_SB_EEENS_4pairINS_15__tree_iteratorISC_PNS_11__tree_nodeISC_PvEElEEbEERKT_DpOT0_
FNA:10,0,_ZNSt3__16__treeINS_12__value_typeINS_12basic_stringIcNS_11char_traitsIcEENS_9allocatorIcEEEEmEENS_19__map_value_compareIS7_S8_NS_4lessIS7_EELb1EEENS5_IS8_EEE25__emplace_unique_key_argsIS7_JRKNS_21piecewise_construct_tENS_5tupleIJRKS7_EEENSJ_IJEEEEEENS_4pairINS_15__tree_iteratorIS8_PNS_11__tree_nodeIS8_PvEElEEbEERKT_DpOT0_
FNA:10,0,_ZNSt3__16__treeINS_12basic_stringIcNS_11char_traitsIcEENS_9allocatorIcEEEENS_4lessIS6_EENS4_IS6_EEE25__emplace_unique_key_argsIS6_JRKS6_EEENS_4pairINS_15__tree_iteratorIS6_PNS_11__tree_nodeIS6_PvEElEEbEERKT_DpOT0_
FNA:10,0,_ZNSt3__16__treeINS_12basic_stringIcNS_11char_traitsIcEENS_9allocatorIcEEEENS_4lessIS6_EENS4_IS6_EEE25__emplace_unique_key_argsIS6_JS6_EEENS_4pairINS_15__tree_iteratorIS6_PNS_11__tree_nodeIS6_PvEElEEbEERKT_DpOT0_
FNL:11,1809
FNA:11,0,_ZNSt3__16__treeINS_12__value_typeINS_12basic_stringIcNS_11char_traitsIcEENS_9allocatorIcEEEEN7testing8internal34TypeParameterizedTestSuiteRegistry30TypeParameterizedTestSuiteInfoEEENS_19__map_value_compareIS7_SC_NS_4lessIS7_EELb1EEENS5_ISC_EEE16__construct_nodeIJS7_SB_EEENS_10unique_ptrINS_11__tree_nodeISC_PvEENS_22__tree_node_destructorINS5_ISN_EEEEEEDpOT_
FNA:11,0,_ZNSt3__16__treeINS_12__value_typeINS_12basic_stringIcNS_11char_traitsIcEENS_9allocatorIcEEEEmEENS_19__map_value_compareIS7_S8_NS_4lessIS7_EELb1EEENS5_IS8_EEE16__construct_nodeIJRKNS_21piecewise_construct_tENS_5tupleIJRKS7_EEENSJ_IJEEEEEENS_10unique_ptrINS_11__tree_nodeIS8_PvEENS_22__tree_node_destructorINS5_ISR_EEEEEEDpOT_
FNA:11,0,_ZNSt3__16__treeINS_12basic_stringIcNS_11char_traitsIcEENS_9allocatorIcEEEENS_4lessIS6_EENS4_IS6_EEE16__construct_nodeIJRKS6_EEENS_10unique_ptrINS_11__tree_nodeIS6_PvEENS_22__tree_node_destructorINS4_ISH_EEEEEEDpOT_
FNA:11,0,_ZNSt3__16__treeINS_12basic_stringIcNS_11char_traitsIcEENS_9allocatorIcEEEENS_4lessIS6_EENS4_IS6_EEE16__construct_nodeIJS6_EEENS_10unique_ptrINS_11__tree_nodeIS6_PvEENS_22__tree_node_destructorINS4_ISF_EEEEEEDpOT_
FNL:12,194
FNA:12,0,_ZNSt3__116__tree_next_iterB8ne190102IPNS_15__tree_end_nodeIPNS_16__tree_node_baseIPvEEEES5_EET_T0_
FNL:13,2080
FNA:13,0,_ZNSt3__16__treeINS_12__value_typeINS_12basic_stringIcNS_11char_traitsIcEENS_9allocatorIcEEEEN7testing8internal34TypeParameterizedTestSuiteRegistry30TypeParameterizedTestSuiteInfoEEENS_19__map_value_compareIS7_SC_NS_4lessIS7_EELb1EEENS5_ISC_EEE4findIS7_EENS_15__tree_iteratorISC_PNS_11__tree_nodeISC_PvEElEERKT_
FNA:13,0,_ZNSt3__16__treeINS_12__value_typeINS_12basic_stringIcNS_11char_traitsIcEENS_9allocatorIcEEEEmEENS_19__map_value_compareIS7_S8_NS_4lessIS7_EELb1EEENS5_IS8_EEE4findIS7_EENS_15__tree_iteratorIS8_PNS_11__tree_nodeIS8_PvEElEERKT_
FNL:14,2090
FNA:14,0,_ZNKSt3__16__treeINS_12basic_stringIcNS_11char_traitsIcEENS_9allocatorIcEEEENS_4lessIS6_EENS4_IS6_EEE4findIS6_EENS_21__tree_const_iteratorIS6_PNS_11__tree_nodeIS6_PvEElEERKT_
FNL:15,2100
FNA:15,0,_ZNKSt3__16__treeINS_12__value_typeINS_12basic_stringIcNS_11char_traitsIcEENS_9allocatorIcEEEEN7testing8internal12CodeLocationEEENS_19__map_value_compareIS7_SB_NS_4lessIvEELb1EEENS5_ISB_EEE14__count_uniqueIS7_EEmRKT_
FNA:15,0,_ZNKSt3__16__treeINS_12basic_stringIcNS_11char_traitsIcEENS_9allocatorIcEEEENS_4lessIS6_EENS4_IS6_EEE14__count_uniqueIS6_EEmRKT_
FNL:16,2136
FNA:16,0,_ZNSt3__16__treeINS_12__value_typeINS_12basic_stringIcNS_11char_traitsIcEENS_9allocatorIcEEEEN7testing8internal34TypeParameterizedTestSuiteRegistry30TypeParameterizedTestSuiteInfoEEENS_19__map_value_compareIS7_SC_NS_4lessIS7_EELb1EEENS5_ISC_EEE13__lower_boundIS7_EENS_15__tree_iteratorISC_PNS_11__tree_nodeISC_PvEElEERKT_SO_PNS_15__tree_end_nodeIPNS_16__tree_node_baseISM_EEEE
FNA:16,0,_ZNSt3__16__treeINS_12__value_typeINS_12basic_stringIcNS_11char_traitsIcEENS_9allocatorIcEEEEmEENS_19__map_value_compareIS7_S8_NS_4lessIS7_EELb1EEENS5_IS8_EEE13__lower_boundIS7_EENS_15__tree_iteratorIS8_PNS_11__tree_nodeIS8_PvEElEERKT_SK_PNS_15__tree_end_nodeIPNS_16__tree_node_baseISI_EEEE
FNL:17,2149
FNA:17,0,_ZNKSt3__16__treeINS_12basic_stringIcNS_11char_traitsIcEENS_9allocatorIcEEEENS_4lessIS6_EENS4_IS6_EEE13__lower_boundIS6_EENS_21__tree_const_iteratorIS6_PNS_11__tree_nodeIS6_PvEElEERKT_SG_PNS_15__tree_end_nodeIPNS_16__tree_node_baseISE_EEEE
FNL:18,237
FNA:18,0,_ZNSt3__118__tree_left_rotateB8ne190102IPNS_16__tree_node_baseIPvEEEEvT_
FNL:19,256
FNA:19,0,_ZNSt3__119__tree_right_rotateB8ne190102IPNS_16__tree_node_baseIPvEEEEvT_
FNL:20,280
FNA:20,0,_ZNSt3__127__tree_balance_after_insertB8ne190102IPNS_16__tree_node_baseIPvEEEEvT_S5_
FNL:21,520
FNA:21,0,_ZNSt3__122__tree_key_value_typesINS_12basic_stringIcNS_11char_traitsIcEENS_9allocatorIcEEEEE9__get_keyB8ne190102ERKS6_
FNL:22,522
FNA:22,0,_ZNSt3__122__tree_key_value_typesINS_12basic_stringIcNS_11char_traitsIcEENS_9allocatorIcEEEEE9__get_ptrB8ne190102ERS6_
FNL:23,553
FNA:23,0,_ZNSt3__122__tree_key_value_typesINS_12__value_typeINS_12basic_stringIcNS_11char_traitsIcEENS_9allocatorIcEEEEN7testing8internal34TypeParameterizedTestSuiteRegistry30TypeParameterizedTestSuiteInfoEEEE9__get_ptrB8ne190102ERSC_
FNA:23,0,_ZNSt3__122__tree_key_value_typesINS_12__value_typeINS_12basic_stringIcNS_11char_traitsIcEENS_9allocatorIcEEEEmEEE9__get_ptrB8ne190102ERS8_
FNL:24,635
FNA:24,2,_ZNSt3__115__tree_end_nodeIPNS_16__tree_node_baseIPvEEEC1B8ne190102Ev
FNA:24,2,_ZNSt3__115__tree_end_nodeIPNS_16__tree_node_baseIPvEEEC2B8ne190102Ev
FNL:25,650
FNA:25,0,_ZNKSt3__116__tree_node_baseIPvE15__parent_unsafeB8ne190102Ev
FNL:26,652
FNA:26,0,_ZNSt3__116__tree_node_baseIPvE12__set_parentB8ne190102EPS2_
FNL:27,691
FNA:27,0,_ZNSt3__122__tree_node_destructorINS_9allocatorINS_11__tree_nodeINS_12__value_typeINS_12basic_stringIcNS_11char_traitsIcEENS1_IcEEEEN7testing8internal34TypeParameterizedTestSuiteRegistry30TypeParameterizedTestSuiteInfoEEEPvEEEEEC1B8ne190102ERSG_b
FNA:27,0,_ZNSt3__122__tree_node_destructorINS_9allocatorINS_11__tree_nodeINS_12__value_typeINS_12basic_stringIcNS_11char_traitsIcEENS1_IcEEEEN7testing8internal34TypeParameterizedTestSuiteRegistry30TypeParameterizedTestSuiteInfoEEEPvEEEEEC2B8ne190102ERSG_b
FNA:27,0,_ZNSt3__122__tree_node_destructorINS_9allocatorINS_11__tree_nodeINS_12__value_typeINS_12basic_stringIcNS_11char_traitsIcEENS1_IcEEEEmEEPvEEEEEC1B8ne190102ERSC_b
FNA:27,0,_ZNSt3__122__tree_node_destructorINS_9allocatorINS_11__tree_nodeINS_12__value_typeINS_12basic_stringIcNS_11char_traitsIcEENS1_IcEEEEmEEPvEEEEEC2B8ne190102ERSC_b
FNA:27,0,_ZNSt3__122__tree_node_destructorINS_9allocatorINS_11__tree_nodeINS_12basic_stringIcNS_11char_traitsIcEENS1_IcEEEEPvEEEEEC1B8ne190102ERSA_b
FNA:27,0,_ZNSt3__122__tree_node_destructorINS_9allocatorINS_11__tree_nodeINS_12basic_stringIcNS_11char_traitsIcEENS1_IcEEEEPvEEEEEC2B8ne190102ERSA_b
FNL:28,695
FNA:28,0,_ZNSt3__122__tree_node_destructorINS_9allocatorINS_11__tree_nodeINS_12__value_typeINS_12basic_stringIcNS_11char_traitsIcEENS1_IcEEEEN7testing8internal34TypeParameterizedTestSuiteRegistry30TypeParameterizedTestSuiteInfoEEEPvEEEEEclB8ne190102EPSF_
FNA:28,0,_ZNSt3__122__tree_node_destructorINS_9allocatorINS_11__tree_nodeINS_12__value_typeINS_12basic_stringIcNS_11char_traitsIcEENS1_IcEEEEmEEPvEEEEEclB8ne190102EPSB_
FNA:28,0,_ZNSt3__122__tree_node_destructorINS_9allocatorINS_11__tree_nodeINS_12basic_stringIcNS_11char_traitsIcEENS1_IcEEEEPvEEEEEclB8ne190102EPS9_
FNL:29,740
FNA:29,0,_ZNKSt3__115__tree_iteratorINS_12__value_typeINS_12basic_stringIcNS_11char_traitsIcEENS_9allocatorIcEEEEN7testing8internal34TypeParameterizedTestSuiteRegistry30TypeParameterizedTestSuiteInfoEEEPNS_11__tree_nodeISC_PvEElEdeB8ne190102Ev
FNA:29,0,_ZNKSt3__115__tree_iteratorINS_12__value_typeINS_12basic_stringIcNS_11char_traitsIcEENS_9allocatorIcEEEEmEEPNS_11__tree_nodeIS8_PvEElEdeB8ne190102Ev
FNL:30,741
FNA:30,0,_ZNKSt3__115__tree_iteratorINS_12__value_typeINS_12basic_stringIcNS_11char_traitsIcEENS_9allocatorIcEEEEN7testing8internal34TypeParameterizedTestSuiteRegistry30TypeParameterizedTestSuiteInfoEEEPNS_11__tree_nodeISC_PvEElEptB8ne190102Ev
FNA:30,0,_ZNKSt3__115__tree_iteratorINS_12__value_typeINS_12basic_stringIcNS_11char_traitsIcEENS_9allocatorIcEEEEmEEPNS_11__tree_nodeIS8_PvEElEptB8ne190102Ev
FNL:31,743
FNA:31,0,_ZNSt3__115__tree_iteratorINS_12__value_typeINS_12basic_stringIcNS_11char_traitsIcEENS_9allocatorIcEEEEN7testing8internal34TypeParameterizedTestSuiteRegistry30TypeParameterizedTestSuiteInfoEEEPNS_11__tree_nodeISC_PvEElEppB8ne190102Ev
FNL:32,765
FNA:32,1,_ZNSt3__1eqB8ne190102ERKNS_15__tree_iteratorINS_12__value_typeINS_12basic_stringIcNS_11char_traitsIcEENS_9allocatorIcEEEEN7testing8internal34TypeParameterizedTestSuiteRegistry30TypeParameterizedTestSuiteInfoEEEPNS_11__tree_nodeISC_PvEElEESJ_
FNA:32,0,_ZNSt3__1eqB8ne190102ERKNS_15__tree_iteratorINS_12__value_typeINS_12basic_stringIcNS_11char_traitsIcEENS_9allocatorIcEEEEmEEPNS_11__tree_nodeIS8_PvEElEESF_
FNL:33,768
FNA:33,1,_ZNSt3__1neB8ne190102ERKNS_15__tree_iteratorINS_12__value_typeINS_12basic_stringIcNS_11char_traitsIcEENS_9allocatorIcEEEEN7testing8internal34TypeParameterizedTestSuiteRegistry30TypeParameterizedTestSuiteInfoEEEPNS_11__tree_nodeISC_PvEElEESJ_
FNA:33,0,_ZNSt3__1neB8ne190102ERKNS_15__tree_iteratorINS_12__value_typeINS_12basic_stringIcNS_11char_traitsIcEENS_9allocatorIcEEEEmEEPNS_11__tree_nodeIS8_PvEElEESF_
FNL:34,773
FNA:34,0,_ZNSt3__115__tree_iteratorINS_12__value_typeINS_12basic_stringIcNS_11char_traitsIcEENS_9allocatorIcEEEEN7testing8internal34TypeParameterizedTestSuiteRegistry30TypeParameterizedTestSuiteInfoEEEPNS_11__tree_nodeISC_PvEElEC1B8ne190102ESG_
FNA:34,0,_ZNSt3__115__tree_iteratorINS_12__value_typeINS_12basic_stringIcNS_11char_traitsIcEENS_9allocatorIcEEEEN7testing8internal34TypeParameterizedTestSuiteRegistry30TypeParameterizedTestSuiteInfoEEEPNS_11__tree_nodeISC_PvEElEC2B8ne190102ESG_
FNA:34,0,_ZNSt3__115__tree_iteratorINS_12__value_typeINS_12basic_stringIcNS_11char_traitsIcEENS_9allocatorIcEEEEmEEPNS_11__tree_nodeIS8_PvEElEC1B8ne190102ESC_
FNA:34,0,_ZNSt3__115__tree_iteratorINS_12__value_typeINS_12basic_stringIcNS_11char_traitsIcEENS_9allocatorIcEEEEmEEPNS_11__tree_nodeIS8_PvEElEC2B8ne190102ESC_
FNA:34,0,_ZNSt3__115__tree_iteratorINS_12basic_stringIcNS_11char_traitsIcEENS_9allocatorIcEEEEPNS_11__tree_nodeIS6_PvEElEC1B8ne190102ESA_
FNA:34,0,_ZNSt3__115__tree_iteratorINS_12basic_stringIcNS_11char_traitsIcEENS_9allocatorIcEEEEPNS_11__tree_nodeIS6_PvEElEC2B8ne190102ESA_
FNL:35,774
FNA:35,0,_ZNSt3__115__tree_iteratorINS_12__value_typeINS_12basic_stringIcNS_11char_traitsIcEENS_9allocatorIcEEEEN7testing8internal12CodeLocationEEEPNS_11__tree_nodeISB_PvEElEC1B8ne190102EPNS_15__tree_end_nodeIPNS_16__tree_node_baseISD_EEEE
FNA:35,0,_ZNSt3__115__tree_iteratorINS_12__value_typeINS_12basic_stringIcNS_11char_traitsIcEENS_9allocatorIcEEEEN7testing8internal12CodeLocationEEEPNS_11__tree_nodeISB_PvEElEC2B8ne190102EPNS_15__tree_end_nodeIPNS_16__tree_node_baseISD_EEEE
FNA:35,2,_ZNSt3__115__tree_iteratorINS_12__value_typeINS_12basic_stringIcNS_11char_traitsIcEENS_9allocatorIcEEEEN7testing8internal34TypeParameterizedTestSuiteRegistry30TypeParameterizedTestSuiteInfoEEEPNS_11__tree_nodeISC_PvEElEC1B8ne190102EPNS_15__tree_end_nodeIPNS_16__tree_node_baseISE_EEEE
FNA:35,2,_ZNSt3__115__tree_iteratorINS_12__value_typeINS_12basic_stringIcNS_11char_traitsIcEENS_9allocatorIcEEEEN7testing8internal34TypeParameterizedTestSuiteRegistry30TypeParameterizedTestSuiteInfoEEEPNS_11__tree_nodeISC_PvEElEC2B8ne190102EPNS_15__tree_end_nodeIPNS_16__tree_node_baseISE_EEEE
FNA:35,0,_ZNSt3__115__tree_iteratorINS_12__value_typeINS_12basic_stringIcNS_11char_traitsIcEENS_9allocatorIcEEEEmEEPNS_11__tree_nodeIS8_PvEElEC1B8ne190102EPNS_15__tree_end_nodeIPNS_16__tree_node_baseISA_EEEE
FNA:35,0,_ZNSt3__115__tree_iteratorINS_12__value_typeINS_12basic_stringIcNS_11char_traitsIcEENS_9allocatorIcEEEEmEEPNS_11__tree_nodeIS8_PvEElEC2B8ne190102EPNS_15__tree_end_nodeIPNS_16__tree_node_baseISA_EEEE
FNL:36,775
FNA:36,0,_ZNKSt3__115__tree_iteratorINS_12__value_typeINS_12basic_stringIcNS_11char_traitsIcEENS_9allocatorIcEEEEN7testing8internal34TypeParameterizedTestSuiteRegistry30TypeParameterizedTestSuiteInfoEEEPNS_11__tree_nodeISC_PvEElE8__get_npB8ne190102Ev
FNA:36,0,_ZNKSt3__115__tree_iteratorINS_12__value_typeINS_12basic_stringIcNS_11char_traitsIcEENS_9allocatorIcEEEEmEEPNS_11__tree_nodeIS8_PvEElE8__get_npB8ne190102Ev
FNL:37,821
FNA:37,0,_ZNSt3__121__tree_const_iteratorINS_12__value_typeINS_12basic_stringIcNS_11char_traitsIcEENS_9allocatorIcEEEEN7testing8internal12CodeLocationEEEPNS_11__tree_nodeISB_PvEElEC1B8ne190102ENS_15__tree_iteratorISB_SF_lEE
FNA:37,0,_ZNSt3__121__tree_const_iteratorINS_12__value_typeINS_12basic_stringIcNS_11char_traitsIcEENS_9allocatorIcEEEEN7testing8internal12CodeLocationEEEPNS_11__tree_nodeISB_PvEElEC2B8ne190102ENS_15__tree_iteratorISB_SF_lEE
FNA:37,0,_ZNSt3__121__tree_const_iteratorINS_12basic_stringIcNS_11char_traitsIcEENS_9allocatorIcEEEEPNS_11__tree_nodeIS6_PvEElEC1B8ne190102ENS_15__tree_iteratorIS6_SA_lEE
FNA:37,0,_ZNSt3__121__tree_const_iteratorINS_12basic_stringIcNS_11char_traitsIcEENS_9allocatorIcEEEEPNS_11__tree_nodeIS6_PvEElEC2B8ne190102ENS_15__tree_iteratorIS6_SA_lEE
FNL:38,823
FNA:38,0,_ZNKSt3__121__tree_const_iteratorINS_12basic_stringIcNS_11char_traitsIcEENS_9allocatorIcEEEEPNS_11__tree_nodeIS6_PvEElEdeB8ne190102Ev
FNL:39,824
FNA:39,0,_ZNKSt3__121__tree_const_iteratorINS_12__value_typeINS_12basic_stringIcNS_11char_traitsIcEENS_9allocatorIcEEEEN7testing8internal12CodeLocationEEEPNS_11__tree_nodeISB_PvEElEptB8ne190102Ev
FNL:40,826
FNA:40,0,_ZNSt3__121__tree_const_iteratorINS_12__value_typeINS_12basic_stringIcNS_11char_traitsIcEENS_9allocatorIcEEEEN7testing8internal12CodeLocationEEEPNS_11__tree_nodeISB_PvEElEppB8ne190102Ev
FNL:41,850
FNA:41,0,_ZNSt3__1eqB8ne190102ERKNS_21__tree_const_iteratorINS_12__value_typeINS_12basic_stringIcNS_11char_traitsIcEENS_9allocatorIcEEEEN7testing8internal12CodeLocationEEEPNS_11__tree_nodeISB_PvEElEESI_
FNA:41,0,_ZNSt3__1eqB8ne190102ERKNS_21__tree_const_iteratorINS_12basic_stringIcNS_11char_traitsIcEENS_9allocatorIcEEEEPNS_11__tree_nodeIS6_PvEElEESD_
FNL:42,853
FNA:42,0,_ZNSt3__1neB8ne190102ERKNS_21__tree_const_iteratorINS_12__value_typeINS_12basic_stringIcNS_11char_traitsIcEENS_9allocatorIcEEEEN7testing8internal12CodeLocationEEEPNS_11__tree_nodeISB_PvEElEESI_
FNA:42,0,_ZNSt3__1neB8ne190102ERKNS_21__tree_const_iteratorINS_12basic_stringIcNS_11char_traitsIcEENS_9allocatorIcEEEEPNS_11__tree_nodeIS6_PvEElEESD_
FNL:43,859
FNA:43,0,_ZNSt3__121__tree_const_iteratorINS_12basic_stringIcNS_11char_traitsIcEENS_9allocatorIcEEEEPNS_11__tree_nodeIS6_PvEElEC1B8ne190102EPNS_15__tree_end_nodeIPNS_16__tree_node_baseIS8_EEEE
FNA:43,0,_ZNSt3__121__tree_const_iteratorINS_12basic_stringIcNS_11char_traitsIcEENS_9allocatorIcEEEEPNS_11__tree_nodeIS6_PvEElEC2B8ne190102EPNS_15__tree_end_nodeIPNS_16__tree_node_baseIS8_EEEE
FNL:44,860
FNA:44,0,_ZNKSt3__121__tree_const_iteratorINS_12__value_typeINS_12basic_stringIcNS_11char_traitsIcEENS_9allocatorIcEEEEN7testing8internal12CodeLocationEEEPNS_11__tree_nodeISB_PvEElE8__get_npB8ne190102Ev
FNA:44,0,_ZNKSt3__121__tree_const_iteratorINS_12basic_stringIcNS_11char_traitsIcEENS_9allocatorIcEEEEPNS_11__tree_nodeIS6_PvEElE8__get_npB8ne190102Ev
FNL:45,939
FNA:45,0,_ZNSt3__16__treeINS_12__value_typeINS_12basic_stringIcNS_11char_traitsIcEENS_9allocatorIcEEEEN7testing8internal12CodeLocationEEENS_19__map_value_compareIS7_SB_NS_4lessIvEELb1EEENS5_ISB_EEE10__end_nodeB8ne190102Ev
FNA:45,2,_ZNSt3__16__treeINS_12__value_typeINS_12basic_stringIcNS_11char_traitsIcEENS_9allocatorIcEEEEN7testing8internal34TypeParameterizedTestSuiteRegistry30TypeParameterizedTestSuiteInfoEEENS_19__map_value_compareIS7_SC_NS_4lessIS7_EELb1EEENS5_ISC_EEE10__end_nodeB8ne190102Ev
FNA:45,0,_ZNSt3__16__treeINS_12__value_typeINS_12basic_stringIcNS_11char_traitsIcEENS_9allocatorIcEEEEmEENS_19__map_value_compareIS7_S8_NS_4lessIS7_EELb1EEENS5_IS8_EEE10__end_nodeB8ne190102Ev
FNA:45,1,_ZNSt3__16__treeINS_12basic_stringIcNS_11char_traitsIcEENS_9allocatorIcEEEENS_4lessIS6_EENS4_IS6_EEE10__end_nodeB8ne190102Ev
FNL:46,942
FNA:46,0,_ZNKSt3__16__treeINS_12__value_typeINS_12basic_stringIcNS_11char_traitsIcEENS_9allocatorIcEEEEN7testing8internal12CodeLocationEEENS_19__map_value_compareIS7_SB_NS_4lessIvEELb1EEENS5_ISB_EEE10__end_nodeB8ne190102Ev
FNA:46,0,_ZNKSt3__16__treeINS_12__value_typeINS_12basic_stringIcNS_11char_traitsIcEENS_9allocatorIcEEEEN7testing8internal34TypeParameterizedTestSuiteRegistry30TypeParameterizedTestSuiteInfoEEENS_19__map_value_compareIS7_SC_NS_4lessIS7_EELb1EEENS5_ISC_EEE10__end_nodeB8ne190102Ev
FNA:46,0,_ZNKSt3__16__treeINS_12__value_typeINS_12basic_stringIcNS_11char_traitsIcEENS_9allocatorIcEEEEmEENS_19__map_value_compareIS7_S8_NS_4lessIS7_EELb1EEENS5_IS8_EEE10__end_nodeB8ne190102Ev
FNA:46,0,_ZNKSt3__16__treeINS_12basic_stringIcNS_11char_traitsIcEENS_9allocatorIcEEEENS_4lessIS6_EENS4_IS6_EEE10__end_nodeB8ne190102Ev
FNL:47,946
FNA:47,0,_ZNSt3__16__treeINS_12__value_typeINS_12basic_stringIcNS_11char_traitsIcEENS_9allocatorIcEEEEN7testing8internal34TypeParameterizedTestSuiteRegistry30TypeParameterizedTestSuiteInfoEEENS_19__map_value_compareIS7_SC_NS_4lessIS7_EELb1EEENS5_ISC_EEE12__node_allocB8ne190102Ev
FNA:47,0,_ZNSt3__16__treeINS_12__value_typeINS_12basic_stringIcNS_11char_traitsIcEENS_9allocatorIcEEEEmEENS_19__map_value_compareIS7_S8_NS_4lessIS7_EELb1EEENS5_IS8_EEE12__node_allocB8ne190102Ev
FNA:47,0,_ZNSt3__16__treeINS_12basic_stringIcNS_11char_traitsIcEENS_9allocatorIcEEEENS_4lessIS6_EENS4_IS6_EEE12__node_allocB8ne190102Ev
FNL:48,950
FNA:48,0,_ZNSt3__16__treeINS_12__value_typeINS_12basic_stringIcNS_11char_traitsIcEENS_9allocatorIcEEEEN7testing8internal12CodeLocationEEENS_19__map_value_compareIS7_SB_NS_4lessIvEELb1EEENS5_ISB_EEE12__begin_nodeB8ne190102Ev
FNA:48,2,_ZNSt3__16__treeINS_12__value_typeINS_12basic_stringIcNS_11char_traitsIcEENS_9allocatorIcEEEEN7testing8internal34TypeParameterizedTestSuiteRegistry30TypeParameterizedTestSuiteInfoEEENS_19__map_value_compareIS7_SC_NS_4lessIS7_EELb1EEENS5_ISC_EEE12__begin_nodeB8ne190102Ev
FNA:48,0,_ZNSt3__16__treeINS_12__value_typeINS_12basic_stringIcNS_11char_traitsIcEENS_9allocatorIcEEEEmEENS_19__map_value_compareIS7_S8_NS_4lessIS7_EELb1EEENS5_IS8_EEE12__begin_nodeB8ne190102Ev
FNA:48,1,_ZNSt3__16__treeINS_12basic_stringIcNS_11char_traitsIcEENS_9allocatorIcEEEENS_4lessIS6_EENS4_IS6_EEE12__begin_nodeB8ne190102Ev
FNL:49,957
FNA:49,0,_ZNSt3__16__treeINS_12__value_typeINS_12basic_stringIcNS_11char_traitsIcEENS_9allocatorIcEEEEN7testing8internal34TypeParameterizedTestSuiteRegistry30TypeParameterizedTestSuiteInfoEEENS_19__map_value_compareIS7_SC_NS_4lessIS7_EELb1EEENS5_ISC_EEE4sizeB8ne190102Ev
FNA:49,0,_ZNSt3__16__treeINS_12__value_typeINS_12basic_stringIcNS_11char_traitsIcEENS_9allocatorIcEEEEmEENS_19__map_value_compareIS7_S8_NS_4lessIS7_EELb1EEENS5_IS8_EEE4sizeB8ne190102Ev
FNA:49,0,_ZNSt3__16__treeINS_12basic_stringIcNS_11char_traitsIcEENS_9allocatorIcEEEENS_4lessIS6_EENS4_IS6_EEE4sizeB8ne190102Ev
FNL:50,960
FNA:50,0,_ZNKSt3__16__treeINS_12__value_typeINS_12basic_stringIcNS_11char_traitsIcEENS_9allocatorIcEEEEmEENS_19__map_value_compareIS7_S8_NS_4lessIS7_EELb1EEENS5_IS8_EEE4sizeB8ne190102Ev
FNL:51,961
FNA:51,0,_ZNSt3__16__treeINS_12__value_typeINS_12basic_stringIcNS_11char_traitsIcEENS_9allocatorIcEEEEN7testing8internal34TypeParameterizedTestSuiteRegistry30TypeParameterizedTestSuiteInfoEEENS_19__map_value_compareIS7_SC_NS_4lessIS7_EELb1EEENS5_ISC_EEE10value_compB8ne190102Ev
FNA:51,0,_ZNSt3__16__treeINS_12__value_typeINS_12basic_stringIcNS_11char_traitsIcEENS_9allocatorIcEEEEmEENS_19__map_value_compareIS7_S8_NS_4lessIS7_EELb1EEENS5_IS8_EEE10value_compB8ne190102Ev
FNA:51,0,_ZNSt3__16__treeINS_12basic_stringIcNS_11char_traitsIcEENS_9allocatorIcEEEENS_4lessIS6_EENS4_IS6_EEE10value_compB8ne190102Ev
FNL:52,962
FNA:52,0,_ZNKSt3__16__treeINS_12__value_typeINS_12basic_stringIcNS_11char_traitsIcEENS_9allocatorIcEEEEN7testing8internal12CodeLocationEEENS_19__map_value_compareIS7_SB_NS_4lessIvEELb1EEENS5_ISB_EEE10value_compB8ne190102Ev
FNA:52,0,_ZNKSt3__16__treeINS_12basic_stringIcNS_11char_traitsIcEENS_9allocatorIcEEEENS_4lessIS6_EENS4_IS6_EEE10value_compB8ne190102Ev
FNL:53,965
FNA:53,0,_ZNKSt3__16__treeINS_12__value_typeINS_12basic_stringIcNS_11char_traitsIcEENS_9allocatorIcEEEEN7testing8internal12CodeLocationEEENS_19__map_value_compareIS7_SB_NS_4lessIvEELb1EEENS5_ISB_EEE6__rootB8ne190102Ev
FNA:53,0,_ZNKSt3__16__treeINS_12__value_typeINS_12basic_stringIcNS_11char_traitsIcEENS_9allocatorIcEEEEN7testing8internal34TypeParameterizedTestSuiteRegistry30TypeParameterizedTestSuiteInfoEEENS_19__map_value_compareIS7_SC_NS_4lessIS7_EELb1EEENS5_ISC_EEE6__rootB8ne190102Ev
FNA:53,0,_ZNKSt3__16__treeINS_12__value_typeINS_12basic_stringIcNS_11char_traitsIcEENS_9allocatorIcEEEEmEENS_19__map_value_compareIS7_S8_NS_4lessIS7_EELb1EEENS5_IS8_EEE6__rootB8ne190102Ev
FNA:53,0,_ZNKSt3__16__treeINS_12basic_stringIcNS_11char_traitsIcEENS_9allocatorIcEEEENS_4lessIS6_EENS4_IS6_EEE6__rootB8ne190102Ev
FNL:54,969
FNA:54,0,_ZNKSt3__16__treeINS_12__value_typeINS_12basic_stringIcNS_11char_traitsIcEENS_9allocatorIcEEEEN7testing8internal34TypeParameterizedTestSuiteRegistry30TypeParameterizedTestSuiteInfoEEENS_19__map_value_compareIS7_SC_NS_4lessIS7_EELb1EEENS5_ISC_EEE10__root_ptrB8ne190102Ev
FNA:54,0,_ZNKSt3__16__treeINS_12__value_typeINS_12basic_stringIcNS_11char_traitsIcEENS_9allocatorIcEEEEmEENS_19__map_value_compareIS7_S8_NS_4lessIS7_EELb1EEENS5_IS8_EEE10__root_ptrB8ne190102Ev
FNA:54,0,_ZNKSt3__16__treeINS_12basic_stringIcNS_11char_traitsIcEENS_9allocatorIcEEEENS_4lessIS6_EENS4_IS6_EEE10__root_ptrB8ne190102Ev
FNL:55,994
FNA:55,0,_ZNSt3__16__treeINS_12__value_typeINS_12basic_stringIcNS_11char_traitsIcEENS_9allocatorIcEEEEN7testing8internal12CodeLocationEEENS_19__map_value_compareIS7_SB_NS_4lessIvEELb1EEENS5_ISB_EEE5beginB8ne190102Ev
FNA:55,1,_ZNSt3__16__treeINS_12__value_typeINS_12basic_stringIcNS_11char_traitsIcEENS_9allocatorIcEEEEN7testing8internal34TypeParameterizedTestSuiteRegistry30TypeParameterizedTestSuiteInfoEEENS_19__map_value_compareIS7_SC_NS_4lessIS7_EELb1EEENS5_ISC_EEE5beginB8ne190102Ev
FNL:56,996
FNA:56,0,_ZNSt3__16__treeINS_12__value_typeINS_12basic_stringIcNS_11char_traitsIcEENS_9allocatorIcEEEEN7testing8internal12CodeLocationEEENS_19__map_value_compareIS7_SB_NS_4lessIvEELb1EEENS5_ISB_EEE3endB8ne190102Ev
FNA:56,1,_ZNSt3__16__treeINS_12__value_typeINS_12basic_stringIcNS_11char_traitsIcEENS_9allocatorIcEEEEN7testing8internal34TypeParameterizedTestSuiteRegistry30TypeParameterizedTestSuiteInfoEEENS_19__map_value_compareIS7_SC_NS_4lessIS7_EELb1EEENS5_ISC_EEE3endB8ne190102Ev
FNA:56,0,_ZNSt3__16__treeINS_12__value_typeINS_12basic_stringIcNS_11char_traitsIcEENS_9allocatorIcEEEEmEENS_19__map_value_compareIS7_S8_NS_4lessIS7_EELb1EEENS5_IS8_EEE3endB8ne190102Ev
FNL:57,997
FNA:57,0,_ZNKSt3__16__treeINS_12basic_stringIcNS_11char_traitsIcEENS_9allocatorIcEEEENS_4lessIS6_EENS4_IS6_EEE3endB8ne190102Ev
FNF:58
FNH:9
DA:109,0
DA:110,0
DA:166,0
DA:168,0
DA:169,0
DA:170,0
DA:194,0
DA:196,0
DA:197,0
DA:198,0
DA:199,0
DA:200,0
DA:201,0
DA:237,0
DA:240,0
DA:241,0
DA:242,0
DA:243,0
DA:244,0
DA:245,0
DA:246,0
DA:248,0
DA:249,0
DA:250,0
DA:251,0
DA:256,0
DA:259,0
DA:260,0
DA:261,0
DA:262,0
DA:263,0
DA:264,0
DA:265,0
DA:267,0
DA:268,0
DA:269,0
DA:270,0
DA:280,0
DA:283,0
DA:284,0
DA:286,0
DA:287,0
DA:288,0
DA:289,0
DA:290,0
DA:291,0
DA:292,0
DA:293,0
DA:294,0
DA:295,0
DA:296,0
DA:297,0
DA:298,0
DA:299,0
DA:300,0
DA:301,0
DA:302,0
DA:303,0
DA:304,0
DA:306,0
DA:307,0
DA:308,0
DA:309,0
DA:310,0
DA:311,0
DA:312,0
DA:313,0
DA:314,0
DA:315,0
DA:316,0
DA:317,0
DA:318,0
DA:319,0
DA:320,0
DA:321,0
DA:322,0
DA:323,0
DA:324,0
DA:328,0
DA:520,0
DA:522,0
DA:553,0
DA:554,0
DA:635,4
DA:650,0
DA:652,0
DA:691,0
DA:692,0
DA:693,0
DA:695,0
DA:696,0
DA:697,0
DA:698,0
DA:699,0
DA:700,0
DA:740,0
DA:741,0
DA:743,0
DA:744,0
DA:745,0
DA:746,0
DA:765,1
DA:766,1
DA:768,1
DA:769,1
DA:773,0
DA:774,4
DA:775,0
DA:821,0
DA:823,0
DA:824,0
DA:826,0
DA:827,0
DA:828,0
DA:829,0
DA:850,0
DA:851,0
DA:853,0
DA:854,0
DA:859,0
DA:860,0
DA:939,3
DA:940,3
DA:942,0
DA:943,0
DA:944,0
DA:946,0
DA:950,3
DA:957,0
DA:960,0
DA:961,0
DA:962,0
DA:965,0
DA:966,0
DA:969,0
DA:970,0
DA:994,1
DA:996,1
DA:997,0
DA:1038,0
DA:1039,0
DA:1097,0
DA:1098,0
DA:1105,0
DA:1106,0
DA:1325,4
DA:1327,4
DA:1328,2
DA:1329,4
DA:1530,0
DA:1532,0
DA:1533,0
DA:1536,0
DA:1537,0
DA:1538,0
DA:1539,0
DA:1540,0
DA:1541,0
DA:1542,0
DA:1543,0
DA:1544,0
DA:1675,0
DA:1676,0
DA:1677,0
DA:1678,0
DA:1679,0
DA:1680,0
DA:1681,0
DA:1682,0
DA:1683,0
DA:1684,0
DA:1685,0
DA:1686,0
DA:1688,0
DA:1689,0
DA:1690,0
DA:1691,0
DA:1692,0
DA:1693,0
DA:1694,0
DA:1696,0
DA:1697,0
DA:1698,0
DA:1702,0
DA:1703,0
DA:1704,0
DA:1757,0
DA:1759,0
DA:1760,0
DA:1761,0
DA:1763,0
DA:1764,0
DA:1765,0
DA:1766,0
DA:1767,0
DA:1768,0
DA:1773,0
DA:1775,0
DA:1776,0
DA:1777,0
DA:1778,0
DA:1779,0
DA:1780,0
DA:1781,0
DA:1782,0
DA:1783,0
DA:1784,0
DA:1809,0
DA:1811,0
DA:1812,0
DA:1813,0
DA:1814,0
DA:1815,0
DA:1816,0
DA:2080,0
DA:2081,0
DA:2082,0
DA:2083,0
DA:2084,0
DA:2085,0
DA:2090,0
DA:2091,0
DA:2092,0
DA:2093,0
DA:2094,0
DA:2095,0
DA:2100,0
DA:2101,0
DA:2102,0
DA:2103,0
DA:2104,0
DA:2105,0
DA:2106,0
DA:2108,0
DA:2110,0
DA:2111,0
DA:2136,0
DA:2137,0
DA:2138,0
DA:2139,0
DA:2140,0
DA:2141,0
DA:2142,0
DA:2144,0
DA:2149,0
DA:2151,0
DA:2152,0
DA:2153,0
DA:2154,0
DA:2155,0
DA:2156,0
DA:2158,0
LF:252
LH:15
end_of_record
TN:
SF:/Library/Developer/CommandLineTools/SDKs/MacOSX.sdk/usr/include/c++/v1/__type_traits/invoke.h
FNL:0,147,149
FNA:0,0,_ZNSt3__18__invokeB8ne190102IRNS_10__identityEJRKNS_12basic_stringIcNS_11char_traitsIcEENS_9allocatorIcEEEEEEEDTclclsr3stdE7declvalIT_EEspclsr3stdE7declvalIT0_EEEEOSB_DpOSC_
FNA:0,0,_ZNSt3__18__invokeB8ne190102IRNS_10__identityEJRPN7testing8TestInfoEEEEDTclclsr3stdE7declvalIT_EEspclsr3stdE7declvalIT0_EEEEOS7_DpOS8_
FNA:0,0,_ZNSt3__18__invokeB8ne190102IRZN7testing9TestSuite3RunEvE3$_0JRKPNS1_8TestInfoERS6_EEEDTclclsr3stdE7declvalIT_EEspclsr3stdE7declvalIT0_EEEEOSA_DpOSB_
FNA:0,0,_ZNSt3__18__invokeB8ne190102IRZN7testing9TestSuite3RunEvE3$_0JRPNS1_8TestInfoERKS6_EEEDTclclsr3stdE7declvalIT_EEspclsr3stdE7declvalIT0_EEEEOSA_DpOSB_
FNF:1
FNH:0
DA:147,0
DA:149,0
LF:2
LH:0
end_of_record
TN:
SF:/Library/Developer/CommandLineTools/SDKs/MacOSX.sdk/usr/include/c++/v1/__utility/convert_to_integral.h
FNL:0,28,28
FNA:0,8,_ZNSt3__121__convert_to_integralB8ne190102El
FNL:1,30,31
FNA:1,13,_ZNSt3__121__convert_to_integralB8ne190102Em
FNF:2
FNH:2
DA:28,8
DA:30,13
DA:31,13
LF:3
LH:3
end_of_record
TN:
SF:/Library/Developer/CommandLineTools/SDKs/MacOSX.sdk/usr/include/c++/v1/__utility/exception_guard.h
FNL:0,136,137
FNA:0,0,_ZNSt3__122__make_exception_guardB8ne190102INS_29_AllocatorDestroyRangeReverseINS_9allocatorIN7testing12TestPropertyEEEPS4_EEEENS_28__exception_guard_exceptionsIT_EES9_
FNA:0,0,_ZNSt3__122__make_exception_guardB8ne190102INS_29_AllocatorDestroyRangeReverseINS_9allocatorIN7testing14TestPartResultEEEPS4_EEEENS_28__exception_guard_exceptionsIT_EES9_
FNA:0,0,_ZNSt3__122__make_exception_guardB8ne190102INS_29_AllocatorDestroyRangeReverseINS_9allocatorIN7testing8internal9TraceInfoEEEPS5_EEEENS_28__exception_guard_exceptionsIT_EESA_
FNA:0,1,_ZNSt3__122__make_exception_guardB8ne190102INS_29_AllocatorDestroyRangeReverseINS_9allocatorINS_12basic_stringIcNS_11char_traitsIcEENS2_IcEEEEEEPS7_EEEENS_28__exception_guard_exceptionsIT_EESC_
FNA:0,0,_ZNSt3__122__make_exception_guardB8ne190102INS_6vectorIN7testing8internal13edit_distance8EditTypeENS_9allocatorIS5_EEE16__destroy_vectorEEENS_28__exception_guard_exceptionsIT_EESB_
FNA:0,0,_ZNSt3__122__make_exception_guardB8ne190102INS_6vectorINS1_IN7testing8internal13edit_distance8EditTypeENS_9allocatorIS5_EEEENS6_IS8_EEE16__destroy_vectorEEENS_28__exception_guard_exceptionsIT_EESD_
FNA:0,0,_ZNSt3__122__make_exception_guardB8ne190102INS_6vectorINS1_IdNS_9allocatorIdEEEENS2_IS4_EEE16__destroy_vectorEEENS_28__exception_guard_exceptionsIT_EES9_
FNA:0,2,_ZNSt3__122__make_exception_guardB8ne190102INS_6vectorINS_12basic_stringIcNS_11char_traitsIcEENS_9allocatorIcEEEENS5_IS7_EEE16__destroy_vectorEEENS_28__exception_guard_exceptionsIT_EESC_
FNA:0,0,_ZNSt3__122__make_exception_guardB8ne190102INS_6vectorIdNS_9allocatorIdEEE16__destroy_vectorEEENS_28__exception_guard_exceptionsIT_EES7_
FNL:1,68,69
FNA:1,0,_ZNSt3__128__exception_guard_exceptionsINS_29_AllocatorDestroyRangeReverseINS_9allocatorIN7testing12TestPropertyEEEPS4_EEEC1B8ne190102ES7_
FNA:1,0,_ZNSt3__128__exception_guard_exceptionsINS_29_AllocatorDestroyRangeReverseINS_9allocatorIN7testing12TestPropertyEEEPS4_EEEC2B8ne190102ES7_
FNA:1,0,_ZNSt3__128__exception_guard_exceptionsINS_29_AllocatorDestroyRangeReverseINS_9allocatorIN7testing14TestPartResultEEEPS4_EEEC1B8ne190102ES7_
FNA:1,0,_ZNSt3__128__exception_guard_exceptionsINS_29_AllocatorDestroyRangeReverseINS_9allocatorIN7testing14TestPartResultEEEPS4_EEEC2B8ne190102ES7_
FNA:1,0,_ZNSt3__128__exception_guard_exceptionsINS_29_AllocatorDestroyRangeReverseINS_9allocatorIN7testing8internal9TraceInfoEEEPS5_EEEC1B8ne190102ES8_
FNA:1,0,_ZNSt3__128__exception_guard_exceptionsINS_29_AllocatorDestroyRangeReverseINS_9allocatorIN7testing8internal9TraceInfoEEEPS5_EEEC2B8ne190102ES8_
FNA:1,1,_ZNSt3__128__exception_guard_exceptionsINS_29_AllocatorDestroyRangeReverseINS_9allocatorINS_12basic_stringIcNS_11char_traitsIcEENS2_IcEEEEEEPS7_EEEC1B8ne190102ESA_
FNA:1,1,_ZNSt3__128__exception_guard_exceptionsINS_29_AllocatorDestroyRangeReverseINS_9allocatorINS_12basic_stringIcNS_11char_traitsIcEENS2_IcEEEEEEPS7_EEEC2B8ne190102ESA_
FNA:1,0,_ZNSt3__128__exception_guard_exceptionsINS_6vectorIN7testing8internal13edit_distance8EditTypeENS_9allocatorIS5_EEE16__destroy_vectorEEC1B8ne190102ES9_
FNA:1,0,_ZNSt3__128__exception_guard_exceptionsINS_6vectorIN7testing8internal13edit_distance8EditTypeENS_9allocatorIS5_EEE16__destroy_vectorEEC2B8ne190102ES9_
FNA:1,0,_ZNSt3__128__exception_guard_exceptionsINS_6vectorINS1_IN7testing8internal13edit_distance8EditTypeENS_9allocatorIS5_EEEENS6_IS8_EEE16__destroy_vectorEEC1B8ne190102ESB_
FNA:1,0,_ZNSt3__128__exception_guard_exceptionsINS_6vectorINS1_IN7testing8internal13edit_distance8EditTypeENS_9allocatorIS5_EEEENS6_IS8_EEE16__destroy_vectorEEC2B8ne190102ESB_
FNA:1,0,_ZNSt3__128__exception_guard_exceptionsINS_6vectorINS1_IdNS_9allocatorIdEEEENS2_IS4_EEE16__destroy_vectorEEC1B8ne190102ES7_
FNA:1,0,_ZNSt3__128__exception_guard_exceptionsINS_6vectorINS1_IdNS_9allocatorIdEEEENS2_IS4_EEE16__destroy_vectorEEC2B8ne190102ES7_
FNA:1,2,_ZNSt3__128__exception_guard_exceptionsINS_6vectorINS_12basic_stringIcNS_11char_traitsIcEENS_9allocatorIcEEEENS5_IS7_EEE16__destroy_vectorEEC1B8ne190102ESA_
FNA:1,2,_ZNSt3__128__exception_guard_exceptionsINS_6vectorINS_12basic_stringIcNS_11char_traitsIcEENS_9allocatorIcEEEENS5_IS7_EEE16__destroy_vectorEEC2B8ne190102ESA_
FNA:1,0,_ZNSt3__128__exception_guard_exceptionsINS_6vectorIdNS_9allocatorIdEEE16__destroy_vectorEEC1B8ne190102ES5_
FNA:1,0,_ZNSt3__128__exception_guard_exceptionsINS_6vectorIdNS_9allocatorIdEEE16__destroy_vectorEEC2B8ne190102ES5_
FNL:2,82,82
FNA:2,0,_ZNSt3__128__exception_guard_exceptionsINS_29_AllocatorDestroyRangeReverseINS_9allocatorIN7testing12TestPropertyEEEPS4_EEE10__completeB8ne190102Ev
FNA:2,0,_ZNSt3__128__exception_guard_exceptionsINS_29_AllocatorDestroyRangeReverseINS_9allocatorIN7testing14TestPartResultEEEPS4_EEE10__completeB8ne190102Ev
FNA:2,0,_ZNSt3__128__exception_guard_exceptionsINS_29_AllocatorDestroyRangeReverseINS_9allocatorIN7testing8internal9TraceInfoEEEPS5_EEE10__completeB8ne190102Ev
FNA:2,1,_ZNSt3__128__exception_guard_exceptionsINS_29_AllocatorDestroyRangeReverseINS_9allocatorINS_12basic_stringIcNS_11char_traitsIcEENS2_IcEEEEEEPS7_EEE10__completeB8ne190102Ev
FNA:2,0,_ZNSt3__128__exception_guard_exceptionsINS_6vectorIN7testing8internal13edit_distance8EditTypeENS_9allocatorIS5_EEE16__destroy_vectorEE10__completeB8ne190102Ev
FNA:2,0,_ZNSt3__128__exception_guard_exceptionsINS_6vectorINS1_IN7testing8internal13edit_distance8EditTypeENS_9allocatorIS5_EEEENS6_IS8_EEE16__destroy_vectorEE10__completeB8ne190102Ev
FNA:2,0,_ZNSt3__128__exception_guard_exceptionsINS_6vectorINS1_IdNS_9allocatorIdEEEENS2_IS4_EEE16__destroy_vectorEE10__completeB8ne190102Ev
FNA:2,2,_ZNSt3__128__exception_guard_exceptionsINS_6vectorINS_12basic_stringIcNS_11char_traitsIcEENS_9allocatorIcEEEENS5_IS7_EEE16__destroy_vectorEE10__completeB8ne190102Ev
FNA:2,0,_ZNSt3__128__exception_guard_exceptionsINS_6vectorIdNS_9allocatorIdEEE16__destroy_vectorEE10__completeB8ne190102Ev
FNL:3,84,87
FNA:3,0,_ZNSt3__128__exception_guard_exceptionsINS_29_AllocatorDestroyRangeReverseINS_9allocatorIN7testing12TestPropertyEEEPS4_EEED1B8ne190102Ev
FNA:3,0,_ZNSt3__128__exception_guard_exceptionsINS_29_AllocatorDestroyRangeReverseINS_9allocatorIN7testing12TestPropertyEEEPS4_EEED2B8ne190102Ev
FNA:3,0,_ZNSt3__128__exception_guard_exceptionsINS_29_AllocatorDestroyRangeReverseINS_9allocatorIN7testing14TestPartResultEEEPS4_EEED1B8ne190102Ev
FNA:3,0,_ZNSt3__128__exception_guard_exceptionsINS_29_AllocatorDestroyRangeReverseINS_9allocatorIN7testing14TestPartResultEEEPS4_EEED2B8ne190102Ev
FNA:3,0,_ZNSt3__128__exception_guard_exceptionsINS_29_AllocatorDestroyRangeReverseINS_9allocatorIN7testing8internal9TraceInfoEEEPS5_EEED1B8ne190102Ev
FNA:3,0,_ZNSt3__128__exception_guard_exceptionsINS_29_AllocatorDestroyRangeReverseINS_9allocatorIN7testing8internal9TraceInfoEEEPS5_EEED2B8ne190102Ev
FNA:3,1,_ZNSt3__128__exception_guard_exceptionsINS_29_AllocatorDestroyRangeReverseINS_9allocatorINS_12basic_stringIcNS_11char_traitsIcEENS2_IcEEEEEEPS7_EEED1B8ne190102Ev
FNA:3,1,_ZNSt3__128__exception_guard_exceptionsINS_29_AllocatorDestroyRangeReverseINS_9allocatorINS_12basic_stringIcNS_11char_traitsIcEENS2_IcEEEEEEPS7_EEED2B8ne190102Ev
FNA:3,0,_ZNSt3__128__exception_guard_exceptionsINS_6vectorIN7testing8internal13edit_distance8EditTypeENS_9allocatorIS5_EEE16__destroy_vectorEED1B8ne190102Ev
FNA:3,0,_ZNSt3__128__exception_guard_exceptionsINS_6vectorIN7testing8internal13edit_distance8EditTypeENS_9allocatorIS5_EEE16__destroy_vectorEED2B8ne190102Ev
FNA:3,0,_ZNSt3__128__exception_guard_exceptionsINS_6vectorINS1_IN7testing8internal13edit_distance8EditTypeENS_9allocatorIS5_EEEENS6_IS8_EEE16__destroy_vectorEED1B8ne190102Ev
FNA:3,0,_ZNSt3__128__exception_guard_exceptionsINS_6vectorINS1_IN7testing8internal13edit_distance8EditTypeENS_9allocatorIS5_EEEENS6_IS8_EEE16__destroy_vectorEED2B8ne190102Ev
FNA:3,0,_ZNSt3__128__exception_guard_exceptionsINS_6vectorINS1_IdNS_9allocatorIdEEEENS2_IS4_EEE16__destroy_vectorEED1B8ne190102Ev
FNA:3,0,_ZNSt3__128__exception_guard_exceptionsINS_6vectorINS1_IdNS_9allocatorIdEEEENS2_IS4_EEE16__destroy_vectorEED2B8ne190102Ev
FNA:3,2,_ZNSt3__128__exception_guard_exceptionsINS_6vectorINS_12basic_stringIcNS_11char_traitsIcEENS_9allocatorIcEEEENS5_IS7_EEE16__destroy_vectorEED1B8ne190102Ev
FNA:3,2,_ZNSt3__128__exception_guard_exceptionsINS_6vectorINS_12basic_stringIcNS_11char_traitsIcEENS_9allocatorIcEEEENS5_IS7_EEE16__destroy_vectorEED2B8ne190102Ev
FNA:3,0,_ZNSt3__128__exception_guard_exceptionsINS_6vectorIdNS_9allocatorIdEEE16__destroy_vectorEED1B8ne190102Ev
FNA:3,0,_ZNSt3__128__exception_guard_exceptionsINS_6vectorIdNS_9allocatorIdEEE16__destroy_vectorEED2B8ne190102Ev
FNF:4
FNH:4
DA:68,6
DA:69,6
DA:82,3
DA:84,6
DA:85,3
DA:86,0
DA:87,6
DA:136,3
DA:137,3
LF:9
LH:8
end_of_record
TN:
SF:/Library/Developer/CommandLineTools/SDKs/MacOSX.sdk/usr/include/c++/v1/__utility/is_pointer_in_range.h
FNL:0,37,47
FNA:0,0,_ZNSt3__121__is_pointer_in_rangeB8ne190102IPN7testing9TestSuiteES3_Li0EEEbPKT_S6_PKT0_
FNF:1
FNH:0
DA:37,0
DA:47,0
LF:2
LH:0
end_of_record
TN:
SF:/Library/Developer/CommandLineTools/SDKs/MacOSX.sdk/usr/include/c++/v1/__utility/pair.h
FNL:0,180,182
FNA:0,4,_ZNSt3__14pairIKNS_12basic_stringIcNS_11char_traitsIcEENS_9allocatorIcEEEEPN7testing9TestSuiteEEC1B8ne190102ILb1ELi0EEERS7_RKSA_
FNA:0,4,_ZNSt3__14pairIKNS_12basic_stringIcNS_11char_traitsIcEENS_9allocatorIcEEEEPN7testing9TestSuiteEEC2B8ne190102ILb1ELi0EEERS7_RKSA_
FNA:0,4,_ZNSt3__14pairIPPN7testing8TestInfoElEC1B8ne190102ILb1ELi0EEERKS4_RKl
FNA:0,4,_ZNSt3__14pairIPPN7testing8TestInfoElEC2B8ne190102ILb1ELi0EEERKS4_RKl
FNL:1,194,197
FNA:1,0,_ZNSt3__14pairIKNS_12basic_stringIcNS_11char_traitsIcEENS_9allocatorIcEEEEN7testing8internal34TypeParameterizedTestSuiteRegistry30TypeParameterizedTestSuiteInfoEEC1B8ne190102IS6_SB_Li0EEEOT_OT0_
FNA:1,0,_ZNSt3__14pairIKNS_12basic_stringIcNS_11char_traitsIcEENS_9allocatorIcEEEEN7testing8internal34TypeParameterizedTestSuiteRegistry30TypeParameterizedTestSuiteInfoEEC2B8ne190102IS6_SB_Li0EEEOT_OT0_
FNA:1,7,_ZNSt3__14pairINS_11__wrap_iterIPNS_12basic_stringIcNS_11char_traitsIcEENS_9allocatorIcEEEEEENS_15insert_iteratorINS_13unordered_setIS7_NS_4hashIS7_EENS_8equal_toIS7_EENS5_IS7_EEEEEEEC1B8ne190102IS9_SI_Li0EEEOT_OT0_
FNA:1,7,_ZNSt3__14pairINS_11__wrap_iterIPNS_12basic_stringIcNS_11char_traitsIcEENS_9allocatorIcEEEEEENS_15insert_iteratorINS_13unordered_setIS7_NS_4hashIS7_EENS_8equal_toIS7_EENS5_IS7_EEEEEEEC2B8ne190102IS9_SI_Li0EEEOT_OT0_
FNA:1,7,_ZNSt3__14pairINS_11__wrap_iterIPNS_12basic_stringIcNS_11char_traitsIcEENS_9allocatorIcEEEEEENS_15insert_iteratorINS_6vectorIS7_NS5_IS7_EEEEEEEC1B8ne190102IS9_SE_Li0EEEOT_OT0_
FNA:1,7,_ZNSt3__14pairINS_11__wrap_iterIPNS_12basic_stringIcNS_11char_traitsIcEENS_9allocatorIcEEEEEENS_15insert_iteratorINS_6vectorIS7_NS5_IS7_EEEEEEEC2B8ne190102IS9_SE_Li0EEEOT_OT0_
FNA:1,7,_ZNSt3__14pairINS_11__wrap_iterIPNS_12basic_stringIcNS_11char_traitsIcEENS_9allocatorIcEEEEEES9_EC1B8ne190102IS9_S9_Li0EEEOT_OT0_
FNA:1,7,_ZNSt3__14pairINS_11__wrap_iterIPNS_12basic_stringIcNS_11char_traitsIcEENS_9allocatorIcEEEEEES9_EC2B8ne190102IS9_S9_Li0EEEOT_OT0_
FNA:1,0,_ZNSt3__14pairINS_11__wrap_iterIPPN7testing8TestInfoEEES6_EC1B8ne190102IRS6_S9_Li0EEEOT_OT0_
FNA:1,0,_ZNSt3__14pairINS_11__wrap_iterIPPN7testing8TestInfoEEES6_EC1B8ne190102IS6_S6_Li0EEEOT_OT0_
FNA:1,0,_ZNSt3__14pairINS_11__wrap_iterIPPN7testing8TestInfoEEES6_EC2B8ne190102IRS6_S9_Li0EEEOT_OT0_
FNA:1,0,_ZNSt3__14pairINS_11__wrap_iterIPPN7testing8TestInfoEEES6_EC2B8ne190102IS6_S6_Li0EEEOT_OT0_
FNA:1,0,_ZNSt3__14pairINS_15__hash_iteratorIPNS_11__hash_nodeINS_12basic_stringIcNS_11char_traitsIcEENS_9allocatorIcEEEEPvEEEEbEC1B8ne190102ISC_RbLi0EEEOT_OT0_
FNA:1,0,_ZNSt3__14pairINS_15__hash_iteratorIPNS_11__hash_nodeINS_12basic_stringIcNS_11char_traitsIcEENS_9allocatorIcEEEEPvEEEEbEC2B8ne190102ISC_RbLi0EEEOT_OT0_
FNA:1,4,_ZNSt3__14pairINS_15__hash_iteratorIPNS_11__hash_nodeINS_17__hash_value_typeINS_12basic_stringIcNS_11char_traitsIcEENS_9allocatorIcEEEEPN7testing9TestSuiteEEEPvEEEEbEC1B8ne190102ISH_RbLi0EEEOT_OT0_
FNA:1,4,_ZNSt3__14pairINS_15__hash_iteratorIPNS_11__hash_nodeINS_17__hash_value_typeINS_12basic_stringIcNS_11char_traitsIcEENS_9allocatorIcEEEEPN7testing9TestSuiteEEEPvEEEEbEC2B8ne190102ISH_RbLi0EEEOT_OT0_
FNA:1,0,_ZNSt3__14pairINS_15__tree_iteratorINS_12__value_typeINS_12basic_stringIcNS_11char_traitsIcEENS_9allocatorIcEEEEN7testing8internal34TypeParameterizedTestSuiteRegistry30TypeParameterizedTestSuiteInfoEEEPNS_11__tree_nodeISD_PvEElEEbEC1B8ne190102ISI_RbLi0EEEOT_OT0_
FNA:1,0,_ZNSt3__14pairINS_15__tree_iteratorINS_12__value_typeINS_12basic_stringIcNS_11char_traitsIcEENS_9allocatorIcEEEEN7testing8internal34TypeParameterizedTestSuiteRegistry30TypeParameterizedTestSuiteInfoEEEPNS_11__tree_nodeISD_PvEElEEbEC2B8ne190102ISI_RbLi0EEEOT_OT0_
FNA:1,0,_ZNSt3__14pairINS_15__tree_iteratorINS_12__value_typeINS_12basic_stringIcNS_11char_traitsIcEENS_9allocatorIcEEEEmEEPNS_11__tree_nodeIS9_PvEElEEbEC1B8ne190102ISE_RbLi0EEEOT_OT0_
FNA:1,0,_ZNSt3__14pairINS_15__tree_iteratorINS_12__value_typeINS_12basic_stringIcNS_11char_traitsIcEENS_9allocatorIcEEEEmEEPNS_11__tree_nodeIS9_PvEElEEbEC2B8ne190102ISE_RbLi0EEEOT_OT0_
FNA:1,0,_ZNSt3__14pairINS_15__tree_iteratorINS_12basic_stringIcNS_11char_traitsIcEENS_9allocatorIcEEEEPNS_11__tree_nodeIS7_PvEElEEbEC1B8ne190102ISC_RbLi0EEEOT_OT0_
FNA:1,0,_ZNSt3__14pairINS_15__tree_iteratorINS_12basic_stringIcNS_11char_traitsIcEENS_9allocatorIcEEEEPNS_11__tree_nodeIS7_PvEElEEbEC2B8ne190102ISC_RbLi0EEEOT_OT0_
FNA:1,0,_ZNSt3__14pairINS_16reverse_iteratorIPPN7testing8TestInfoEEENS1_INS_11__wrap_iterIS5_EEEEEC1B8ne190102IS6_S9_Li0EEEOT_OT0_
FNA:1,0,_ZNSt3__14pairINS_16reverse_iteratorIPPN7testing8TestInfoEEENS1_INS_11__wrap_iterIS5_EEEEEC2B8ne190102IS6_S9_Li0EEEOT_OT0_
FNA:1,0,_ZNSt3__14pairINS_16reverse_iteratorIPPN7testing8TestInfoEEES6_EC1B8ne190102IS6_S6_Li0EEEOT_OT0_
FNA:1,0,_ZNSt3__14pairINS_16reverse_iteratorIPPN7testing8TestInfoEEES6_EC2B8ne190102IS6_S6_Li0EEEOT_OT0_
FNA:1,0,_ZNSt3__14pairIPKNS_12basic_stringIcNS_11char_traitsIcEENS_9allocatorIcEEEES8_EC1B8ne190102IS8_S8_Li0EEEOT_OT0_
FNA:1,0,_ZNSt3__14pairIPKNS_12basic_stringIcNS_11char_traitsIcEENS_9allocatorIcEEEES8_EC2B8ne190102IS8_S8_Li0EEEOT_OT0_
FNA:1,0,_ZNSt3__14pairIPKPKcS4_EC1B8ne190102IS4_S4_Li0EEEOT_OT0_
FNA:1,0,_ZNSt3__14pairIPKPKcS4_EC2B8ne190102IS4_S4_Li0EEEOT_OT0_
FNA:1,0,_ZNSt3__14pairIPN7testing8internal13edit_distance8EditTypeES5_EC1B8ne190102IRS5_S5_Li0EEEOT_OT0_
FNA:1,0,_ZNSt3__14pairIPN7testing8internal13edit_distance8EditTypeES5_EC1B8ne190102IS5_S5_Li0EEEOT_OT0_
FNA:1,0,_ZNSt3__14pairIPN7testing8internal13edit_distance8EditTypeES5_EC2B8ne190102IRS5_S5_Li0EEEOT_OT0_
FNA:1,0,_ZNSt3__14pairIPN7testing8internal13edit_distance8EditTypeES5_EC2B8ne190102IS5_S5_Li0EEEOT_OT0_
FNA:1,7,_ZNSt3__14pairIPNS_12basic_stringIcNS_11char_traitsIcEENS_9allocatorIcEEEENS_15insert_iteratorINS_13unordered_setIS6_NS_4hashIS6_EENS_8equal_toIS6_EENS4_IS6_EEEEEEEC1B8ne190102IS7_SG_Li0EEEOT_OT0_
FNA:1,7,_ZNSt3__14pairIPNS_12basic_stringIcNS_11char_traitsIcEENS_9allocatorIcEEEENS_15insert_iteratorINS_13unordered_setIS6_NS_4hashIS6_EENS_8equal_toIS6_EENS4_IS6_EEEEEEEC2B8ne190102IS7_SG_Li0EEEOT_OT0_
FNA:1,7,_ZNSt3__14pairIPNS_12basic_stringIcNS_11char_traitsIcEENS_9allocatorIcEEEENS_15insert_iteratorINS_6vectorIS6_NS4_IS6_EEEEEEEC1B8ne190102IS7_SC_Li0EEEOT_OT0_
FNA:1,7,_ZNSt3__14pairIPNS_12basic_stringIcNS_11char_traitsIcEENS_9allocatorIcEEEENS_15insert_iteratorINS_6vectorIS6_NS4_IS6_EEEEEEEC2B8ne190102IS7_SC_Li0EEEOT_OT0_
FNA:1,15,_ZNSt3__14pairIPNS_12basic_stringIcNS_11char_traitsIcEENS_9allocatorIcEEEES7_EC1B8ne190102IS7_S7_Li0EEEOT_OT0_
FNA:1,15,_ZNSt3__14pairIPNS_12basic_stringIcNS_11char_traitsIcEENS_9allocatorIcEEEES7_EC2B8ne190102IS7_S7_Li0EEEOT_OT0_
FNA:1,0,_ZNSt3__14pairIPPN7testing17TestEventListenerES4_EC1B8ne190102IRS4_S4_Li0EEEOT_OT0_
FNA:1,0,_ZNSt3__14pairIPPN7testing17TestEventListenerES4_EC1B8ne190102IS4_S4_Li0EEEOT_OT0_
FNA:1,0,_ZNSt3__14pairIPPN7testing17TestEventListenerES4_EC2B8ne190102IRS4_S4_Li0EEEOT_OT0_
FNA:1,0,_ZNSt3__14pairIPPN7testing17TestEventListenerES4_EC2B8ne190102IS4_S4_Li0EEEOT_OT0_
FNA:1,0,_ZNSt3__14pairIPPN7testing8TestInfoENS_11__wrap_iterIS4_EEEC1B8ne190102IS4_S6_Li0EEEOT_OT0_
FNA:1,0,_ZNSt3__14pairIPPN7testing8TestInfoENS_11__wrap_iterIS4_EEEC2B8ne190102IS4_S6_Li0EEEOT_OT0_
FNA:1,0,_ZNSt3__14pairIPPN7testing8TestInfoES4_EC1B8ne190102IRS4_S4_Li0EEEOT_OT0_
FNA:1,0,_ZNSt3__14pairIPPN7testing8TestInfoES4_EC1B8ne190102IRS4_S7_Li0EEEOT_OT0_
FNA:1,0,_ZNSt3__14pairIPPN7testing8TestInfoES4_EC1B8ne190102IS4_S4_Li0EEEOT_OT0_
FNA:1,0,_ZNSt3__14pairIPPN7testing8TestInfoES4_EC2B8ne190102IRS4_S4_Li0EEEOT_OT0_
FNA:1,0,_ZNSt3__14pairIPPN7testing8TestInfoES4_EC2B8ne190102IRS4_S7_Li0EEEOT_OT0_
FNA:1,0,_ZNSt3__14pairIPPN7testing8TestInfoES4_EC2B8ne190102IS4_S4_Li0EEEOT_OT0_
FNA:1,0,_ZNSt3__14pairIPPN7testing9TestSuiteES4_EC1B8ne190102IRS4_S4_Li0EEEOT_OT0_
FNA:1,0,_ZNSt3__14pairIPPN7testing9TestSuiteES4_EC1B8ne190102IRS4_S7_Li0EEEOT_OT0_
FNA:1,0,_ZNSt3__14pairIPPN7testing9TestSuiteES4_EC1B8ne190102IS4_S4_Li0EEEOT_OT0_
FNA:1,0,_ZNSt3__14pairIPPN7testing9TestSuiteES4_EC2B8ne190102IRS4_S4_Li0EEEOT_OT0_
FNA:1,0,_ZNSt3__14pairIPPN7testing9TestSuiteES4_EC2B8ne190102IRS4_S7_Li0EEEOT_OT0_
FNA:1,0,_ZNSt3__14pairIPPN7testing9TestSuiteES4_EC2B8ne190102IS4_S4_Li0EEEOT_OT0_
FNA:1,0,_ZNSt3__14pairIPdS1_EC1B8ne190102IRS1_S1_Li0EEEOT_OT0_
FNA:1,0,_ZNSt3__14pairIPdS1_EC1B8ne190102IS1_S1_Li0EEEOT_OT0_
FNA:1,0,_ZNSt3__14pairIPdS1_EC2B8ne190102IRS1_S1_Li0EEEOT_OT0_
FNA:1,0,_ZNSt3__14pairIPdS1_EC2B8ne190102IS1_S1_Li0EEEOT_OT0_
FNA:1,0,_ZNSt3__14pairIcPKcEC1B8ne190102IcRS2_Li0EEEOT_OT0_
FNA:1,0,_ZNSt3__14pairIcPKcEC2B8ne190102IcRS2_Li0EEEOT_OT0_
FNA:1,0,_ZNSt3__14pairImmEC1B8ne190102ImmLi0EEEOT_OT0_
FNA:1,0,_ZNSt3__14pairImmEC2B8ne190102ImmLi0EEEOT_OT0_
FNL:2,218,220
FNA:2,0,_ZNSt3__14pairINS_14__map_iteratorINS_15__tree_iteratorINS_12__value_typeINS_12basic_stringIcNS_11char_traitsIcEENS_9allocatorIcEEEEN7testing8internal34TypeParameterizedTestSuiteRegistry30TypeParameterizedTestSuiteInfoEEEPNS_11__tree_nodeISE_PvEElEEEEbEC1B8ne190102ISJ_bLi0EEEONS0_IT_T0_EE
FNA:2,0,_ZNSt3__14pairINS_14__map_iteratorINS_15__tree_iteratorINS_12__value_typeINS_12basic_stringIcNS_11char_traitsIcEENS_9allocatorIcEEEEN7testing8internal34TypeParameterizedTestSuiteRegistry30TypeParameterizedTestSuiteInfoEEEPNS_11__tree_nodeISE_PvEElEEEEbEC2B8ne190102ISJ_bLi0EEEONS0_IT_T0_EE
FNA:2,4,_ZNSt3__14pairINS_19__hash_map_iteratorINS_15__hash_iteratorIPNS_11__hash_nodeINS_17__hash_value_typeINS_12basic_stringIcNS_11char_traitsIcEENS_9allocatorIcEEEEPN7testing9TestSuiteEEEPvEEEEEEbEC1B8ne190102ISI_bLi0EEEONS0_IT_T0_EE
FNA:2,4,_ZNSt3__14pairINS_19__hash_map_iteratorINS_15__hash_iteratorIPNS_11__hash_nodeINS_17__hash_value_typeINS_12basic_stringIcNS_11char_traitsIcEENS_9allocatorIcEEEEPN7testing9TestSuiteEEEPvEEEEEEbEC2B8ne190102ISI_bLi0EEEONS0_IT_T0_EE
FNA:2,0,_ZNSt3__14pairINS_21__hash_const_iteratorIPNS_11__hash_nodeINS_12basic_stringIcNS_11char_traitsIcEENS_9allocatorIcEEEEPvEEEEbEC1B8ne190102INS_15__hash_iteratorISB_EEbLi0EEEONS0_IT_T0_EE
FNA:2,0,_ZNSt3__14pairINS_21__hash_const_iteratorIPNS_11__hash_nodeINS_12basic_stringIcNS_11char_traitsIcEENS_9allocatorIcEEEEPvEEEEbEC2B8ne190102INS_15__hash_iteratorISB_EEbLi0EEEONS0_IT_T0_EE
FNA:2,0,_ZNSt3__14pairINS_21__tree_const_iteratorINS_12basic_stringIcNS_11char_traitsIcEENS_9allocatorIcEEEEPNS_11__tree_nodeIS7_PvEElEEbEC1B8ne190102INS_15__tree_iteratorIS7_SB_lEEbLi0EEEONS0_IT_T0_EE
FNA:2,0,_ZNSt3__14pairINS_21__tree_const_iteratorINS_12basic_stringIcNS_11char_traitsIcEENS_9allocatorIcEEEEPNS_11__tree_nodeIS7_PvEElEEbEC2B8ne190102INS_15__tree_iteratorIS7_SB_lEEbLi0EEEONS0_IT_T0_EE
FNL:3,253,259
FNA:3,0,_ZNSt3__14pairIKNS_12basic_stringIcNS_11char_traitsIcEENS_9allocatorIcEEEEmEC1B8ne190102IJRS7_EJEEENS_21piecewise_construct_tENS_5tupleIJDpT_EEENSC_IJDpT0_EEE
FNL:4,273,280
FNA:4,0,_ZNSt3__14pairIPPN7testing8TestInfoElEaSB8ne190102EOS5_
FNA:4,0,_ZNSt3__14pairImmEaSB8ne190102EOS1_
FNL:5,473,479
FNA:5,0,_ZNSt3__14pairIKNS_12basic_stringIcNS_11char_traitsIcEENS_9allocatorIcEEEEmEC1B8ne190102IJRS7_EJEJLm0EEJEEENS_21piecewise_construct_tERNS_5tupleIJDpT_EEERNSC_IJDpT0_EEENS_15__tuple_indicesIJXspT1_EEEENSL_IJXspT2_EEEE
FNA:5,0,_ZNSt3__14pairIKNS_12basic_stringIcNS_11char_traitsIcEENS_9allocatorIcEEEEmEC2B8ne190102IJRS7_EJEJLm0EEJEEENS_21piecewise_construct_tERNS_5tupleIJDpT_EEERNSC_IJDpT0_EEENS_15__tuple_indicesIJXspT1_EEEENSL_IJXspT2_EEEE
FNL:6,576,578
FNA:6,7,_ZNSt3__19make_pairB8ne190102INS_11__wrap_iterIPNS_12basic_stringIcNS_11char_traitsIcEENS_9allocatorIcEEEEEENS_15insert_iteratorINS_13unordered_setIS7_NS_4hashIS7_EENS_8equal_toIS7_EENS5_IS7_EEEEEEEENS_4pairINS_18__unwrap_ref_decayIT_E4typeENSK_IT0_E4typeEEEOSL_OSO_
FNA:6,7,_ZNSt3__19make_pairB8ne190102INS_11__wrap_iterIPNS_12basic_stringIcNS_11char_traitsIcEENS_9allocatorIcEEEEEENS_15insert_iteratorINS_6vectorIS7_NS5_IS7_EEEEEEEENS_4pairINS_18__unwrap_ref_decayIT_E4typeENSG_IT0_E4typeEEEOSH_OSK_
FNA:6,7,_ZNSt3__19make_pairB8ne190102INS_11__wrap_iterIPNS_12basic_stringIcNS_11char_traitsIcEENS_9allocatorIcEEEEEES9_EENS_4pairINS_18__unwrap_ref_decayIT_E4typeENSB_IT0_E4typeEEEOSC_OSF_
FNA:6,0,_ZNSt3__19make_pairB8ne190102INS_11__wrap_iterIPPN7testing8TestInfoEEES6_EENS_4pairINS_18__unwrap_ref_decayIT_E4typeENS8_IT0_E4typeEEEOS9_OSC_
FNA:6,0,_ZNSt3__19make_pairB8ne190102INS_16reverse_iteratorIPPN7testing8TestInfoEEENS1_INS_11__wrap_iterIS5_EEEEEENS_4pairINS_18__unwrap_ref_decayIT_E4typeENSB_IT0_E4typeEEEOSC_OSF_
FNA:6,0,_ZNSt3__19make_pairB8ne190102INS_16reverse_iteratorIPPN7testing8TestInfoEEES6_EENS_4pairINS_18__unwrap_ref_decayIT_E4typeENS8_IT0_E4typeEEEOS9_OSC_
FNA:6,0,_ZNSt3__19make_pairB8ne190102IPKNS_12basic_stringIcNS_11char_traitsIcEENS_9allocatorIcEEEES8_EENS_4pairINS_18__unwrap_ref_decayIT_E4typeENSA_IT0_E4typeEEEOSB_OSE_
FNA:6,0,_ZNSt3__19make_pairB8ne190102IPKPKcS4_EENS_4pairINS_18__unwrap_ref_decayIT_E4typeENS6_IT0_E4typeEEEOS7_OSA_
FNA:6,0,_ZNSt3__19make_pairB8ne190102IPN7testing8internal13edit_distance8EditTypeES5_EENS_4pairINS_18__unwrap_ref_decayIT_E4typeENS7_IT0_E4typeEEEOS8_OSB_
FNA:6,7,_ZNSt3__19make_pairB8ne190102IPNS_12basic_stringIcNS_11char_traitsIcEENS_9allocatorIcEEEENS_15insert_iteratorINS_13unordered_setIS6_NS_4hashIS6_EENS_8equal_toIS6_EENS4_IS6_EEEEEEEENS_4pairINS_18__unwrap_ref_decayIT_E4typeENSI_IT0_E4typeEEEOSJ_OSM_
FNA:6,7,_ZNSt3__19make_pairB8ne190102IPNS_12basic_stringIcNS_11char_traitsIcEENS_9allocatorIcEEEENS_15insert_iteratorINS_6vectorIS6_NS4_IS6_EEEEEEEENS_4pairINS_18__unwrap_ref_decayIT_E4typeENSE_IT0_E4typeEEEOSF_OSI_
FNA:6,15,_ZNSt3__19make_pairB8ne190102IPNS_12basic_stringIcNS_11char_traitsIcEENS_9allocatorIcEEEES7_EENS_4pairINS_18__unwrap_ref_decayIT_E4typeENS9_IT0_E4typeEEEOSA_OSD_
FNA:6,0,_ZNSt3__19make_pairB8ne190102IPPN7testing17TestEventListenerES4_EENS_4pairINS_18__unwrap_ref_decayIT_E4typeENS6_IT0_E4typeEEEOS7_OSA_
FNA:6,0,_ZNSt3__19make_pairB8ne190102IPPN7testing8TestInfoENS_11__wrap_iterIS4_EEEENS_4pairINS_18__unwrap_ref_decayIT_E4typeENS8_IT0_E4typeEEEOS9_OSC_
FNA:6,0,_ZNSt3__19make_pairB8ne190102IPPN7testing8TestInfoES4_EENS_4pairINS_18__unwrap_ref_decayIT_E4typeENS6_IT0_E4typeEEEOS7_OSA_
FNA:6,0,_ZNSt3__19make_pairB8ne190102IPPN7testing9TestSuiteES4_EENS_4pairINS_18__unwrap_ref_decayIT_E4typeENS6_IT0_E4typeEEEOS7_OSA_
FNA:6,0,_ZNSt3__19make_pairB8ne190102IPdS1_EENS_4pairINS_18__unwrap_ref_decayIT_E4typeENS3_IT0_E4typeEEEOS4_OS7_
FNA:6,0,_ZNSt3__19make_pairB8ne190102IRPN7testing8internal13edit_distance8EditTypeES5_EENS_4pairINS_18__unwrap_ref_decayIT_E4typeENS8_IT0_E4typeEEEOS9_OSC_
FNA:6,0,_ZNSt3__19make_pairB8ne190102IRPPN7testing17TestEventListenerES4_EENS_4pairINS_18__unwrap_ref_decayIT_E4typeENS7_IT0_E4typeEEEOS8_OSB_
FNA:6,0,_ZNSt3__19make_pairB8ne190102IRPPN7testing8TestInfoES4_EENS_4pairINS_18__unwrap_ref_decayIT_E4typeENS7_IT0_E4typeEEEOS8_OSB_
FNA:6,0,_ZNSt3__19make_pairB8ne190102IRPPN7testing8TestInfoES5_EENS_4pairINS_18__unwrap_ref_decayIT_E4typeENS7_IT0_E4typeEEEOS8_OSB_
FNA:6,0,_ZNSt3__19make_pairB8ne190102IRPPN7testing9TestSuiteES4_EENS_4pairINS_18__unwrap_ref_decayIT_E4typeENS7_IT0_E4typeEEEOS8_OSB_
FNA:6,0,_ZNSt3__19make_pairB8ne190102IRPPN7testing9TestSuiteES5_EENS_4pairINS_18__unwrap_ref_decayIT_E4typeENS7_IT0_E4typeEEEOS8_OSB_
FNA:6,0,_ZNSt3__19make_pairB8ne190102IRPdS1_EENS_4pairINS_18__unwrap_ref_decayIT_E4typeENS4_IT0_E4typeEEEOS5_OS8_
FNA:6,0,_ZNSt3__19make_pairB8ne190102IcRPKcEENS_4pairINS_18__unwrap_ref_decayIT_E4typeENS5_IT0_E4typeEEEOS6_OS9_
FNL:7,66,82
FNA:7,0,_ZNSt3__14pairIKNS_12basic_stringIcNS_11char_traitsIcEENS_9allocatorIcEEEEN7testing8internal34TypeParameterizedTestSuiteRegistry30TypeParameterizedTestSuiteInfoEED1Ev
FNA:7,0,_ZNSt3__14pairIKNS_12basic_stringIcNS_11char_traitsIcEENS_9allocatorIcEEEEN7testing8internal34TypeParameterizedTestSuiteRegistry30TypeParameterizedTestSuiteInfoEED2Ev
FNA:7,0,_ZNSt3__14pairIKNS_12basic_stringIcNS_11char_traitsIcEENS_9allocatorIcEEEEPN7testing9TestSuiteEED1Ev
FNA:7,0,_ZNSt3__14pairIKNS_12basic_stringIcNS_11char_traitsIcEENS_9allocatorIcEEEEPN7testing9TestSuiteEED2Ev
FNA:7,0,_ZNSt3__14pairIKNS_12basic_stringIcNS_11char_traitsIcEENS_9allocatorIcEEEEmED1Ev
FNA:7,0,_ZNSt3__14pairIKNS_12basic_stringIcNS_11char_traitsIcEENS_9allocatorIcEEEEmED2Ev
FNL:8,82,82
FNA:8,0,_ZNSt3__14pairIKNS_12basic_stringIcNS_11char_traitsIcEENS_9allocatorIcEEEEN7testing8internal34TypeParameterizedTestSuiteRegistry30TypeParameterizedTestSuiteInfoEEC1B8ne190102ERKSC_
FNA:8,0,_ZNSt3__14pairIKNS_12basic_stringIcNS_11char_traitsIcEENS_9allocatorIcEEEEN7testing8internal34TypeParameterizedTestSuiteRegistry30TypeParameterizedTestSuiteInfoEEC2B8ne190102ERKSC_
FNF:9
FNH:4
DA:82,0
DA:180,16
DA:182,16
DA:194,108
DA:196,108
DA:197,108
DA:218,8
DA:220,8
DA:253,0
DA:255,0
DA:259,0
DA:273,0
DA:278,0
DA:279,0
DA:280,0
DA:473,0
DA:478,0
DA:479,0
DA:576,50
DA:577,50
DA:578,50
LF:21
LH:10
end_of_record
TN:
SF:/Library/Developer/CommandLineTools/SDKs/MacOSX.sdk/usr/include/c++/v1/__utility/swap.h
FNL:0,41,46
FNA:0,0,_ZNSt3__14swapB8ne190102IN7testing8internal13edit_distance8EditTypeEEENS_9enable_ifIXaasr21is_move_constructibleIT_EE5valuesr18is_move_assignableIS6_EE5valueEvE4typeERS6_S9_
FNA:0,0,_ZNSt3__14swapB8ne190102INS_12basic_stringIcNS_11char_traitsIcEENS_9allocatorIcEEE5__repEEENS_9enable_ifIXaasr21is_move_constructibleIT_EE5valuesr18is_move_assignableIS9_EE5valueEvE4typeERS9_SC_
FNA:0,0,_ZNSt3__14swapB8ne190102INS_14default_deleteINS_12basic_stringIcNS_11char_traitsIcEENS_9allocatorIcEEEEEEEENS_9enable_ifIXaasr21is_move_constructibleIT_EE5valuesr18is_move_assignableISA_EE5valueEvE4typeERSA_SD_
FNA:0,0,_ZNSt3__14swapB8ne190102IPN7testing12TestPropertyEEENS_9enable_ifIXaasr21is_move_constructibleIT_EE5valuesr18is_move_assignableIS5_EE5valueEvE4typeERS5_S8_
FNA:0,0,_ZNSt3__14swapB8ne190102IPN7testing14TestPartResultEEENS_9enable_ifIXaasr21is_move_constructibleIT_EE5valuesr18is_move_assignableIS5_EE5valueEvE4typeERS5_S8_
FNA:0,0,_ZNSt3__14swapB8ne190102IPN7testing8TestInfoEEENS_9enable_ifIXaasr21is_move_constructibleIT_EE5valuesr18is_move_assignableIS5_EE5valueEvE4typeERS5_S8_
FNA:0,0,_ZNSt3__14swapB8ne190102IPN7testing8internal13edit_distance8EditTypeEEENS_9enable_ifIXaasr21is_move_constructibleIT_EE5valuesr18is_move_assignableIS7_EE5valueEvE4typeERS7_SA_
FNA:0,0,_ZNSt3__14swapB8ne190102IPN7testing8internal9TraceInfoEEENS_9enable_ifIXaasr21is_move_constructibleIT_EE5valuesr18is_move_assignableIS6_EE5valueEvE4typeERS6_S9_
FNA:0,93,_ZNSt3__14swapB8ne190102IPNS_12basic_stringIcNS_11char_traitsIcEENS_9allocatorIcEEEEEENS_9enable_ifIXaasr21is_move_constructibleIT_EE5valuesr18is_move_assignableIS9_EE5valueEvE4typeERS9_SC_
FNA:0,0,_ZNSt3__14swapB8ne190102IPPN7testing11EnvironmentEEENS_9enable_ifIXaasr21is_move_constructibleIT_EE5valuesr18is_move_assignableIS6_EE5valueEvE4typeERS6_S9_
FNA:0,3,_ZNSt3__14swapB8ne190102IPPN7testing17TestEventListenerEEENS_9enable_ifIXaasr21is_move_constructibleIT_EE5valuesr18is_move_assignableIS6_EE5valueEvE4typeERS6_S9_
FNA:0,30,_ZNSt3__14swapB8ne190102IPPN7testing8TestInfoEEENS_9enable_ifIXaasr21is_move_constructibleIT_EE5valuesr18is_move_assignableIS6_EE5valueEvE4typeERS6_S9_
FNA:0,9,_ZNSt3__14swapB8ne190102IPPN7testing9TestSuiteEEENS_9enable_ifIXaasr21is_move_constructibleIT_EE5valuesr18is_move_assignableIS6_EE5valueEvE4typeERS6_S9_
FNA:0,0,_ZNSt3__14swapB8ne190102IPPcEENS_9enable_ifIXaasr21is_move_constructibleIT_EE5valuesr18is_move_assignableIS4_EE5valueEvE4typeERS4_S7_
FNA:0,39,_ZNSt3__14swapB8ne190102IPiEENS_9enable_ifIXaasr21is_move_constructibleIT_EE5valuesr18is_move_assignableIS3_EE5valueEvE4typeERS3_S6_
FNA:0,0,_ZNSt3__14swapB8ne190102IPmEENS_9enable_ifIXaasr21is_move_constructibleIT_EE5valuesr18is_move_assignableIS3_EE5valueEvE4typeERS3_S6_
FNA:0,0,_ZNSt3__14swapB8ne190102IbEENS_9enable_ifIXaasr21is_move_constructibleIT_EE5valuesr18is_move_assignableIS2_EE5valueEvE4typeERS2_S5_
FNA:0,0,_ZNSt3__14swapB8ne190102IiEENS_9enable_ifIXaasr21is_move_constructibleIT_EE5valuesr18is_move_assignableIS2_EE5valueEvE4typeERS2_S5_
FNA:0,0,_ZNSt3__14swapB8ne190102ImEENS_9enable_ifIXaasr21is_move_constructibleIT_EE5valuesr18is_move_assignableIS2_EE5valueEvE4typeERS2_S5_
FNF:1
FNH:1
DA:41,174
DA:43,174
DA:44,174
DA:45,174
DA:46,174
LF:5
LH:5
end_of_record
TN:
SF:/Library/Developer/CommandLineTools/SDKs/MacOSX.sdk/usr/include/c++/v1/cwchar
FNL:0,196
FNA:0,0,_ZNSt3__118__constexpr_wcslenB8ne190102EPKw
FNL:1,211
FNA:1,0,_ZNSt3__119__constexpr_wmemcmpB8ne190102EPKwS1_m
FNL:2,229
FNA:2,0,_ZNSt3__119__constexpr_wmemchrB8ne190102IKwwEEPT_S3_T0_m
FNF:3
FNH:0
DA:196,0
DA:198,0
DA:211,0
DA:213,0
DA:229,0
DA:236,0
DA:237,0
DA:238,0
DA:239,0
LF:9
LH:0
end_of_record
TN:
SF:/Library/Developer/CommandLineTools/SDKs/MacOSX.sdk/usr/include/c++/v1/initializer_list
FNL:0,79
FNA:0,0,_ZNKSt16initializer_listIPKcE5beginB8ne190102Ev
FNL:1,81
FNA:1,0,_ZNKSt16initializer_listIPKcE3endB8ne190102Ev
FNF:2
FNH:0
DA:79,0
DA:81,0
LF:2
LH:0
end_of_record
TN:
SF:/Library/Developer/CommandLineTools/SDKs/MacOSX.sdk/usr/include/c++/v1/iomanip
FNL:0,145
FNA:0,0,_ZNSt3__18__iom_t4IcEC1B8ne190102Ec
FNA:0,0,_ZNSt3__18__iom_t4IcEC2B8ne190102Ec
FNL:1,149
FNA:1,0,_ZNSt3__1lsB8ne190102INS_11char_traitsIcEEEERNS_13basic_ostreamIcT_EES6_RKNS_8__iom_t4IcEE
FNL:2,156
FNA:2,0,_ZNSt3__17setfillB8ne190102IcEENS_8__iom_t4IT_EES2_
FNL:3,166
FNA:3,77,_ZNSt3__18__iom_t5C1B8ne190102Ei
FNA:3,77,_ZNSt3__18__iom_t5C2B8ne190102Ei
FNL:4,177
FNA:4,77,_ZNSt3__1lsB8ne190102IcNS_11char_traitsIcEEEERNS_13basic_ostreamIT_T0_EES7_RKNS_8__iom_t5E
FNL:5,183
FNA:5,77,_ZNSt3__112setprecisionB8ne190102Ei
FNL:6,191
FNA:6,0,_ZNSt3__18__iom_t6C1B8ne190102Ei
FNA:6,0,_ZNSt3__18__iom_t6C2B8ne190102Ei
FNL:7,202
FNA:7,0,_ZNSt3__1lsB8ne190102IcNS_11char_traitsIcEEEERNS_13basic_ostreamIT_T0_EES7_RKNS_8__iom_t6E
FNL:8,208
FNA:8,0,_ZNSt3__14setwB8ne190102Ei
FNF:9
FNH:3
DA:145,0
DA:149,0
DA:150,0
DA:151,0
DA:156,0
DA:157,0
DA:166,154
DA:177,77
DA:178,77
DA:179,77
DA:183,77
DA:191,0
DA:202,0
DA:203,0
DA:204,0
DA:208,0
LF:16
LH:5
end_of_record
TN:
SF:/Library/Developer/CommandLineTools/SDKs/MacOSX.sdk/usr/include/c++/v1/ios
FNL:0,360
FNA:0,77,_ZNSt3__18ios_baseC2B8ne190102Ev
FNL:1,370
FNA:1,519,_ZNKSt3__18ios_base5rdbufB8ne190102Ev
FNL:2,458
FNA:2,519,_ZNKSt3__18ios_base5flagsB8ne190102Ev
FNL:3,460
FNA:3,0,_ZNSt3__18ios_base5flagsB8ne190102Ej
FNL:4,466
FNA:4,0,_ZNSt3__18ios_base4setfB8ne190102Ej
FNL:5,472
FNA:5,0,_ZNSt3__18ios_base6unsetfB8ne190102Ej
FNL:6,474
FNA:6,0,_ZNSt3__18ios_base4setfB8ne190102Ejj
FNL:7,485
FNA:7,77,_ZNSt3__18ios_base9precisionB8ne190102El
FNL:8,493
FNA:8,519,_ZNKSt3__18ios_base5widthB8ne190102Ev
FNL:9,495
FNA:9,519,_ZNSt3__18ios_base5widthB8ne190102El
FNL:10,505
FNA:10,0,_ZNSt3__18ios_base8setstateB8ne190102Ej
FNL:11,542
FNA:11,77,_ZNSt3__118_SentinelValueFillINS_11char_traitsIcEEE6__initB8ne190102Ev
FNL:12,543
FNA:12,47,_ZNSt3__118_SentinelValueFillINS_11char_traitsIcEEEaSB8ne190102Ei
FNL:13,547
FNA:13,519,_ZNKSt3__118_SentinelValueFillINS_11char_traitsIcEEE8__is_setB8ne190102Ev
FNL:14,548
FNA:14,519,_ZNKSt3__118_SentinelValueFillINS_11char_traitsIcEEE5__getB8ne190102Ev
FNL:15,579
FNA:15,0,_ZNSt3__19basic_iosIcNS_11char_traitsIcEEE8setstateB8ne190102Ej
FNL:16,610
FNA:16,77,_ZNSt3__19basic_iosIcNS_11char_traitsIcEEEC2B8ne190102Ev
FNL:17,641
FNA:17,77,_ZNSt3__19basic_iosIcNS_11char_traitsIcEEE4initB8ne190102EPNS_15basic_streambufIcS2_EE
FNL:18,661
FNA:18,519,_ZNKSt3__19basic_iosIcNS_11char_traitsIcEEE5rdbufB8ne190102Ev
FNL:19,688
FNA:19,47,_ZNKSt3__19basic_iosIcNS_11char_traitsIcEEE5widenB8ne190102Ec
FNL:20,693
FNA:20,519,_ZNKSt3__19basic_iosIcNS_11char_traitsIcEEE4fillB8ne190102Ev
FNL:21,700
FNA:21,0,_ZNSt3__19basic_iosIcNS_11char_traitsIcEEE4fillB8ne190102Ec
FNL:22,767
FNA:22,0,_ZNSt3__19showpointB8ne190102ERNS_8ios_baseE
FNL:23,797
FNA:23,0,_ZNSt3__19uppercaseB8ne190102ERNS_8ios_baseE
FNL:24,837
FNA:24,0,_ZNSt3__13hexB8ne190102ERNS_8ios_baseE
FNL:25,847
FNA:25,0,_ZNSt3__15fixedB8ne190102ERNS_8ios_baseE
FNF:26
FNH:15
DA:360,77
DA:367,77
DA:370,519
DA:458,519
DA:460,0
DA:461,0
DA:462,0
DA:463,0
DA:466,0
DA:467,0
DA:468,0
DA:469,0
DA:472,0
DA:474,0
DA:475,0
DA:476,0
DA:477,0
DA:478,0
DA:485,77
DA:486,77
DA:487,77
DA:488,77
DA:493,519
DA:495,519
DA:496,519
DA:497,519
DA:498,519
DA:505,0
DA:542,77
DA:543,47
DA:544,47
DA:545,47
DA:547,519
DA:548,519
DA:579,0
DA:610,77
DA:613,77
DA:641,77
DA:642,77
DA:643,77
DA:644,77
DA:645,77
DA:661,519
DA:662,519
DA:688,47
DA:689,47
DA:690,0
DA:693,519
DA:694,519
DA:695,47
DA:696,519
DA:700,0
DA:701,0
DA:702,0
DA:703,0
DA:704,0
DA:705,0
DA:767,0
DA:768,0
DA:769,0
DA:797,0
DA:798,0
DA:799,0
DA:837,0
DA:838,0
DA:839,0
DA:847,0
DA:848,0
DA:849,0
LF:69
LH:34
end_of_record
TN:
SF:/Library/Developer/CommandLineTools/SDKs/MacOSX.sdk/usr/include/c++/v1/istream
FNL:0,1175
FNA:0,77,_ZNSt3__114basic_iostreamIcNS_11char_traitsIcEEEC2B8ne190102EPNS_15basic_streambufIcS2_EE
FNL:1,202
FNA:1,77,_ZNSt3__113basic_istreamIcNS_11char_traitsIcEEEC2B8ne190102EPNS_15basic_streambufIcS2_EE
FNF:2
FNH:2
DA:202,77
DA:203,77
DA:204,77
DA:205,77
DA:1175,154
DA:1176,77
LF:6
LH:6
end_of_record
TN:
SF:/Library/Developer/CommandLineTools/SDKs/MacOSX.sdk/usr/include/c++/v1/limits
FNL:0,202
FNA:0,50,_ZNSt3__123__libcpp_numeric_limitsIlLb1EE3maxB8ne190102Ev
FNA:0,13,_ZNSt3__123__libcpp_numeric_limitsImLb1EE3maxB8ne190102Ev
FNL:1,374
FNA:1,0,_ZNSt3__123__libcpp_numeric_limitsIdLb1EE8infinityB8ne190102Ev
FNL:2,469
FNA:2,50,_ZNSt3__114numeric_limitsIlE3maxB8ne190102Ev
FNA:2,13,_ZNSt3__114numeric_limitsImE3maxB8ne190102Ev
FNL:3,498
FNA:3,0,_ZNSt3__114numeric_limitsIdE8infinityB8ne190102Ev
FNF:4
FNH:2
DA:202,63
DA:374,0
DA:375,0
DA:469,63
DA:498,0
DA:499,0
LF:6
LH:2
end_of_record
TN:
SF:/Library/Developer/CommandLineTools/SDKs/MacOSX.sdk/usr/include/c++/v1/list
FNL:0,1252
FNA:0,0,_ZNSt3__14listINS_4pairIcPKcEENS_9allocatorIS4_EEE9push_backEOS4_
FNL:1,1432
FNA:1,0,_ZNSt3__14listINS_4pairIcPKcEENS_9allocatorIS4_EEE6spliceENS_21__list_const_iteratorIS4_PvEERS7_
FNL:2,284
FNA:2,0,_ZNSt3__126__list_node_pointer_traitsINS_4pairIcPKcEEPvE26__unsafe_link_pointer_castB8ne190102EPNS_16__list_node_baseIS4_S5_EE
FNL:3,301
FNA:3,0,_ZNSt3__116__list_node_baseINS_4pairIcPKcEEPvEC1B8ne190102Ev
FNA:3,0,_ZNSt3__116__list_node_baseINS_4pairIcPKcEEPvEC2B8ne190102Ev
FNL:4,305
FNA:4,0,_ZNSt3__116__list_node_baseINS_4pairIcPKcEEPvEC2B8ne190102EPS6_S7_
FNL:5,308
FNA:5,0,_ZNSt3__116__list_node_baseINS_4pairIcPKcEEPvE6__selfB8ne190102Ev
FNL:6,310
FNA:6,0,_ZNSt3__116__list_node_baseINS_4pairIcPKcEEPvE9__as_nodeB8ne190102Ev
FNL:7,325
FNA:7,0,_ZNSt3__111__list_nodeINS_4pairIcPKcEEPvE11__get_valueB8ne190102Ev
FNL:8,338
FNA:8,0,_ZNSt3__111__list_nodeINS_4pairIcPKcEEPvEC1B8ne190102EPNS_16__list_node_baseIS4_S5_EES9_
FNA:8,0,_ZNSt3__111__list_nodeINS_4pairIcPKcEEPvEC2B8ne190102EPNS_16__list_node_baseIS4_S5_EES9_
FNL:9,339
FNA:9,0,_ZNSt3__111__list_nodeINS_4pairIcPKcEEPvED1B8ne190102Ev
FNA:9,0,_ZNSt3__111__list_nodeINS_4pairIcPKcEEPvED2B8ne190102Ev
FNL:10,341
FNA:10,0,_ZNSt3__111__list_nodeINS_4pairIcPKcEEPvE9__as_linkB8ne190102Ev
FNL:11,358
FNA:11,0,_ZNSt3__115__list_iteratorINS_4pairIcPKcEEPvEC1B8ne190102EPNS_16__list_node_baseIS4_S5_EE
FNA:11,0,_ZNSt3__115__list_iteratorINS_4pairIcPKcEEPvEC2B8ne190102EPNS_16__list_node_baseIS4_S5_EE
FNL:12,431
FNA:12,0,_ZNSt3__121__list_const_iteratorINS_4pairIcPKcEEPvEC1B8ne190102ERKNS_15__list_iteratorIS4_S5_EE
FNA:12,0,_ZNSt3__121__list_const_iteratorINS_4pairIcPKcEEPvEC2B8ne190102ERKNS_15__list_iteratorIS4_S5_EE
FNL:13,435
FNA:13,0,_ZNKSt3__121__list_const_iteratorINS_4pairIcPKcEEPvEptB8ne190102Ev
FNL:14,439
FNA:14,0,_ZNSt3__121__list_const_iteratorINS_4pairIcPKcEEPvEppB8ne190102Ev
FNL:15,459
FNA:15,0,_ZNSt3__1eqB8ne190102ERKNS_21__list_const_iteratorINS_4pairIcPKcEEPvEES8_
FNL:16,462
FNA:16,0,_ZNSt3__1neB8ne190102ERKNS_21__list_const_iteratorINS_4pairIcPKcEEPvEES8_
FNL:17,503
FNA:17,0,_ZNKSt3__110__list_impINS_4pairIcPKcEENS_9allocatorIS4_EEE13__end_as_linkB8ne190102Ev
FNL:18,507
FNA:18,0,_ZNSt3__110__list_impINS_4pairIcPKcEENS_9allocatorIS4_EEE4__szB8ne190102Ev
FNL:19,508
FNA:19,0,_ZNKSt3__110__list_impINS_4pairIcPKcEENS_9allocatorIS4_EEE4__szB8ne190102Ev
FNL:20,509
FNA:20,0,_ZNSt3__110__list_impINS_4pairIcPKcEENS_9allocatorIS4_EEE12__node_allocB8ne190102Ev
FNL:21,525
FNA:21,0,_ZNKSt3__110__list_impINS_4pairIcPKcEENS_9allocatorIS4_EEE5emptyB8ne190102Ev
FNL:22,527
FNA:22,0,_ZNSt3__110__list_impINS_4pairIcPKcEENS_9allocatorIS4_EEE5beginB8ne190102Ev
FNL:23,529
FNA:23,0,_ZNSt3__110__list_impINS_4pairIcPKcEENS_9allocatorIS4_EEE3endB8ne190102Ev
FNL:24,552
FNA:24,0,_ZNSt3__110__list_impINS_4pairIcPKcEENS_9allocatorIS4_EEE13__create_nodeB8ne190102IJS4_EEEPNS_11__list_nodeIS4_PvEEPNS_16__list_node_baseIS4_SA_EESF_DpOT_
FNL:25,569
FNA:25,0,_ZNSt3__110__list_impINS_4pairIcPKcEENS_9allocatorIS4_EEE13__delete_nodeB8ne190102EPNS_11__list_nodeIS4_PvEE
FNL:26,597
FNA:26,0,_ZNSt3__110__list_impINS_4pairIcPKcEENS_9allocatorIS4_EEE14__unlink_nodesEPNS_16__list_node_baseIS4_PvEESB_
FNL:27,603
FNA:27,0,_ZNSt3__110__list_impINS_4pairIcPKcEENS_9allocatorIS4_EEEC2Ev
FNL:28,618
FNA:28,0,_ZNSt3__110__list_impINS_4pairIcPKcEENS_9allocatorIS4_EEED2Ev
FNL:29,623
FNA:29,0,_ZNSt3__110__list_impINS_4pairIcPKcEENS_9allocatorIS4_EEE5clearEv
FNL:30,664
FNA:30,0,_ZNSt3__14listINS_4pairIcPKcEENS_9allocatorIS4_EEED1Ev
FNA:30,0,_ZNSt3__14listINS_4pairIcPKcEENS_9allocatorIS4_EEED2Ev
FNL:31,696
FNA:31,0,_ZNSt3__14listINS_4pairIcPKcEENS_9allocatorIS4_EEEC1B8ne190102Ev
FNA:31,0,_ZNSt3__14listINS_4pairIcPKcEENS_9allocatorIS4_EEEC2B8ne190102Ev
FNL:32,758
FNA:32,0,_ZNKSt3__14listINS_4pairIcPKcEENS_9allocatorIS4_EEE5emptyB8ne190102Ev
FNL:33,763
FNA:33,0,_ZNSt3__14listINS_4pairIcPKcEENS_9allocatorIS4_EEE5beginB8ne190102Ev
FNL:34,765
FNA:34,0,_ZNSt3__14listINS_4pairIcPKcEENS_9allocatorIS4_EEE3endB8ne190102Ev
FNL:35,957
FNA:35,0,_ZNSt3__14listINS_4pairIcPKcEENS_9allocatorIS4_EEE12__link_nodesEPNS_16__list_node_baseIS4_PvEESB_SB_
FNL:36,975
FNA:36,0,_ZNSt3__14listINS_4pairIcPKcEENS_9allocatorIS4_EEE20__link_nodes_at_backEPNS_16__list_node_baseIS4_PvEESB_
FNF:37
FNH:0
DA:284,0
DA:301,0
DA:302,0
DA:303,0
DA:305,0
DA:306,0
DA:308,0
DA:310,0
DA:325,0
DA:338,0
DA:339,0
DA:341,0
DA:358,0
DA:431,0
DA:432,0
DA:435,0
DA:436,0
DA:439,0
DA:440,0
DA:441,0
DA:459,0
DA:460,0
DA:462,0
DA:463,0
DA:503,0
DA:504,0
DA:507,0
DA:508,0
DA:509,0
DA:525,0
DA:527,0
DA:529,0
DA:552,0
DA:553,0
DA:554,0
DA:561,0
DA:564,0
DA:565,0
DA:566,0
DA:567,0
DA:569,0
DA:572,0
DA:573,0
DA:574,0
DA:575,0
DA:576,0
DA:597,0
DA:598,0
DA:599,0
DA:600,0
DA:603,0
DA:604,0
DA:618,0
DA:619,0
DA:620,0
DA:623,0
DA:624,0
DA:625,0
DA:626,0
DA:627,0
DA:628,0
DA:629,0
DA:630,0
DA:631,0
DA:632,0
DA:634,0
DA:635,0
DA:696,0
DA:758,0
DA:763,0
DA:765,0
DA:957,0
DA:958,0
DA:959,0
DA:960,0
DA:961,0
DA:962,0
DA:975,0
DA:976,0
DA:977,0
DA:978,0
DA:979,0
DA:980,0
DA:1252,0
DA:1253,0
DA:1254,0
DA:1255,0
DA:1256,0
DA:1257,0
DA:1432,0
DA:1435,0
DA:1436,0
DA:1437,0
DA:1438,0
DA:1439,0
DA:1440,0
DA:1441,0
DA:1442,0
DA:1443,0
LF:99
LH:0
end_of_record
TN:
SF:/Library/Developer/CommandLineTools/SDKs/MacOSX.sdk/usr/include/c++/v1/locale
FNL:0,1268
FNA:0,519,_ZNSt3__116__pad_and_outputB8ne190102IcNS_11char_traitsIcEEEENS_19ostreambuf_iteratorIT_T0_EES6_PKS4_S8_S8_RNS_8ios_baseES4_
FNF:1
FNH:1
DA:1268,519
DA:1275,519
DA:1276,0
DA:1277,519
DA:1278,519
DA:1279,519
DA:1280,0
DA:1282,519
DA:1283,519
DA:1284,519
DA:1285,0
DA:1286,0
DA:1287,0
DA:1289,0
DA:1290,519
DA:1291,0
DA:1292,0
DA:1293,0
DA:1294,0
DA:1296,0
DA:1297,519
DA:1298,519
DA:1299,519
DA:1300,0
DA:1301,0
DA:1303,519
DA:1304,519
DA:1305,519
DA:1306,519
LF:29
LH:16
end_of_record
TN:
SF:/Library/Developer/CommandLineTools/SDKs/MacOSX.sdk/usr/include/c++/v1/map
FNL:0,1024
FNA:0,1,_ZNSt3__13mapINS_12basic_stringIcNS_11char_traitsIcEENS_9allocatorIcEEEEN7testing8internal34TypeParameterizedTestSuiteRegistry30TypeParameterizedTestSuiteInfoENS_4lessIS6_EENS4_INS_4pairIKS6_SA_EEEEEC1B8ne190102Ev
FNA:0,1,_ZNSt3__13mapINS_12basic_stringIcNS_11char_traitsIcEENS_9allocatorIcEEEEN7testing8internal34TypeParameterizedTestSuiteRegistry30TypeParameterizedTestSuiteInfoENS_4lessIS6_EENS4_INS_4pairIKS6_SA_EEEEEC2B8ne190102Ev
FNA:0,0,_ZNSt3__13mapINS_12basic_stringIcNS_11char_traitsIcEENS_9allocatorIcEEEEmNS_4lessIS6_EENS4_INS_4pairIKS6_mEEEEEC1B8ne190102Ev
FNA:0,0,_ZNSt3__13mapINS_12basic_stringIcNS_11char_traitsIcEENS_9allocatorIcEEEEmNS_4lessIS6_EENS4_INS_4pairIKS6_mEEEEEC2B8ne190102Ev
FNL:1,1130
FNA:1,0,_ZNSt3__13mapINS_12basic_stringIcNS_11char_traitsIcEENS_9allocatorIcEEEEN7testing8internal34TypeParameterizedTestSuiteRegistry30TypeParameterizedTestSuiteInfoENS_4lessIS6_EENS4_INS_4pairIKS6_SA_EEEEED1B8ne190102Ev
FNA:1,0,_ZNSt3__13mapINS_12basic_stringIcNS_11char_traitsIcEENS_9allocatorIcEEEEN7testing8internal34TypeParameterizedTestSuiteRegistry30TypeParameterizedTestSuiteInfoENS_4lessIS6_EENS4_INS_4pairIKS6_SA_EEEEED2B8ne190102Ev
FNA:1,0,_ZNSt3__13mapINS_12basic_stringIcNS_11char_traitsIcEENS_9allocatorIcEEEEmNS_4lessIS6_EENS4_INS_4pairIKS6_mEEEEED1B8ne190102Ev
FNA:1,0,_ZNSt3__13mapINS_12basic_stringIcNS_11char_traitsIcEENS_9allocatorIcEEEEmNS_4lessIS6_EENS4_INS_4pairIKS6_mEEEEED2B8ne190102Ev
FNL:2,1132
FNA:2,0,_ZNSt3__13mapINS_12basic_stringIcNS_11char_traitsIcEENS_9allocatorIcEEEEN7testing8internal12CodeLocationENS_4lessIvEENS4_INS_4pairIKS6_S9_EEEEE5beginB8ne190102Ev
FNA:2,1,_ZNSt3__13mapINS_12basic_stringIcNS_11char_traitsIcEENS_9allocatorIcEEEEN7testing8internal34TypeParameterizedTestSuiteRegistry30TypeParameterizedTestSuiteInfoENS_4lessIS6_EENS4_INS_4pairIKS6_SA_EEEEE5beginB8ne190102Ev
FNL:3,1134
FNA:3,0,_ZNSt3__13mapINS_12basic_stringIcNS_11char_traitsIcEENS_9allocatorIcEEEEN7testing8internal12CodeLocationENS_4lessIvEENS4_INS_4pairIKS6_S9_EEEEE3endB8ne190102Ev
FNA:3,1,_ZNSt3__13mapINS_12basic_stringIcNS_11char_traitsIcEENS_9allocatorIcEEEEN7testing8internal34TypeParameterizedTestSuiteRegistry30TypeParameterizedTestSuiteInfoENS_4lessIS6_EENS4_INS_4pairIKS6_SA_EEEEE3endB8ne190102Ev
FNA:3,0,_ZNSt3__13mapINS_12basic_stringIcNS_11char_traitsIcEENS_9allocatorIcEEEEmNS_4lessIS6_EENS4_INS_4pairIKS6_mEEEEE3endB8ne190102Ev
FNL:4,1148
FNA:4,0,_ZNKSt3__13mapINS_12basic_stringIcNS_11char_traitsIcEENS_9allocatorIcEEEEmNS_4lessIS6_EENS4_INS_4pairIKS6_mEEEEE4sizeB8ne190102Ev
FNL:5,1165
FNA:5,0,_ZNSt3__13mapINS_12basic_stringIcNS_11char_traitsIcEENS_9allocatorIcEEEEN7testing8internal34TypeParameterizedTestSuiteRegistry30TypeParameterizedTestSuiteInfoENS_4lessIS6_EENS4_INS_4pairIKS6_SA_EEEEE7emplaceB8ne190102IJS6_SA_EEENSD_INS_14__map_iteratorINS_15__tree_iteratorINS_12__value_typeIS6_SA_EEPNS_11__tree_nodeISM_PvEElEEEEbEEDpOT_
FNL:6,1360
FNA:6,0,_ZNSt3__13mapINS_12basic_stringIcNS_11char_traitsIcEENS_9allocatorIcEEEEN7testing8internal34TypeParameterizedTestSuiteRegistry30TypeParameterizedTestSuiteInfoENS_4lessIS6_EENS4_INS_4pairIKS6_SA_EEEEE4findB8ne190102ERSE_
FNA:6,0,_ZNSt3__13mapINS_12basic_stringIcNS_11char_traitsIcEENS_9allocatorIcEEEEmNS_4lessIS6_EENS4_INS_4pairIKS6_mEEEEE4findB8ne190102ERSA_
FNL:7,1373
FNA:7,0,_ZNKSt3__13mapINS_12basic_stringIcNS_11char_traitsIcEENS_9allocatorIcEEEEN7testing8internal12CodeLocationENS_4lessIvEENS4_INS_4pairIKS6_S9_EEEEE5countB8ne190102ERSD_
FNL:8,1511
FNA:8,0,_ZNSt3__13mapINS_12basic_stringIcNS_11char_traitsIcEENS_9allocatorIcEEEEmNS_4lessIS6_EENS4_INS_4pairIKS6_mEEEEEixERSA_
FNL:9,632
FNA:9,1,_ZNSt3__119__map_value_compareINS_12basic_stringIcNS_11char_traitsIcEENS_9allocatorIcEEEENS_12__value_typeIS6_N7testing8internal34TypeParameterizedTestSuiteRegistry30TypeParameterizedTestSuiteInfoEEENS_4lessIS6_EELb1EEC1B8ne190102ESE_
FNA:9,1,_ZNSt3__119__map_value_compareINS_12basic_stringIcNS_11char_traitsIcEENS_9allocatorIcEEEENS_12__value_typeIS6_N7testing8internal34TypeParameterizedTestSuiteRegistry30TypeParameterizedTestSuiteInfoEEENS_4lessIS6_EELb1EEC2B8ne190102ESE_
FNA:9,0,_ZNSt3__119__map_value_compareINS_12basic_stringIcNS_11char_traitsIcEENS_9allocatorIcEEEENS_12__value_typeIS6_mEENS_4lessIS6_EELb1EEC1B8ne190102ESA_
FNA:9,0,_ZNSt3__119__map_value_compareINS_12basic_stringIcNS_11char_traitsIcEENS_9allocatorIcEEEENS_12__value_typeIS6_mEENS_4lessIS6_EELb1EEC2B8ne190102ESA_
FNL:10,638
FNA:10,0,_ZNKSt3__119__map_value_compareINS_12basic_stringIcNS_11char_traitsIcEENS_9allocatorIcEEEENS_12__value_typeIS6_N7testing8internal12CodeLocationEEENS_4lessIvEELb1EEclB8ne190102ERKSB_RKS6_
FNA:10,0,_ZNKSt3__119__map_value_compareINS_12basic_stringIcNS_11char_traitsIcEENS_9allocatorIcEEEENS_12__value_typeIS6_N7testing8internal34TypeParameterizedTestSuiteRegistry30TypeParameterizedTestSuiteInfoEEENS_4lessIS6_EELb1EEclB8ne190102ERKSC_RKS6_
FNA:10,0,_ZNKSt3__119__map_value_compareINS_12basic_stringIcNS_11char_traitsIcEENS_9allocatorIcEEEENS_12__value_typeIS6_mEENS_4lessIS6_EELb1EEclB8ne190102ERKS8_RKS6_
FNL:11,641
FNA:11,0,_ZNKSt3__119__map_value_compareINS_12basic_stringIcNS_11char_traitsIcEENS_9allocatorIcEEEENS_12__value_typeIS6_N7testing8internal12CodeLocationEEENS_4lessIvEELb1EEclB8ne190102ERKS6_RKSB_
FNA:11,0,_ZNKSt3__119__map_value_compareINS_12basic_stringIcNS_11char_traitsIcEENS_9allocatorIcEEEENS_12__value_typeIS6_N7testing8internal34TypeParameterizedTestSuiteRegistry30TypeParameterizedTestSuiteInfoEEENS_4lessIS6_EELb1EEclB8ne190102ERKS6_RKSC_
FNA:11,0,_ZNKSt3__119__map_value_compareINS_12basic_stringIcNS_11char_traitsIcEENS_9allocatorIcEEEENS_12__value_typeIS6_mEENS_4lessIS6_EELb1EEclB8ne190102ERKS6_RKS8_
FNL:12,769
FNA:12,0,_ZNSt3__112__value_typeINS_12basic_stringIcNS_11char_traitsIcEENS_9allocatorIcEEEEN7testing8internal34TypeParameterizedTestSuiteRegistry30TypeParameterizedTestSuiteInfoEE11__get_valueB8ne190102Ev
FNA:12,0,_ZNSt3__112__value_typeINS_12basic_stringIcNS_11char_traitsIcEENS_9allocatorIcEEEEmE11__get_valueB8ne190102Ev
FNL:13,777
FNA:13,0,_ZNKSt3__112__value_typeINS_12basic_stringIcNS_11char_traitsIcEENS_9allocatorIcEEEEN7testing8internal12CodeLocationEE11__get_valueB8ne190102Ev
FNA:13,0,_ZNKSt3__112__value_typeINS_12basic_stringIcNS_11char_traitsIcEENS_9allocatorIcEEEEN7testing8internal34TypeParameterizedTestSuiteRegistry30TypeParameterizedTestSuiteInfoEE11__get_valueB8ne190102Ev
FNA:13,0,_ZNKSt3__112__value_typeINS_12basic_stringIcNS_11char_traitsIcEENS_9allocatorIcEEEEmE11__get_valueB8ne190102Ev
FNL:14,865
FNA:14,0,_ZNSt3__114__map_iteratorINS_15__tree_iteratorINS_12__value_typeINS_12basic_stringIcNS_11char_traitsIcEENS_9allocatorIcEEEEN7testing8internal12CodeLocationEEEPNS_11__tree_nodeISC_PvEElEEEC1B8ne190102ESH_
FNA:14,0,_ZNSt3__114__map_iteratorINS_15__tree_iteratorINS_12__value_typeINS_12basic_stringIcNS_11char_traitsIcEENS_9allocatorIcEEEEN7testing8internal12CodeLocationEEEPNS_11__tree_nodeISC_PvEElEEEC2B8ne190102ESH_
FNA:14,2,_ZNSt3__114__map_iteratorINS_15__tree_iteratorINS_12__value_typeINS_12basic_stringIcNS_11char_traitsIcEENS_9allocatorIcEEEEN7testing8internal34TypeParameterizedTestSuiteRegistry30TypeParameterizedTestSuiteInfoEEEPNS_11__tree_nodeISD_PvEElEEEC1B8ne190102ESI_
FNA:14,2,_ZNSt3__114__map_iteratorINS_15__tree_iteratorINS_12__value_typeINS_12basic_stringIcNS_11char_traitsIcEENS_9allocatorIcEEEEN7testing8internal34TypeParameterizedTestSuiteRegistry30TypeParameterizedTestSuiteInfoEEEPNS_11__tree_nodeISD_PvEElEEEC2B8ne190102ESI_
FNA:14,0,_ZNSt3__114__map_iteratorINS_15__tree_iteratorINS_12__value_typeINS_12basic_stringIcNS_11char_traitsIcEENS_9allocatorIcEEEEmEEPNS_11__tree_nodeIS9_PvEElEEEC1B8ne190102ESE_
FNA:14,0,_ZNSt3__114__map_iteratorINS_15__tree_iteratorINS_12__value_typeINS_12basic_stringIcNS_11char_traitsIcEENS_9allocatorIcEEEEmEEPNS_11__tree_nodeIS9_PvEElEEEC2B8ne190102ESE_
FNL:15,867
FNA:15,0,_ZNKSt3__114__map_iteratorINS_15__tree_iteratorINS_12__value_typeINS_12basic_stringIcNS_11char_traitsIcEENS_9allocatorIcEEEEN7testing8internal34TypeParameterizedTestSuiteRegistry30TypeParameterizedTestSuiteInfoEEEPNS_11__tree_nodeISD_PvEElEEEdeB8ne190102Ev
FNL:16,868
FNA:16,0,_ZNKSt3__114__map_iteratorINS_15__tree_iteratorINS_12__value_typeINS_12basic_stringIcNS_11char_traitsIcEENS_9allocatorIcEEEEN7testing8internal34TypeParameterizedTestSuiteRegistry30TypeParameterizedTestSuiteInfoEEEPNS_11__tree_nodeISD_PvEElEEEptB8ne190102Ev
FNA:16,0,_ZNKSt3__114__map_iteratorINS_15__tree_iteratorINS_12__value_typeINS_12basic_stringIcNS_11char_traitsIcEENS_9allocatorIcEEEEmEEPNS_11__tree_nodeIS9_PvEElEEEptB8ne190102Ev
FNL:17,870
FNA:17,0,_ZNSt3__114__map_iteratorINS_15__tree_iteratorINS_12__value_typeINS_12basic_stringIcNS_11char_traitsIcEENS_9allocatorIcEEEEN7testing8internal34TypeParameterizedTestSuiteRegistry30TypeParameterizedTestSuiteInfoEEEPNS_11__tree_nodeISD_PvEElEEEppB8ne190102Ev
FNL:18,893
FNA:18,1,_ZNSt3__1neB8ne190102ERKNS_14__map_iteratorINS_15__tree_iteratorINS_12__value_typeINS_12basic_stringIcNS_11char_traitsIcEENS_9allocatorIcEEEEN7testing8internal34TypeParameterizedTestSuiteRegistry30TypeParameterizedTestSuiteInfoEEEPNS_11__tree_nodeISD_PvEElEEEESL_
FNA:18,0,_ZNSt3__1neB8ne190102ERKNS_14__map_iteratorINS_15__tree_iteratorINS_12__value_typeINS_12basic_stringIcNS_11char_traitsIcEENS_9allocatorIcEEEEmEEPNS_11__tree_nodeIS9_PvEElEEEESH_
FNL:19,923
FNA:19,0,_ZNSt3__120__map_const_iteratorINS_21__tree_const_iteratorINS_12__value_typeINS_12basic_stringIcNS_11char_traitsIcEENS_9allocatorIcEEEEN7testing8internal12CodeLocationEEEPNS_11__tree_nodeISC_PvEElEEEC1B8ne190102ENS_14__map_iteratorINS_15__tree_iteratorISC_SG_lEEEE
FNA:19,0,_ZNSt3__120__map_const_iteratorINS_21__tree_const_iteratorINS_12__value_typeINS_12basic_stringIcNS_11char_traitsIcEENS_9allocatorIcEEEEN7testing8internal12CodeLocationEEEPNS_11__tree_nodeISC_PvEElEEEC2B8ne190102ENS_14__map_iteratorINS_15__tree_iteratorISC_SG_lEEEE
FNL:20,926
FNA:20,0,_ZNKSt3__120__map_const_iteratorINS_21__tree_const_iteratorINS_12__value_typeINS_12basic_stringIcNS_11char_traitsIcEENS_9allocatorIcEEEEN7testing8internal12CodeLocationEEEPNS_11__tree_nodeISC_PvEElEEEptB8ne190102Ev
FNL:21,928
FNA:21,0,_ZNSt3__120__map_const_iteratorINS_21__tree_const_iteratorINS_12__value_typeINS_12basic_stringIcNS_11char_traitsIcEENS_9allocatorIcEEEEN7testing8internal12CodeLocationEEEPNS_11__tree_nodeISC_PvEElEEEppB8ne190102Ev
FNL:22,951
FNA:22,0,_ZNSt3__1neB8ne190102ERKNS_20__map_const_iteratorINS_21__tree_const_iteratorINS_12__value_typeINS_12basic_stringIcNS_11char_traitsIcEENS_9allocatorIcEEEEN7testing8internal12CodeLocationEEEPNS_11__tree_nodeISC_PvEElEEEESK_
FNF:23
FNH:6
DA:632,2
DA:633,2
DA:638,0
DA:639,0
DA:641,0
DA:642,0
DA:769,0
DA:771,0
DA:777,0
DA:779,0
DA:865,4
DA:867,0
DA:868,0
DA:870,0
DA:871,0
DA:872,0
DA:893,1
DA:894,1
DA:923,0
DA:926,0
DA:928,0
DA:929,0
DA:930,0
DA:951,0
DA:952,0
DA:1024,2
DA:1027,2
DA:1130,0
DA:1132,1
DA:1134,1
DA:1148,0
DA:1165,0
DA:1166,0
DA:1360,0
DA:1373,0
DA:1511,0
DA:1512,0
DA:1513,0
DA:1514,0
DA:1515,0
LF:40
LH:9
end_of_record
TN:
SF:/Library/Developer/CommandLineTools/SDKs/MacOSX.sdk/usr/include/c++/v1/new
FNL:0,172
FNA:0,0,_ZSt28__throw_bad_array_new_lengthB8ne190102v
FNL:1,286
FNA:1,95,_ZNSt3__124__is_overaligned_for_newB8ne190102Em
FNL:2,295
FNA:2,56,_ZNSt3__121__libcpp_operator_newB8ne190102IJmEEEPvDpT_
FNA:2,0,_ZNSt3__121__libcpp_operator_newB8ne190102IJmSt11align_val_tEEEPvDpT_
FNL:3,304
FNA:3,39,_ZNSt3__124__libcpp_operator_deleteB8ne190102IJPvEEEvDpT_
FNA:3,0,_ZNSt3__124__libcpp_operator_deleteB8ne190102IJPvSt11align_val_tEEEvDpT_
FNL:4,312
FNA:4,56,_ZNSt3__117__libcpp_allocateB8ne190102Emm
FNL:5,325
FNA:5,39,_ZNSt3__127__do_deallocate_handle_sizeB8ne190102IJEEEvPvmDpT_
FNA:5,0,_ZNSt3__127__do_deallocate_handle_sizeB8ne190102IJSt11align_val_tEEEvPvmDpT_
FNL:6,334
FNA:6,39,_ZNSt3__119__libcpp_deallocateB8ne190102EPvmm
FNL:7,348
FNA:7,0,_ZNSt3__127__libcpp_deallocate_unsizedB8ne190102EPvm
FNL:8,363
FNA:8,0,_ZNSt3__19__launderB8ne190102IKNS_4pairIKNS_12basic_stringIcNS_11char_traitsIcEENS_9allocatorIcEEEEN7testing8internal12CodeLocationEEEEEPT_SF_
FNA:8,0,_ZNSt3__19__launderB8ne190102IKNS_4pairIKNS_12basic_stringIcNS_11char_traitsIcEENS_9allocatorIcEEEEN7testing8internal34TypeParameterizedTestSuiteRegistry30TypeParameterizedTestSuiteInfoEEEEEPT_SG_
FNA:8,0,_ZNSt3__19__launderB8ne190102IKNS_4pairIKNS_12basic_stringIcNS_11char_traitsIcEENS_9allocatorIcEEEEPN7testing9TestSuiteEEEEEPT_SF_
FNA:8,0,_ZNSt3__19__launderB8ne190102IKNS_4pairIKNS_12basic_stringIcNS_11char_traitsIcEENS_9allocatorIcEEEEmEEEEPT_SC_
FNA:8,0,_ZNSt3__19__launderB8ne190102INS_4pairIKNS_12basic_stringIcNS_11char_traitsIcEENS_9allocatorIcEEEEN7testing8internal34TypeParameterizedTestSuiteRegistry30TypeParameterizedTestSuiteInfoEEEEEPT_SF_
FNA:8,4,_ZNSt3__19__launderB8ne190102INS_4pairIKNS_12basic_stringIcNS_11char_traitsIcEENS_9allocatorIcEEEEPN7testing9TestSuiteEEEEEPT_SE_
FNA:8,0,_ZNSt3__19__launderB8ne190102INS_4pairIKNS_12basic_stringIcNS_11char_traitsIcEENS_9allocatorIcEEEEmEEEEPT_SB_
FNL:9,371
FNA:9,0,_ZNSt3__17launderB8ne190102IKNS_4pairIKNS_12basic_stringIcNS_11char_traitsIcEENS_9allocatorIcEEEEN7testing8internal12CodeLocationEEEEEPT_SF_
FNA:9,0,_ZNSt3__17launderB8ne190102IKNS_4pairIKNS_12basic_stringIcNS_11char_traitsIcEENS_9allocatorIcEEEEN7testing8internal34TypeParameterizedTestSuiteRegistry30TypeParameterizedTestSuiteInfoEEEEEPT_SG_
FNA:9,0,_ZNSt3__17launderB8ne190102IKNS_4pairIKNS_12basic_stringIcNS_11char_traitsIcEENS_9allocatorIcEEEEPN7testing9TestSuiteEEEEEPT_SF_
FNA:9,0,_ZNSt3__17launderB8ne190102IKNS_4pairIKNS_12basic_stringIcNS_11char_traitsIcEENS_9allocatorIcEEEEmEEEEPT_SC_
FNA:9,0,_ZNSt3__17launderB8ne190102INS_4pairIKNS_12basic_stringIcNS_11char_traitsIcEENS_9allocatorIcEEEEN7testing8internal34TypeParameterizedTestSuiteRegistry30TypeParameterizedTestSuiteInfoEEEEEPT_SF_
FNA:9,4,_ZNSt3__17launderB8ne190102INS_4pairIKNS_12basic_stringIcNS_11char_traitsIcEENS_9allocatorIcEEEEPN7testing9TestSuiteEEEEEPT_SE_
FNA:9,0,_ZNSt3__17launderB8ne190102INS_4pairIKNS_12basic_stringIcNS_11char_traitsIcEENS_9allocatorIcEEEEmEEEEPT_SB_
FNF:10
FNH:8
DA:172,0
DA:174,0
DA:286,95
DA:288,95
DA:295,56
DA:297,56
DA:304,39
DA:306,39
DA:310,39
DA:312,56
DA:314,56
DA:315,0
DA:316,0
DA:321,56
DA:322,56
DA:325,39
DA:328,39
DA:334,39
DA:339,39
DA:340,0
DA:341,0
DA:343,39
DA:346,39
DA:348,0
DA:353,0
DA:354,0
DA:355,0
DA:357,0
DA:360,0
DA:363,4
DA:366,4
DA:371,4
DA:372,4
LF:33
LH:21
end_of_record
TN:
SF:/Library/Developer/CommandLineTools/SDKs/MacOSX.sdk/usr/include/c++/v1/set
FNL:0,605
FNA:0,1,_ZNSt3__13setINS_12basic_stringIcNS_11char_traitsIcEENS_9allocatorIcEEEENS_4lessIS6_EENS4_IS6_EEEC1B8ne190102Ev
FNA:0,1,_ZNSt3__13setINS_12basic_stringIcNS_11char_traitsIcEENS_9allocatorIcEEEENS_4lessIS6_EENS4_IS6_EEEC2B8ne190102Ev
FNL:1,699
FNA:1,0,_ZNSt3__13setINS_12basic_stringIcNS_11char_traitsIcEENS_9allocatorIcEEEENS_4lessIS6_EENS4_IS6_EEED1B8ne190102Ev
FNA:1,0,_ZNSt3__13setINS_12basic_stringIcNS_11char_traitsIcEENS_9allocatorIcEEEENS_4lessIS6_EENS4_IS6_EEED2B8ne190102Ev
FNL:2,704
FNA:2,0,_ZNKSt3__13setINS_12basic_stringIcNS_11char_traitsIcEENS_9allocatorIcEEEENS_4lessIS6_EENS4_IS6_EEE3endB8ne190102Ev
FNL:3,732
FNA:3,0,_ZNSt3__13setINS_12basic_stringIcNS_11char_traitsIcEENS_9allocatorIcEEEENS_4lessIS6_EENS4_IS6_EEE6insertB8ne190102ERKS6_
FNL:4,754
FNA:4,0,_ZNSt3__13setINS_12basic_stringIcNS_11char_traitsIcEENS_9allocatorIcEEEENS_4lessIS6_EENS4_IS6_EEE6insertB8ne190102EOS6_
FNL:5,821
FNA:5,0,_ZNKSt3__13setINS_12basic_stringIcNS_11char_traitsIcEENS_9allocatorIcEEEENS_4lessIS6_EENS4_IS6_EEE4findB8ne190102ERKS6_
FNL:6,833
FNA:6,0,_ZNKSt3__13setINS_12basic_stringIcNS_11char_traitsIcEENS_9allocatorIcEEEENS_4lessIS6_EENS4_IS6_EEE5countB8ne190102ERKS6_
FNF:7
FNH:1
DA:605,2
DA:608,2
DA:699,0
DA:704,0
DA:732,0
DA:754,0
DA:755,0
DA:821,0
DA:833,0
LF:9
LH:2
end_of_record
TN:
SF:/Library/Developer/CommandLineTools/SDKs/MacOSX.sdk/usr/include/c++/v1/sstream
FNL:0,1002
FNA:0,0,_ZNSt3__119basic_ostringstreamIcNS_11char_traitsIcEENS_9allocatorIcEEEC1B8ne190102Ev
FNL:1,1077
FNA:1,0,_ZNKSt3__119basic_ostringstreamIcNS_11char_traitsIcEENS_9allocatorIcEEE3strB8ne190102Ev
FNL:2,1139
FNA:2,77,_ZNSt3__118basic_stringstreamIcNS_11char_traitsIcEENS_9allocatorIcEEEC1B8ne190102Ev
FNL:3,1217
FNA:3,77,_ZNKSt3__118basic_stringstreamIcNS_11char_traitsIcEENS_9allocatorIcEEE3strB8ne190102Ev
FNL:4,1261
FNA:4,0,_ZNSt3__115basic_stringbufIcNS_11char_traitsIcEENS_9allocatorIcEEED1Ev
FNA:4,0,_ZNSt3__115basic_stringbufIcNS_11char_traitsIcEENS_9allocatorIcEEED2Ev
FNL:5,1262
FNA:5,0,_ZNSt3__118basic_stringstreamIcNS_11char_traitsIcEENS_9allocatorIcEEED1Ev
FNA:5,0,_ZNSt3__118basic_stringstreamIcNS_11char_traitsIcEENS_9allocatorIcEEED2Ev
FNL:6,1263
FNA:6,0,_ZNSt3__119basic_ostringstreamIcNS_11char_traitsIcEENS_9allocatorIcEEED1Ev
FNA:6,0,_ZNSt3__119basic_ostringstreamIcNS_11char_traitsIcEENS_9allocatorIcEEED2Ev
FNL:7,359
FNA:7,77,_ZNSt3__115basic_stringbufIcNS_11char_traitsIcEENS_9allocatorIcEEEC1B8ne190102Ej
FNA:7,77,_ZNSt3__115basic_stringbufIcNS_11char_traitsIcEENS_9allocatorIcEEEC2B8ne190102Ej
FNF:8
FNH:3
DA:359,154
DA:1002,0
DA:1077,0
DA:1139,154
DA:1140,154
DA:1217,77
LF:6
LH:4
end_of_record
TN:
SF:/Library/Developer/CommandLineTools/SDKs/MacOSX.sdk/usr/include/c++/v1/stdexcept
FNL:0,152
FNA:0,0,_ZNSt12length_errorC1B8ne190102EPKc
FNA:0,0,_ZNSt12length_errorC2B8ne190102EPKc
FNL:1,163
FNA:1,0,_ZNSt12out_of_rangeC1B8ne190102EPKc
FNA:1,0,_ZNSt12out_of_rangeC2B8ne190102EPKc
FNL:2,239
FNA:2,0,_ZNSt3__120__throw_length_errorB8ne190102EPKc
FNL:3,250
FNA:3,0,_ZNSt3__120__throw_out_of_rangeB8ne190102EPKc
FNF:4
FNH:0
DA:152,0
DA:163,0
DA:239,0
DA:241,0
DA:248,0
DA:250,0
DA:252,0
DA:259,0
LF:8
LH:0
end_of_record
TN:
SF:/Library/Developer/CommandLineTools/SDKs/MacOSX.sdk/usr/include/c++/v1/streambuf
FNL:0,221
FNA:0,519,_ZNSt3__115basic_streambufIcNS_11char_traitsIcEEE5sputnB8ne190102EPKcl
FNF:1
FNH:1
DA:221,519
DA:222,519
LF:2
LH:2
end_of_record
TN:
SF:/Library/Developer/CommandLineTools/SDKs/MacOSX.sdk/usr/include/c++/v1/string
FNL:0,1020
FNA:0,139,_ZNSt3__112basic_stringIcNS_11char_traitsIcEENS_9allocatorIcEEEC1B8ne190102EOS5_
FNA:0,139,_ZNSt3__112basic_stringIcNS_11char_traitsIcEENS_9allocatorIcEEEC2B8ne190102EOS5_
FNL:1,1029
FNA:1,139,_ZZNSt3__112basic_stringIcNS_11char_traitsIcEENS_9allocatorIcEEEC1B8ne190102EOS5_ENKUlRS5_E_clES7_
FNL:2,1059
FNA:2,79,_ZNSt3__112basic_stringIcNS_11char_traitsIcEENS_9allocatorIcEEEC1B8ne190102ILi0EEEPKc
FNA:2,79,_ZNSt3__112basic_stringIcNS_11char_traitsIcEENS_9allocatorIcEEEC2B8ne190102ILi0EEEPKc
FNA:2,0,_ZNSt3__112basic_stringIwNS_11char_traitsIwEENS_9allocatorIwEEEC1B8ne190102ILi0EEEPKw
FNA:2,0,_ZNSt3__112basic_stringIwNS_11char_traitsIwEENS_9allocatorIwEEEC2B8ne190102ILi0EEEPKw
FNL:3,1076
FNA:3,0,_ZNSt3__112basic_stringIcNS_11char_traitsIcEENS_9allocatorIcEEEC1B8ne190102EPKcm
FNA:3,0,_ZNSt3__112basic_stringIcNS_11char_traitsIcEENS_9allocatorIcEEEC2B8ne190102EPKcm
FNL:4,1089
FNA:4,0,_ZNSt3__112basic_stringIcNS_11char_traitsIcEENS_9allocatorIcEEEC1B8ne190102Emc
FNA:4,0,_ZNSt3__112basic_stringIcNS_11char_traitsIcEENS_9allocatorIcEEEC2B8ne190102Emc
FNL:5,1155
FNA:5,0,_ZNSt3__112basic_stringIcNS_11char_traitsIcEENS_9allocatorIcEEEC1INS_17basic_string_viewIcS2_EELi0EEERKT_
FNA:5,0,_ZNSt3__112basic_stringIcNS_11char_traitsIcEENS_9allocatorIcEEEC2INS_17basic_string_viewIcS2_EELi0EEERKT_
FNL:6,1173
FNA:6,0,_ZNSt3__112basic_stringIcNS_11char_traitsIcEENS_9allocatorIcEEEC1B8ne190102IPKcLi0EEET_S9_
FNA:6,0,_ZNSt3__112basic_stringIcNS_11char_traitsIcEENS_9allocatorIcEEEC2B8ne190102IPKcLi0EEET_S9_
FNL:7,1216
FNA:7,0,_ZNKSt3__112basic_stringIcNS_11char_traitsIcEENS_9allocatorIcEEEcvNS_17basic_string_viewIcS2_EEB8ne190102Ev
FNA:7,0,_ZNKSt3__112basic_stringIwNS_11char_traitsIwEENS_9allocatorIwEEEcvNS_17basic_string_viewIwS2_EEB8ne190102Ev
FNL:8,1234
FNA:8,1,_ZNSt3__112basic_stringIcNS_11char_traitsIcEENS_9allocatorIcEEEaSB8ne190102EOS5_
FNL:9,1243
FNA:9,0,_ZNSt3__112basic_stringIcNS_11char_traitsIcEENS_9allocatorIcEEEaSB8ne190102EPKc
FNL:10,1251
FNA:10,11,_ZNSt3__112basic_stringIcNS_11char_traitsIcEENS_9allocatorIcEEE5beginB8ne190102Ev
FNL:11,1254
FNA:11,13,_ZNKSt3__112basic_stringIcNS_11char_traitsIcEENS_9allocatorIcEEE5beginB8ne190102Ev
FNL:12,1257
FNA:12,83,_ZNSt3__112basic_stringIcNS_11char_traitsIcEENS_9allocatorIcEEE3endB8ne190102Ev
FNL:13,1260
FNA:13,12,_ZNKSt3__112basic_stringIcNS_11char_traitsIcEENS_9allocatorIcEEE3endB8ne190102Ev
FNL:14,1277
FNA:14,1,_ZNKSt3__112basic_stringIcNS_11char_traitsIcEENS_9allocatorIcEEE6cbeginB8ne190102Ev
FNL:15,1284
FNA:15,1041,_ZNKSt3__112basic_stringIcNS_11char_traitsIcEENS_9allocatorIcEEE4sizeB8ne190102Ev
FNA:15,0,_ZNKSt3__112basic_stringIwNS_11char_traitsIwEENS_9allocatorIwEEE4sizeB8ne190102Ev
FNL:16,1287
FNA:16,574,_ZNKSt3__112basic_stringIcNS_11char_traitsIcEENS_9allocatorIcEEE6lengthB8ne190102Ev
FNA:16,0,_ZNKSt3__112basic_stringIwNS_11char_traitsIwEENS_9allocatorIwEEE6lengthB8ne190102Ev
FNL:17,1289
FNA:17,13,_ZNKSt3__112basic_stringIcNS_11char_traitsIcEENS_9allocatorIcEEE8max_sizeB8ne190102Ev
FNL:18,1324
FNA:18,19,_ZNKSt3__112basic_stringIcNS_11char_traitsIcEENS_9allocatorIcEEE5emptyB8ne190102Ev
FNL:19,1328
FNA:19,0,_ZNKSt3__112basic_stringIcNS_11char_traitsIcEENS_9allocatorIcEEEixB8ne190102Em
FNL:20,1336
FNA:20,0,_ZNSt3__112basic_stringIcNS_11char_traitsIcEENS_9allocatorIcEEEixB8ne190102Em
FNL:21,1347
FNA:21,0,_ZNSt3__112basic_stringIcNS_11char_traitsIcEENS_9allocatorIcEEEpLB8ne190102ERKS5_
FNL:22,1361
FNA:22,0,_ZNSt3__112basic_stringIcNS_11char_traitsIcEENS_9allocatorIcEEEpLB8ne190102EPKc
FNL:23,1365
FNA:23,987,_ZNSt3__112basic_stringIcNS_11char_traitsIcEENS_9allocatorIcEEEpLB8ne190102Ec
FNL:24,1376
FNA:24,13,_ZNSt3__112basic_stringIcNS_11char_traitsIcEENS_9allocatorIcEEE6appendB8ne190102ERKS5_
FNL:25,1683
FNA:25,86,_ZNKSt3__112basic_stringIcNS_11char_traitsIcEENS_9allocatorIcEEE6substrB8ne190102Emm
FNL:26,1703
FNA:26,911,_ZNKSt3__112basic_stringIcNS_11char_traitsIcEENS_9allocatorIcEEE5c_strB8ne190102Ev
FNA:26,0,_ZNKSt3__112basic_stringIwNS_11char_traitsIwEENS_9allocatorIwEEE5c_strB8ne190102Ev
FNL:27,1704
FNA:27,1077,_ZNKSt3__112basic_stringIcNS_11char_traitsIcEENS_9allocatorIcEEE4dataB8ne190102Ev
FNA:27,0,_ZNKSt3__112basic_stringIwNS_11char_traitsIwEENS_9allocatorIwEEE4dataB8ne190102Ev
FNL:28,1708
FNA:28,0,_ZNSt3__112basic_stringIcNS_11char_traitsIcEENS_9allocatorIcEEE4dataB8ne190102Ev
FNL:29,1713
FNA:29,13,_ZNKSt3__112basic_stringIcNS_11char_traitsIcEENS_9allocatorIcEEE13get_allocatorB8ne190102Ev
FNL:30,1877
FNA:30,2531,_ZNKSt3__112basic_stringIcNS_11char_traitsIcEENS_9allocatorIcEEE9__is_longB8ne190102Ev
FNA:30,0,_ZNKSt3__112basic_stringIwNS_11char_traitsIwEENS_9allocatorIwEEE9__is_longB8ne190102Ev
FNL:31,1884
FNA:31,0,_ZNSt3__112basic_stringIcNS_11char_traitsIcEENS_9allocatorIcEEE16__begin_lifetimeB8ne190102EPcm
FNL:32,1896
FNA:32,13,_ZNSt3__112basic_stringIcNS_11char_traitsIcEENS_9allocatorIcEEE13__fits_in_ssoB8ne190102Em
FNL:33,1908
FNA:33,0,_ZNSt3__112basic_stringIcNS_11char_traitsIcEENS_9allocatorIcEEE28__copy_non_overlapping_rangeB8ne190102IPKcS8_EEPcT_T0_S9_
FNL:34,1950
FNA:34,2,_ZNSt3__112basic_stringIcNS_11char_traitsIcEENS_9allocatorIcEEE7__allocB8ne190102Ev
FNL:35,1951
FNA:35,26,_ZNKSt3__112basic_stringIcNS_11char_traitsIcEENS_9allocatorIcEEE7__allocB8ne190102Ev
FNL:36,1954
FNA:36,14,_ZNSt3__112basic_stringIcNS_11char_traitsIcEENS_9allocatorIcEEE16__set_short_sizeB8ne190102Em
FNL:37,1961
FNA:37,460,_ZNKSt3__112basic_stringIcNS_11char_traitsIcEENS_9allocatorIcEEE16__get_short_sizeB8ne190102Ev
FNA:37,0,_ZNKSt3__112basic_stringIwNS_11char_traitsIwEENS_9allocatorIwEEE16__get_short_sizeB8ne190102Ev
FNL:38,1966
FNA:38,0,_ZNSt3__112basic_stringIcNS_11char_traitsIcEENS_9allocatorIcEEE15__set_long_sizeB8ne190102Em
FNL:39,1969
FNA:39,581,_ZNKSt3__112basic_stringIcNS_11char_traitsIcEENS_9allocatorIcEEE15__get_long_sizeB8ne190102Ev
FNA:39,0,_ZNKSt3__112basic_stringIwNS_11char_traitsIwEENS_9allocatorIwEEE15__get_long_sizeB8ne190102Ev
FNL:40,1979
FNA:40,0,_ZNSt3__112basic_stringIcNS_11char_traitsIcEENS_9allocatorIcEEE14__set_long_capB8ne190102Em
FNL:41,1984
FNA:41,0,_ZNKSt3__112basic_stringIcNS_11char_traitsIcEENS_9allocatorIcEEE14__get_long_capB8ne190102Ev
FNL:42,1988
FNA:42,0,_ZNSt3__112basic_stringIcNS_11char_traitsIcEENS_9allocatorIcEEE18__set_long_pointerB8ne190102EPc
FNL:43,1991
FNA:43,94,_ZNSt3__112basic_stringIcNS_11char_traitsIcEENS_9allocatorIcEEE18__get_long_pointerB8ne190102Ev
FNL:44,1994
FNA:44,502,_ZNKSt3__112basic_stringIcNS_11char_traitsIcEENS_9allocatorIcEEE18__get_long_pointerB8ne190102Ev
FNA:44,0,_ZNKSt3__112basic_stringIwNS_11char_traitsIwEENS_9allocatorIwEEE18__get_long_pointerB8ne190102Ev
FNL:45,1998
FNA:45,14,_ZNSt3__112basic_stringIcNS_11char_traitsIcEENS_9allocatorIcEEE19__get_short_pointerB8ne190102Ev
FNL:46,2002
FNA:46,600,_ZNKSt3__112basic_stringIcNS_11char_traitsIcEENS_9allocatorIcEEE19__get_short_pointerB8ne190102Ev
FNA:46,0,_ZNKSt3__112basic_stringIwNS_11char_traitsIwEENS_9allocatorIwEEE19__get_short_pointerB8ne190102Ev
FNL:47,2005
FNA:47,107,_ZNSt3__112basic_stringIcNS_11char_traitsIcEENS_9allocatorIcEEE13__get_pointerB8ne190102Ev
FNL:48,2008
FNA:48,1102,_ZNKSt3__112basic_stringIcNS_11char_traitsIcEENS_9allocatorIcEEE13__get_pointerB8ne190102Ev
FNA:48,0,_ZNKSt3__112basic_stringIwNS_11char_traitsIwEENS_9allocatorIwEEE13__get_pointerB8ne190102Ev
FNL:49,2027
FNA:49,483,_ZNKSt3__112basic_stringIcNS_11char_traitsIcEENS_9allocatorIcEEE14__annotate_newB8ne190102Em
FNL:50,2035
FNA:50,103,_ZNKSt3__112basic_stringIcNS_11char_traitsIcEENS_9allocatorIcEEE17__annotate_deleteB8ne190102Ev
FNL:51,2050
FNA:51,0,_ZNKSt3__112basic_stringIcNS_11char_traitsIcEENS_9allocatorIcEEE17__annotate_shrinkB8ne190102Em
FNL:52,2059
FNA:52,0,_ZNSt3__112basic_stringIcNS_11char_traitsIcEENS_9allocatorIcEEE10__align_itB8ne190102ILm8EEEmm
FNL:53,2063
FNA:53,0,_ZNSt3__112basic_stringIcNS_11char_traitsIcEENS_9allocatorIcEEE11__recommendB8ne190102Em
FNL:54,2185
FNA:54,1,_ZNSt3__112basic_stringIcNS_11char_traitsIcEENS_9allocatorIcEEE19__move_assign_allocB8ne190102ERS5_
FNL:55,2192
FNA:55,1,_ZNSt3__112basic_stringIcNS_11char_traitsIcEENS_9allocatorIcEEE19__move_assign_allocB8ne190102ERS5_NS_17integral_constantIbLb1EEE
FNL:56,2233
FNA:56,0,_ZNKSt3__112basic_stringIcNS_11char_traitsIcEENS_9allocatorIcEEE20__throw_length_errorB8ne190102Ev
FNL:57,2429
FNA:57,0,_ZNSt3__112basic_stringIcNS_11char_traitsIcEENS_9allocatorIcEEE6__initIPKcLi0EEEvT_S9_
FNL:58,2437
FNA:58,0,_ZNSt3__112basic_stringIcNS_11char_traitsIcEENS_9allocatorIcEEE16__init_with_sizeB8ne190102IPKcS8_EEvT_T0_m
FNL:59,2685
FNA:59,1,_ZNSt3__112basic_stringIcNS_11char_traitsIcEENS_9allocatorIcEEE13__move_assignB8ne190102ERS5_NS_17integral_constantIbLb1EEE
FNL:60,3261
FNA:60,0,_ZNSt3__112basic_stringIcNS_11char_traitsIcEENS_9allocatorIcEEE5eraseB8ne190102ENS_11__wrap_iterIPKcEE
FNL:61,3272
FNA:61,1,_ZNSt3__112basic_stringIcNS_11char_traitsIcEENS_9allocatorIcEEE5eraseB8ne190102ENS_11__wrap_iterIPKcEES9_
FNL:62,3437
FNA:62,0,_ZNSt3__112basic_stringIcNS_11char_traitsIcEENS_9allocatorIcEEE4swapB8ne190102ERS5_
FNL:63,3479
FNA:63,0,_ZNKSt3__112basic_stringIcNS_11char_traitsIcEENS_9allocatorIcEEE4findB8ne190102ERKS5_m
FNA:63,0,_ZNKSt3__112basic_stringIwNS_11char_traitsIwEENS_9allocatorIwEEE4findB8ne190102ERKS5_m
FNL:64,3709
FNA:64,0,_ZNKSt3__112basic_stringIcNS_11char_traitsIcEENS_9allocatorIcEEE7compareINS_17basic_string_viewIcS2_EELi0EEEiRKT_
FNL:65,3725
FNA:65,0,_ZNKSt3__112basic_stringIcNS_11char_traitsIcEENS_9allocatorIcEEE7compareB8ne190102ERKS5_
FNL:66,3835
FNA:66,11,_ZNSt3__1eqB8ne190102INS_9allocatorIcEEEEbRKNS_12basic_stringIcNS_11char_traitsIcEET_EES9_
FNL:67,3846
FNA:67,0,_ZNSt3__1eqB8ne190102IcNS_11char_traitsIcEENS_9allocatorIcEEEEbPKT_RKNS_12basic_stringIS5_T0_T1_EE
FNL:68,3858
FNA:68,2,_ZNSt3__1eqB8ne190102IcNS_11char_traitsIcEENS_9allocatorIcEEEEbRKNS_12basic_stringIT_T0_T1_EEPKS6_
FNL:69,3901
FNA:69,0,_ZNSt3__1neB8ne190102IcNS_11char_traitsIcEENS_9allocatorIcEEEEbRKNS_12basic_stringIT_T0_T1_EEPKS6_
FNL:70,3908
FNA:70,0,_ZNSt3__1ltB8ne190102IcNS_11char_traitsIcEENS_9allocatorIcEEEEbRKNS_12basic_stringIT_T0_T1_EESB_
FNL:71,4038
FNA:71,13,_ZNSt3__1plB8ne190102IcNS_11char_traitsIcEENS_9allocatorIcEEEENS_12basic_stringIT_T0_T1_EERKS9_PKS6_
FNL:72,4054
FNA:72,0,_ZNSt3__1plB8ne190102IcNS_11char_traitsIcEENS_9allocatorIcEEEENS_12basic_stringIT_T0_T1_EERKS9_S6_
FNL:73,4071
FNA:73,13,_ZNSt3__1plB8ne190102IcNS_11char_traitsIcEENS_9allocatorIcEEEENS_12basic_stringIT_T0_T1_EEOS9_RKS9_
FNL:74,4083
FNA:74,0,_ZNSt3__1plB8ne190102IcNS_11char_traitsIcEENS_9allocatorIcEEEENS_12basic_stringIT_T0_T1_EEOS9_SA_
FNL:75,4089
FNA:75,0,_ZNSt3__1plB8ne190102IcNS_11char_traitsIcEENS_9allocatorIcEEEENS_12basic_stringIT_T0_T1_EEPKS6_OS9_
FNL:76,4102
FNA:76,26,_ZNSt3__1plB8ne190102IcNS_11char_traitsIcEENS_9allocatorIcEEEENS_12basic_stringIT_T0_T1_EEOS9_PKS6_
FNL:77,4108
FNA:77,0,_ZNSt3__1plB8ne190102IcNS_11char_traitsIcEENS_9allocatorIcEEEENS_12basic_stringIT_T0_T1_EEOS9_S6_
FNL:78,4173
FNA:78,0,_ZNSt3__14swapB8ne190102IcNS_11char_traitsIcEENS_9allocatorIcEEEEvRNS_12basic_stringIT_T0_T1_EESA_
FNL:79,4227
FNA:79,62,_ZNKSt3__113__string_hashIcNS_9allocatorIcEEEclB8ne190102ERKNS_12basic_stringIcNS_11char_traitsIcEES2_EE
FNL:80,926
FNA:80,13,_ZNSt3__112basic_stringIcNS_11char_traitsIcEENS_9allocatorIcEEEC1B8ne190102ENS_24__uninitialized_size_tagEmRKS4_
FNA:80,13,_ZNSt3__112basic_stringIcNS_11char_traitsIcEENS_9allocatorIcEEEC2B8ne190102ENS_24__uninitialized_size_tagEmRKS4_
FNL:81,952
FNA:81,94,_ZNSt3__112basic_stringIcNS_11char_traitsIcEENS_9allocatorIcEEE15__make_iteratorB8ne190102EPc
FNL:82,969
FNA:82,25,_ZNKSt3__112basic_stringIcNS_11char_traitsIcEENS_9allocatorIcEEE21__make_const_iteratorB8ne190102EPKc
FNL:83,984
FNA:83,228,_ZNSt3__112basic_stringIcNS_11char_traitsIcEENS_9allocatorIcEEEC1B8ne190102Ev
FNA:83,228,_ZNSt3__112basic_stringIcNS_11char_traitsIcEENS_9allocatorIcEEEC2B8ne190102Ev
FNF:84
FNH:48
DA:926,26
DA:928,26
DA:929,13
DA:930,0
DA:931,13
DA:932,13
DA:933,13
DA:934,13
DA:935,0
DA:936,0
DA:937,0
DA:938,0
DA:939,0
DA:940,0
DA:942,13
DA:943,26
DA:952,94
DA:965,94
DA:969,25
DA:977,25
DA:984,456
DA:986,456
DA:987,228
DA:988,456
DA:1020,278
DA:1029,417
DA:1030,139
DA:1031,102
DA:1032,139
DA:1033,278
DA:1034,139
DA:1035,139
DA:1036,139
DA:1037,102
DA:1038,278
DA:1059,158
DA:1060,158
DA:1062,79
DA:1063,158
DA:1076,0
DA:1077,0
DA:1079,0
DA:1080,0
DA:1089,0
DA:1090,0
DA:1091,0
DA:1092,0
DA:1155,0
DA:1156,0
DA:1157,0
DA:1158,0
DA:1159,0
DA:1173,0
DA:1174,0
DA:1175,0
DA:1176,0
DA:1216,0
DA:1217,0
DA:1234,1
DA:1235,1
DA:1236,1
DA:1243,0
DA:1244,0
DA:1251,11
DA:1252,11
DA:1254,13
DA:1255,13
DA:1257,83
DA:1258,83
DA:1260,12
DA:1261,12
DA:1277,1
DA:1284,1041
DA:1285,1041
DA:1287,574
DA:1289,13
DA:1290,13
DA:1291,13
DA:1292,0
DA:1294,13
DA:1295,13
DA:1297,13
DA:1324,19
DA:1325,19
DA:1328,0
DA:1330,0
DA:1331,0
DA:1333,0
DA:1334,0
DA:1336,0
DA:1338,0
DA:1339,0
DA:1341,0
DA:1342,0
DA:1347,0
DA:1348,0
DA:1361,0
DA:1362,0
DA:1365,987
DA:1366,987
DA:1367,987
DA:1376,13
DA:1377,13
DA:1683,86
DA:1684,86
DA:1703,911
DA:1704,1077
DA:1705,1077
DA:1708,0
DA:1709,0
DA:1713,13
DA:1714,13
DA:1877,2531
DA:1881,2531
DA:1884,0
DA:1894,0
DA:1896,13
DA:1908,0
DA:1912,0
DA:1913,0
DA:1950,2
DA:1951,26
DA:1954,14
DA:1956,14
DA:1957,14
DA:1958,14
DA:1961,460
DA:1963,460
DA:1966,0
DA:1967,0
DA:1968,0
DA:1969,581
DA:1970,581
DA:1979,0
DA:1980,0
DA:1981,0
DA:1982,0
DA:1984,0
DA:1985,0
DA:1988,0
DA:1989,0
DA:1990,0
DA:1991,94
DA:1992,94
DA:1994,502
DA:1995,502
DA:1998,14
DA:1999,14
DA:2002,600
DA:2003,600
DA:2005,107
DA:2006,107
DA:2008,1102
DA:2009,1102
DA:2027,483
DA:2033,483
DA:2035,103
DA:2040,103
DA:2050,0
DA:2056,0
DA:2059,0
DA:2060,0
DA:2063,0
DA:2064,0
DA:2065,0
DA:2067,0
DA:2068,0
DA:2069,0
DA:2070,0
DA:2071,0
DA:2072,0
DA:2185,1
DA:2188,1
DA:2189,1
DA:2190,1
DA:2192,1
DA:2194,1
DA:2195,1
DA:2233,0
DA:2234,0
DA:2429,0
DA:2430,0
DA:2431,0
DA:2432,0
DA:2437,0
DA:2441,0
DA:2442,0
DA:2445,0
DA:2446,0
DA:2447,0
DA:2449,0
DA:2450,0
DA:2451,0
DA:2452,0
DA:2453,0
DA:2454,0
DA:2455,0
DA:2461,0
DA:2462,0
DA:2464,0
DA:2465,0
DA:2466,0
DA:2467,0
DA:2468,0
DA:2470,0
DA:2471,0
DA:2685,1
DA:2692,1
DA:2693,1
DA:2694,0
DA:2702,0
DA:2703,0
DA:2704,0
DA:2706,0
DA:2707,0
DA:2708,0
DA:2709,0
DA:2711,0
DA:2712,0
DA:2716,1
DA:2725,1
DA:2727,0
DA:2728,1
DA:3261,0
DA:3264,0
DA:3265,0
DA:3266,0
DA:3267,0
DA:3272,1
DA:3274,1
DA:3275,1
DA:3276,1
DA:3277,1
DA:3437,0
DA:3448,0
DA:3449,0
DA:3450,0
DA:3451,0
DA:3452,0
DA:3453,0
DA:3454,0
DA:3455,0
DA:3456,0
DA:3457,0
DA:3458,0
DA:3479,0
DA:3480,0
DA:3709,0
DA:3710,0
DA:3711,0
DA:3712,0
DA:3713,0
DA:3714,0
DA:3715,0
DA:3716,0
DA:3717,0
DA:3718,0
DA:3719,0
DA:3720,0
DA:3721,0
DA:3725,0
DA:3726,0
DA:3835,11
DA:3837,11
DA:3838,11
DA:3839,3
DA:3840,8
DA:3841,11
DA:3846,0
DA:3849,0
DA:3850,0
DA:3851,0
DA:3852,0
DA:3853,0
DA:3858,2
DA:3864,2
DA:3865,2
DA:3866,2
DA:3867,0
DA:3869,2
DA:3901,0
DA:3902,0
DA:3908,0
DA:3910,0
DA:4038,13
DA:4040,13
DA:4041,13
DA:4042,26
DA:4043,13
DA:4044,13
DA:4045,13
DA:4046,13
DA:4047,13
DA:4048,13
DA:4049,13
DA:4050,13
DA:4054,0
DA:4056,0
DA:4057,0
DA:4058,0
DA:4059,0
DA:4060,0
DA:4061,0
DA:4062,0
DA:4063,0
DA:4064,0
DA:4065,0
DA:4071,13
DA:4072,13
DA:4083,0
DA:4084,0
DA:4089,0
DA:4090,0
DA:4102,26
DA:4103,26
DA:4108,0
DA:4109,0
DA:4110,0
DA:4173,0
DA:4175,0
DA:4176,0
DA:4227,62
DA:4228,62
LF:323
LH:143
end_of_record
TN:
SF:/Library/Developer/CommandLineTools/SDKs/MacOSX.sdk/usr/include/c++/v1/string.h
FNL:0,101,102
FNA:0,0,_Z6strstrB8ne190102Ua9enable_ifIXLb1EEEPKcS0_
FNL:1,73,74
FNA:1,1,_Z6strchrB8ne190102Ua9enable_ifIXLb1EEEPKci
FNL:2,87,88
FNA:2,0,_Z7strrchrB8ne190102Ua9enable_ifIXLb1EEEPKci
FNF:3
FNH:1
DA:73,1
DA:74,1
DA:87,0
DA:88,0
DA:101,0
DA:102,0
LF:6
LH:2
end_of_record
TN:
SF:/Library/Developer/CommandLineTools/SDKs/MacOSX.sdk/usr/include/c++/v1/string_view
FNL:0,310
FNA:0,0,_ZNSt3__117basic_string_viewIcNS_11char_traitsIcEEEC1B8ne190102EPKcm
FNA:0,0,_ZNSt3__117basic_string_viewIcNS_11char_traitsIcEEEC2B8ne190102EPKcm
FNA:0,0,_ZNSt3__117basic_string_viewIwNS_11char_traitsIwEEEC1B8ne190102EPKwm
FNA:0,0,_ZNSt3__117basic_string_viewIwNS_11char_traitsIwEEEC2B8ne190102EPKwm
FNL:1,390
FNA:1,0,_ZNKSt3__117basic_string_viewIDiNS_11char_traitsIDiEEE4sizeB8ne190102Ev
FNA:1,0,_ZNKSt3__117basic_string_viewIDsNS_11char_traitsIDsEEE4sizeB8ne190102Ev
FNA:1,0,_ZNKSt3__117basic_string_viewIcNS_11char_traitsIcEEE4sizeB8ne190102Ev
FNA:1,0,_ZNKSt3__117basic_string_viewIwNS_11char_traitsIwEEE4sizeB8ne190102Ev
FNL:2,417
FNA:2,0,_ZNKSt3__117basic_string_viewIDiNS_11char_traitsIDiEEE4dataB8ne190102Ev
FNA:2,0,_ZNKSt3__117basic_string_viewIDsNS_11char_traitsIDsEEE4dataB8ne190102Ev
FNA:2,0,_ZNKSt3__117basic_string_viewIcNS_11char_traitsIcEEE4dataB8ne190102Ev
FNA:2,0,_ZNKSt3__117basic_string_viewIwNS_11char_traitsIwEEE4dataB8ne190102Ev
FNL:3,455
FNA:3,0,_ZNKSt3__117basic_string_viewIcNS_11char_traitsIcEEE7compareES3_
FNL:4,743
FNA:4,0,_ZNSt3__1eqB8ne190102IcNS_11char_traitsIcEELi1EEEbNS_17basic_string_viewIT_T0_EENS_15__type_identityIS6_E4typeE
FNF:5
FNH:0
DA:310,0
DA:311,0
DA:312,0
DA:323,0
DA:390,0
DA:417,0
DA:455,0
DA:456,0
DA:457,0
DA:458,0
DA:459,0
DA:460,0
DA:743,0
DA:745,0
DA:746,0
DA:747,0
DA:748,0
LF:17
LH:0
end_of_record
TN:
SF:/Library/Developer/CommandLineTools/SDKs/MacOSX.sdk/usr/include/c++/v1/tuple
FNL:0,1064
FNA:0,0,_ZNSt3__13getB8ne190102ILm0EJRKNS_12basic_stringIcNS_11char_traitsIcEENS_9allocatorIcEEEEEEERNS_13tuple_elementIXT_ENS_5tupleIJDpT0_EEEE4typeERSD_
FNL:1,1078
FNA:1,0,_ZNSt3__13getB8ne190102ILm0EJPKN7testing8internal11MatcherBaseINS_12basic_stringIcNS_11char_traitsIcEENS_9allocatorIcEEEEEEPKNS2_9EqMatcherIS9_EEEEEONS_13tuple_elementIXT_ENS_5tupleIJDpT0_EEEE4typeEOSL_
FNA:1,0,_ZNSt3__13getB8ne190102ILm0EJPKN7testing8internal11MatcherBaseINS_17basic_string_viewIcNS_11char_traitsIcEEEEEEPKNS2_9EqMatcherINS_12basic_stringIcS6_NS_9allocatorIcEEEEEEEEEONS_13tuple_elementIXT_ENS_5tupleIJDpT0_EEEE4typeEOSN_
FNA:1,0,_ZNSt3__13getB8ne190102ILm0EJPKN7testing8internal11MatcherBaseIRKNS_12basic_stringIcNS_11char_traitsIcEENS_9allocatorIcEEEEEEPKNS2_9EqMatcherIS9_EEEEEONS_13tuple_elementIXT_ENS_5tupleIJDpT0_EEEE4typeEOSN_
FNA:1,0,_ZNSt3__13getB8ne190102ILm0EJPKN7testing8internal11MatcherBaseIRKNS_17basic_string_viewIcNS_11char_traitsIcEEEEEEPKNS2_9EqMatcherINS_12basic_stringIcS6_NS_9allocatorIcEEEEEEEEEONS_13tuple_elementIXT_ENS_5tupleIJDpT0_EEEE4typeEOSP_
FNL:2,1123
FNA:2,0,_ZNSt3__110make_tupleB8ne190102IJPKN7testing8internal11MatcherBaseINS_12basic_stringIcNS_11char_traitsIcEENS_9allocatorIcEEEEEEPKNS2_9EqMatcherIS9_EEEEENS_5tupleIJDpNS_18__unwrap_ref_decayIT_E4typeEEEEDpOSJ_
FNA:2,0,_ZNSt3__110make_tupleB8ne190102IJPKN7testing8internal11MatcherBaseINS_17basic_string_viewIcNS_11char_traitsIcEEEEEEPKNS2_9EqMatcherINS_12basic_stringIcS6_NS_9allocatorIcEEEEEEEEENS_5tupleIJDpNS_18__unwrap_ref_decayIT_E4typeEEEEDpOSL_
FNA:2,0,_ZNSt3__110make_tupleB8ne190102IJPKN7testing8internal11MatcherBaseIRKNS_12basic_stringIcNS_11char_traitsIcEENS_9allocatorIcEEEEEEPKNS2_9EqMatcherIS9_EEEEENS_5tupleIJDpNS_18__unwrap_ref_decayIT_E4typeEEEEDpOSL_
FNA:2,0,_ZNSt3__110make_tupleB8ne190102IJPKN7testing8internal11MatcherBaseIRKNS_17basic_string_viewIcNS_11char_traitsIcEEEEEEPKNS2_9EqMatcherINS_12basic_stringIcS6_NS_9allocatorIcEEEEEEEEENS_5tupleIJDpNS_18__unwrap_ref_decayIT_E4typeEEEEDpOSN_
FNL:3,1128
FNA:3,0,_ZNSt3__116forward_as_tupleB8ne190102IJEEENS_5tupleIJDpOT_EEES4_
FNA:3,0,_ZNSt3__116forward_as_tupleB8ne190102IJRKNS_12basic_stringIcNS_11char_traitsIcEENS_9allocatorIcEEEEEEENS_5tupleIJDpOT_EEESC_
FNL:4,339
FNA:4,0,_ZNSt3__112__tuple_leafILm0EPKN7testing8internal11MatcherBaseINS_12basic_stringIcNS_11char_traitsIcEENS_9allocatorIcEEEEEELb0EEC2B8ne190102ISC_Li0EEEOT_
FNA:4,0,_ZNSt3__112__tuple_leafILm0EPKN7testing8internal11MatcherBaseINS_17basic_string_viewIcNS_11char_traitsIcEEEEEELb0EEC2B8ne190102ISA_Li0EEEOT_
FNA:4,0,_ZNSt3__112__tuple_leafILm0EPKN7testing8internal11MatcherBaseIRKNS_12basic_stringIcNS_11char_traitsIcEENS_9allocatorIcEEEEEELb0EEC2B8ne190102ISE_Li0EEEOT_
FNA:4,0,_ZNSt3__112__tuple_leafILm0EPKN7testing8internal11MatcherBaseIRKNS_17basic_string_viewIcNS_11char_traitsIcEEEEEELb0EEC2B8ne190102ISC_Li0EEEOT_
FNA:4,0,_ZNSt3__112__tuple_leafILm0ERKNS_12basic_stringIcNS_11char_traitsIcEENS_9allocatorIcEEEELb0EEC2B8ne190102IS8_Li0EEEOT_
FNA:4,0,_ZNSt3__112__tuple_leafILm1EPKN7testing8internal9EqMatcherINS_12basic_stringIcNS_11char_traitsIcEENS_9allocatorIcEEEEEELb0EEC2B8ne190102ISC_Li0EEEOT_
FNL:5,382
FNA:5,0,_ZNSt3__112__tuple_leafILm0EPKN7testing8internal11MatcherBaseINS_12basic_stringIcNS_11char_traitsIcEENS_9allocatorIcEEEEEELb0EE3getB8ne190102Ev
FNA:5,0,_ZNSt3__112__tuple_leafILm0EPKN7testing8internal11MatcherBaseINS_17basic_string_viewIcNS_11char_traitsIcEEEEEELb0EE3getB8ne190102Ev
FNA:5,0,_ZNSt3__112__tuple_leafILm0EPKN7testing8internal11MatcherBaseIRKNS_12basic_stringIcNS_11char_traitsIcEENS_9allocatorIcEEEEEELb0EE3getB8ne190102Ev
FNA:5,0,_ZNSt3__112__tuple_leafILm0EPKN7testing8internal11MatcherBaseIRKNS_17basic_string_viewIcNS_11char_traitsIcEEEEEELb0EE3getB8ne190102Ev
FNA:5,0,_ZNSt3__112__tuple_leafILm0ERKNS_12basic_stringIcNS_11char_traitsIcEENS_9allocatorIcEEEELb0EE3getB8ne190102Ev
FNL:6,464
FNA:6,0,_ZNSt3__112__tuple_implINS_15__tuple_indicesIJLm0EEEEJRKNS_12basic_stringIcNS_11char_traitsIcEENS_9allocatorIcEEEEEEC1B8ne190102IJLm0EEJSA_EJEJEJSA_EEENS1_IJXspT_EEEENS_13__tuple_typesIJDpT0_EEENS1_IJXspT1_EEEENSE_IJDpT2_EEEDpOT3_
FNA:6,0,_ZNSt3__112__tuple_implINS_15__tuple_indicesIJLm0EEEEJRKNS_12basic_stringIcNS_11char_traitsIcEENS_9allocatorIcEEEEEEC2B8ne190102IJLm0EEJSA_EJEJEJSA_EEENS1_IJXspT_EEEENS_13__tuple_typesIJDpT0_EEENS1_IJXspT1_EEEENSE_IJDpT2_EEEDpOT3_
FNA:6,0,_ZNSt3__112__tuple_implINS_15__tuple_indicesIJLm0ELm1EEEEJPKN7testing8internal11MatcherBaseINS_12basic_stringIcNS_11char_traitsIcEENS_9allocatorIcEEEEEEPKNS4_9EqMatcherISB_EEEEC1B8ne190102IJLm0ELm1EEJSE_SI_EJEJEJSE_SI_EEENS1_IJXspT_EEEENS_13__tuple_typesIJDpT0_EEENS1_IJXspT1_EEEENSM_IJDpT2_EEEDpOT3_
FNA:6,0,_ZNSt3__112__tuple_implINS_15__tuple_indicesIJLm0ELm1EEEEJPKN7testing8internal11MatcherBaseINS_12basic_stringIcNS_11char_traitsIcEENS_9allocatorIcEEEEEEPKNS4_9EqMatcherISB_EEEEC2B8ne190102IJLm0ELm1EEJSE_SI_EJEJEJSE_SI_EEENS1_IJXspT_EEEENS_13__tuple_typesIJDpT0_EEENS1_IJXspT1_EEEENSM_IJDpT2_EEEDpOT3_
FNA:6,0,_ZNSt3__112__tuple_implINS_15__tuple_indicesIJLm0ELm1EEEEJPKN7testing8internal11MatcherBaseINS_17basic_string_viewIcNS_11char_traitsIcEEEEEEPKNS4_9EqMatcherINS_12basic_stringIcS8_NS_9allocatorIcEEEEEEEEC1B8ne190102IJLm0ELm1EEJSC_SK_EJEJEJSC_SK_EEENS1_IJXspT_EEEENS_13__tuple_typesIJDpT0_EEENS1_IJXspT1_EEEENSO_IJDpT2_EEEDpOT3_
FNA:6,0,_ZNSt3__112__tuple_implINS_15__tuple_indicesIJLm0ELm1EEEEJPKN7testing8internal11MatcherBaseINS_17basic_string_viewIcNS_11char_traitsIcEEEEEEPKNS4_9EqMatcherINS_12basic_stringIcS8_NS_9allocatorIcEEEEEEEEC2B8ne190102IJLm0ELm1EEJSC_SK_EJEJEJSC_SK_EEENS1_IJXspT_EEEENS_13__tuple_typesIJDpT0_EEENS1_IJXspT1_EEEENSO_IJDpT2_EEEDpOT3_
FNA:6,0,_ZNSt3__112__tuple_implINS_15__tuple_indicesIJLm0ELm1EEEEJPKN7testing8internal11MatcherBaseIRKNS_12basic_stringIcNS_11char_traitsIcEENS_9allocatorIcEEEEEEPKNS4_9EqMatcherISB_EEEEC1B8ne190102IJLm0ELm1EEJSG_SK_EJEJEJSG_SK_EEENS1_IJXspT_EEEENS_13__tuple_typesIJDpT0_EEENS1_IJXspT1_EEEENSO_IJDpT2_EEEDpOT3_
FNA:6,0,_ZNSt3__112__tuple_implINS_15__tuple_indicesIJLm0ELm1EEEEJPKN7testing8internal11MatcherBaseIRKNS_12basic_stringIcNS_11char_traitsIcEENS_9allocatorIcEEEEEEPKNS4_9EqMatcherISB_EEEEC2B8ne190102IJLm0ELm1EEJSG_SK_EJEJEJSG_SK_EEENS1_IJXspT_EEEENS_13__tuple_typesIJDpT0_EEENS1_IJXspT1_EEEENSO_IJDpT2_EEEDpOT3_
FNA:6,0,_ZNSt3__112__tuple_implINS_15__tuple_indicesIJLm0ELm1EEEEJPKN7testing8internal11MatcherBaseIRKNS_17basic_string_viewIcNS_11char_traitsIcEEEEEEPKNS4_9EqMatcherINS_12basic_stringIcS8_NS_9allocatorIcEEEEEEEEC1B8ne190102IJLm0ELm1EEJSE_SM_EJEJEJSE_SM_EEENS1_IJXspT_EEEENS_13__tuple_typesIJDpT0_EEENS1_IJXspT1_EEEENSQ_IJDpT2_EEEDpOT3_
FNA:6,0,_ZNSt3__112__tuple_implINS_15__tuple_indicesIJLm0ELm1EEEEJPKN7testing8internal11MatcherBaseIRKNS_17basic_string_viewIcNS_11char_traitsIcEEEEEEPKNS4_9EqMatcherINS_12basic_stringIcS8_NS_9allocatorIcEEEEEEEEC2B8ne190102IJLm0ELm1EEJSE_SM_EJEJEJSE_SM_EEENS1_IJXspT_EEEENS_13__tuple_typesIJDpT0_EEENS1_IJXspT1_EEEENSQ_IJDpT2_EEEDpOT3_
FNL:7,578
FNA:7,0,_ZNSt3__15tupleIJRKNS_12basic_stringIcNS_11char_traitsIcEENS_9allocatorIcEEEEEEC1B8ne190102INS_4_AndELi0EEES8_
FNA:7,0,_ZNSt3__15tupleIJRKNS_12basic_stringIcNS_11char_traitsIcEENS_9allocatorIcEEEEEEC2B8ne190102INS_4_AndELi0EEES8_
FNL:8,615
FNA:8,0,_ZNSt3__15tupleIJPKN7testing8internal11MatcherBaseINS_12basic_stringIcNS_11char_traitsIcEENS_9allocatorIcEEEEEEPKNS2_9EqMatcherIS9_EEEEC1B8ne190102IJSC_SG_ELi0EEEDpOT_
FNA:8,0,_ZNSt3__15tupleIJPKN7testing8internal11MatcherBaseINS_12basic_stringIcNS_11char_traitsIcEENS_9allocatorIcEEEEEEPKNS2_9EqMatcherIS9_EEEEC2B8ne190102IJSC_SG_ELi0EEEDpOT_
FNA:8,0,_ZNSt3__15tupleIJPKN7testing8internal11MatcherBaseINS_17basic_string_viewIcNS_11char_traitsIcEEEEEEPKNS2_9EqMatcherINS_12basic_stringIcS6_NS_9allocatorIcEEEEEEEEC1B8ne190102IJSA_SI_ELi0EEEDpOT_
FNA:8,0,_ZNSt3__15tupleIJPKN7testing8internal11MatcherBaseINS_17basic_string_viewIcNS_11char_traitsIcEEEEEEPKNS2_9EqMatcherINS_12basic_stringIcS6_NS_9allocatorIcEEEEEEEEC2B8ne190102IJSA_SI_ELi0EEEDpOT_
FNA:8,0,_ZNSt3__15tupleIJPKN7testing8internal11MatcherBaseIRKNS_12basic_stringIcNS_11char_traitsIcEENS_9allocatorIcEEEEEEPKNS2_9EqMatcherIS9_EEEEC1B8ne190102IJSE_SI_ELi0EEEDpOT_
FNA:8,0,_ZNSt3__15tupleIJPKN7testing8internal11MatcherBaseIRKNS_12basic_stringIcNS_11char_traitsIcEENS_9allocatorIcEEEEEEPKNS2_9EqMatcherIS9_EEEEC2B8ne190102IJSE_SI_ELi0EEEDpOT_
FNA:8,0,_ZNSt3__15tupleIJPKN7testing8internal11MatcherBaseIRKNS_17basic_string_viewIcNS_11char_traitsIcEEEEEEPKNS2_9EqMatcherINS_12basic_stringIcS6_NS_9allocatorIcEEEEEEEEC1B8ne190102IJSC_SK_ELi0EEEDpOT_
FNA:8,0,_ZNSt3__15tupleIJPKN7testing8internal11MatcherBaseIRKNS_17basic_string_viewIcNS_11char_traitsIcEEEEEEPKNS2_9EqMatcherINS_12basic_stringIcS6_NS_9allocatorIcEEEEEEEEC2B8ne190102IJSC_SK_ELi0EEEDpOT_
FNF:9
FNH:0
DA:339,0
DA:340,0
DA:343,0
DA:382,0
DA:464,0
DA:471,0
DA:578,0
DA:579,0
DA:583,0
DA:615,0
DA:616,0
DA:620,0
DA:1064,0
DA:1066,0
DA:1078,0
DA:1080,0
DA:1123,0
DA:1124,0
DA:1128,0
DA:1129,0
LF:20
LH:0
end_of_record
TN:
SF:/Library/Developer/CommandLineTools/SDKs/MacOSX.sdk/usr/include/c++/v1/unordered_map
FNL:0,1088
FNA:0,1,_ZNSt3__113unordered_mapINS_12basic_stringIcNS_11char_traitsIcEENS_9allocatorIcEEEEPN7testing9TestSuiteENS_4hashIS6_EENS_8equal_toIS6_EENS4_INS_4pairIKS6_S9_EEEEEC1B8ne190102Ev
FNA:0,1,_ZNSt3__113unordered_mapINS_12basic_stringIcNS_11char_traitsIcEENS_9allocatorIcEEEEPN7testing9TestSuiteENS_4hashIS6_EENS_8equal_toIS6_EENS4_INS_4pairIKS6_S9_EEEEEC2B8ne190102Ev
FNA:0,1,_ZNSt3__113unordered_mapINS_12basic_stringIcNS_11char_traitsIcEENS_9allocatorIcEEEEmNS_4hashIS6_EENS_8equal_toIS6_EENS4_INS_4pairIKS6_mEEEEEC1B8ne190102Ev
FNA:0,1,_ZNSt3__113unordered_mapINS_12basic_stringIcNS_11char_traitsIcEENS_9allocatorIcEEEEmNS_4hashIS6_EENS_8equal_toIS6_EENS4_INS_4pairIKS6_mEEEEEC2B8ne190102Ev
FNL:1,1178
FNA:1,0,_ZNSt3__113unordered_mapINS_12basic_stringIcNS_11char_traitsIcEENS_9allocatorIcEEEEPN7testing9TestSuiteENS_4hashIS6_EENS_8equal_toIS6_EENS4_INS_4pairIKS6_S9_EEEEED1B8ne190102Ev
FNA:1,0,_ZNSt3__113unordered_mapINS_12basic_stringIcNS_11char_traitsIcEENS_9allocatorIcEEEEPN7testing9TestSuiteENS_4hashIS6_EENS_8equal_toIS6_EENS4_INS_4pairIKS6_S9_EEEEED2B8ne190102Ev
FNA:1,0,_ZNSt3__113unordered_mapINS_12basic_stringIcNS_11char_traitsIcEENS_9allocatorIcEEEEmNS_4hashIS6_EENS_8equal_toIS6_EENS4_INS_4pairIKS6_mEEEEED1B8ne190102Ev
FNA:1,0,_ZNSt3__113unordered_mapINS_12basic_stringIcNS_11char_traitsIcEENS_9allocatorIcEEEEmNS_4hashIS6_EENS_8equal_toIS6_EENS4_INS_4pairIKS6_mEEEEED2B8ne190102Ev
FNL:2,1212
FNA:2,4,_ZNSt3__113unordered_mapINS_12basic_stringIcNS_11char_traitsIcEENS_9allocatorIcEEEEPN7testing9TestSuiteENS_4hashIS6_EENS_8equal_toIS6_EENS4_INS_4pairIKS6_S9_EEEEE3endB8ne190102Ev
FNL:3,1256
FNA:3,4,_ZNSt3__113unordered_mapINS_12basic_stringIcNS_11char_traitsIcEENS_9allocatorIcEEEEPN7testing9TestSuiteENS_4hashIS6_EENS_8equal_toIS6_EENS4_INS_4pairIKS6_S9_EEEEE7emplaceB8ne190102IJRSF_RKS9_EEENSE_INS_19__hash_map_iteratorINS_15__hash_iteratorIPNS_11__hash_nodeINS_17__hash_value_typeIS6_S9_EEPvEEEEEEbEEDpOT_
FNL:4,1381
FNA:4,4,_ZNSt3__113unordered_mapINS_12basic_stringIcNS_11char_traitsIcEENS_9allocatorIcEEEEPN7testing9TestSuiteENS_4hashIS6_EENS_8equal_toIS6_EENS4_INS_4pairIKS6_S9_EEEEE4findB8ne190102ERSF_
FNL:5,641
FNA:5,1,_ZNSt3__122__unordered_map_hasherINS_12basic_stringIcNS_11char_traitsIcEENS_9allocatorIcEEEENS_17__hash_value_typeIS6_PN7testing9TestSuiteEEENS_4hashIS6_EENS_8equal_toIS6_EELb1EEC2B8ne190102Ev
FNA:5,1,_ZNSt3__122__unordered_map_hasherINS_12basic_stringIcNS_11char_traitsIcEENS_9allocatorIcEEEENS_17__hash_value_typeIS6_mEENS_4hashIS6_EENS_8equal_toIS6_EELb1EEC2B8ne190102Ev
FNL:6,648
FNA:6,8,_ZNKSt3__122__unordered_map_hasherINS_12basic_stringIcNS_11char_traitsIcEENS_9allocatorIcEEEENS_17__hash_value_typeIS6_PN7testing9TestSuiteEEENS_4hashIS6_EENS_8equal_toIS6_EELb1EEclB8ne190102ERKS6_
FNL:7,699
FNA:7,1,_ZNSt3__121__unordered_map_equalINS_12basic_stringIcNS_11char_traitsIcEENS_9allocatorIcEEEENS_17__hash_value_typeIS6_PN7testing9TestSuiteEEENS_8equal_toIS6_EENS_4hashIS6_EELb1EEC2B8ne190102Ev
FNA:7,1,_ZNSt3__121__unordered_map_equalINS_12basic_stringIcNS_11char_traitsIcEENS_9allocatorIcEEEENS_17__hash_value_typeIS6_mEENS_8equal_toIS6_EENS_4hashIS6_EELb1EEC2B8ne190102Ev
FNL:8,706
FNA:8,0,_ZNKSt3__121__unordered_map_equalINS_12basic_stringIcNS_11char_traitsIcEENS_9allocatorIcEEEENS_17__hash_value_typeIS6_PN7testing9TestSuiteEEENS_8equal_toIS6_EENS_4hashIS6_EELb1EEclB8ne190102ERKSB_RKS6_
FNL:9,845
FNA:9,4,_ZNSt3__117__hash_value_typeINS_12basic_stringIcNS_11char_traitsIcEENS_9allocatorIcEEEEPN7testing9TestSuiteEE11__get_valueB8ne190102Ev
FNA:9,0,_ZNSt3__117__hash_value_typeINS_12basic_stringIcNS_11char_traitsIcEENS_9allocatorIcEEEEmE11__get_valueB8ne190102Ev
FNL:10,853
FNA:10,0,_ZNKSt3__117__hash_value_typeINS_12basic_stringIcNS_11char_traitsIcEENS_9allocatorIcEEEEPN7testing9TestSuiteEE11__get_valueB8ne190102Ev
FNL:11,930
FNA:11,12,_ZNSt3__119__hash_map_iteratorINS_15__hash_iteratorIPNS_11__hash_nodeINS_17__hash_value_typeINS_12basic_stringIcNS_11char_traitsIcEENS_9allocatorIcEEEEPN7testing9TestSuiteEEEPvEEEEEC1B8ne190102ESH_
FNA:11,12,_ZNSt3__119__hash_map_iteratorINS_15__hash_iteratorIPNS_11__hash_nodeINS_17__hash_value_typeINS_12basic_stringIcNS_11char_traitsIcEENS_9allocatorIcEEEEPN7testing9TestSuiteEEEPvEEEEEC2B8ne190102ESH_
FNL:12,933
FNA:12,0,_ZNKSt3__119__hash_map_iteratorINS_15__hash_iteratorIPNS_11__hash_nodeINS_17__hash_value_typeINS_12basic_stringIcNS_11char_traitsIcEENS_9allocatorIcEEEEPN7testing9TestSuiteEEEPvEEEEEptB8ne190102Ev
FNL:13,949
FNA:13,4,_ZNSt3__1neB8ne190102ERKNS_19__hash_map_iteratorINS_15__hash_iteratorIPNS_11__hash_nodeINS_17__hash_value_typeINS_12basic_stringIcNS_11char_traitsIcEENS_9allocatorIcEEEEPN7testing9TestSuiteEEEPvEEEEEESK_
FNF:14
FNH:10
DA:641,2
DA:648,8
DA:699,2
DA:706,0
DA:707,0
DA:845,4
DA:847,4
DA:853,0
DA:855,0
DA:930,24
DA:933,0
DA:949,4
DA:950,4
DA:1088,4
DA:1178,0
DA:1180,0
DA:1212,4
DA:1256,4
DA:1257,4
DA:1381,4
LF:20
LH:13
end_of_record
TN:
SF:/Library/Developer/CommandLineTools/SDKs/MacOSX.sdk/usr/include/c++/v1/unordered_set
FNL:0,1116
FNA:0,2,_ZNSt3__113unordered_setINS_12basic_stringIcNS_11char_traitsIcEENS_9allocatorIcEEEENS_4hashIS6_EENS_8equal_toIS6_EENS4_IS6_EEEaSEOSC_
FNL:1,623
FNA:1,11,_ZNSt3__113unordered_setINS_12basic_stringIcNS_11char_traitsIcEENS_9allocatorIcEEEENS_4hashIS6_EENS_8equal_toIS6_EENS4_IS6_EEEC1B8ne190102Ev
FNA:1,11,_ZNSt3__113unordered_setINS_12basic_stringIcNS_11char_traitsIcEENS_9allocatorIcEEEENS_4hashIS6_EENS_8equal_toIS6_EENS4_IS6_EEEC2B8ne190102Ev
FNL:2,718
FNA:2,11,_ZNSt3__113unordered_setINS_12basic_stringIcNS_11char_traitsIcEENS_9allocatorIcEEEENS_4hashIS6_EENS_8equal_toIS6_EENS4_IS6_EEED1B8ne190102Ev
FNA:2,11,_ZNSt3__113unordered_setINS_12basic_stringIcNS_11char_traitsIcEENS_9allocatorIcEEEENS_4hashIS6_EENS_8equal_toIS6_EENS4_IS6_EEED2B8ne190102Ev
FNL:3,740
FNA:3,7,_ZNSt3__113unordered_setINS_12basic_stringIcNS_11char_traitsIcEENS_9allocatorIcEEEENS_4hashIS6_EENS_8equal_toIS6_EENS4_IS6_EEE5beginB8ne190102Ev
FNL:4,743
FNA:4,54,_ZNKSt3__113unordered_setINS_12basic_stringIcNS_11char_traitsIcEENS_9allocatorIcEEEENS_4hashIS6_EENS_8equal_toIS6_EENS4_IS6_EEE3endB8ne190102Ev
FNL:5,757
FNA:5,0,_ZNSt3__113unordered_setINS_12basic_stringIcNS_11char_traitsIcEENS_9allocatorIcEEEENS_4hashIS6_EENS_8equal_toIS6_EENS4_IS6_EEE6insertB8ne190102EOS6_
FNL:6,760
FNA:6,0,_ZNSt3__113unordered_setINS_12basic_stringIcNS_11char_traitsIcEENS_9allocatorIcEEEENS_4hashIS6_EENS_8equal_toIS6_EENS4_IS6_EEE6insertB8ne190102ENS_21__hash_const_iteratorIPNS_11__hash_nodeIS6_PvEEEEOS6_
FNL:7,838
FNA:7,54,_ZNKSt3__113unordered_setINS_12basic_stringIcNS_11char_traitsIcEENS_9allocatorIcEEEENS_4hashIS6_EENS_8equal_toIS6_EENS4_IS6_EEE4findB8ne190102ERKS6_
FNF:8
FNH:6
DA:623,22
DA:718,22
DA:720,22
DA:740,7
DA:743,54
DA:757,0
DA:758,0
DA:760,0
DA:838,54
DA:1116,2
DA:1118,2
DA:1119,2
LF:12
LH:9
end_of_record
TN:
SF:/Library/Developer/CommandLineTools/SDKs/MacOSX.sdk/usr/include/c++/v1/vector
FNL:0,1001
FNA:0,0,_ZNKSt3__16vectorIN7testing12TestPropertyENS_9allocatorIS2_EEE20__throw_out_of_rangeB8ne190102Ev
FNA:0,0,_ZNKSt3__16vectorIN7testing14TestPartResultENS_9allocatorIS2_EEE20__throw_out_of_rangeB8ne190102Ev
FNL:1,1015
FNA:1,2,_ZNSt3__16vectorINS_12basic_stringIcNS_11char_traitsIcEENS_9allocatorIcEEEENS4_IS6_EEE19__move_assign_allocB8ne190102ERS8_NS_17integral_constantIbLb1EEE
FNL:2,1049
FNA:2,0,_ZNSt3__16vectorIN7testing12TestPropertyENS_9allocatorIS2_EEE26__swap_out_circular_bufferERNS_14__split_bufferIS2_RS4_EE
FNA:2,0,_ZNSt3__16vectorIN7testing14TestPartResultENS_9allocatorIS2_EEE26__swap_out_circular_bufferERNS_14__split_bufferIS2_RS4_EE
FNA:2,0,_ZNSt3__16vectorIN7testing8internal13edit_distance8EditTypeENS_9allocatorIS4_EEE26__swap_out_circular_bufferERNS_14__split_bufferIS4_RS6_EE
FNA:2,0,_ZNSt3__16vectorIN7testing8internal9TraceInfoENS_9allocatorIS3_EEE26__swap_out_circular_bufferERNS_14__split_bufferIS3_RS5_EE
FNA:2,22,_ZNSt3__16vectorINS_12basic_stringIcNS_11char_traitsIcEENS_9allocatorIcEEEENS4_IS6_EEE26__swap_out_circular_bufferERNS_14__split_bufferIS6_RS7_EE
FNA:2,0,_ZNSt3__16vectorIPN7testing11EnvironmentENS_9allocatorIS3_EEE26__swap_out_circular_bufferERNS_14__split_bufferIS3_RS5_EE
FNA:2,1,_ZNSt3__16vectorIPN7testing17TestEventListenerENS_9allocatorIS3_EEE26__swap_out_circular_bufferERNS_14__split_bufferIS3_RS5_EE
FNA:2,10,_ZNSt3__16vectorIPN7testing8TestInfoENS_9allocatorIS3_EEE26__swap_out_circular_bufferERNS_14__split_bufferIS3_RS5_EE
FNA:2,3,_ZNSt3__16vectorIPN7testing9TestSuiteENS_9allocatorIS3_EEE26__swap_out_circular_bufferERNS_14__split_bufferIS3_RS5_EE
FNA:2,0,_ZNSt3__16vectorIPcNS_9allocatorIS1_EEE26__swap_out_circular_bufferERNS_14__split_bufferIS1_RS3_EE
FNA:2,13,_ZNSt3__16vectorIiNS_9allocatorIiEEE26__swap_out_circular_bufferERNS_14__split_bufferIiRS2_EE
FNA:2,0,_ZNSt3__16vectorImNS_9allocatorImEEE26__swap_out_circular_bufferERNS_14__split_bufferImRS2_EE
FNL:3,1069
FNA:3,0,_ZNSt3__16vectorINS_12basic_stringIcNS_11char_traitsIcEENS_9allocatorIcEEEENS4_IS6_EEE26__swap_out_circular_bufferERNS_14__split_bufferIS6_RS7_EEPS6_
FNA:3,0,_ZNSt3__16vectorIPN7testing9TestSuiteENS_9allocatorIS3_EEE26__swap_out_circular_bufferERNS_14__split_bufferIS3_RS5_EEPS3_
FNL:4,1095
FNA:4,2,_ZNSt3__16vectorINS_12basic_stringIcNS_11char_traitsIcEENS_9allocatorIcEEEENS4_IS6_EEE13__vdeallocateEv
FNL:5,1106
FNA:5,0,_ZNKSt3__16vectorIN7testing12TestPropertyENS_9allocatorIS2_EEE8max_sizeEv
FNA:5,0,_ZNKSt3__16vectorIN7testing14TestPartResultENS_9allocatorIS2_EEE8max_sizeEv
FNA:5,0,_ZNKSt3__16vectorIN7testing8internal13edit_distance8EditTypeENS_9allocatorIS4_EEE8max_sizeEv
FNA:5,0,_ZNKSt3__16vectorIN7testing8internal9TraceInfoENS_9allocatorIS3_EEE8max_sizeEv
FNA:5,0,_ZNKSt3__16vectorINS0_IN7testing8internal13edit_distance8EditTypeENS_9allocatorIS4_EEEENS5_IS7_EEE8max_sizeEv
FNA:5,0,_ZNKSt3__16vectorINS0_IdNS_9allocatorIdEEEENS1_IS3_EEE8max_sizeEv
FNA:5,23,_ZNKSt3__16vectorINS_12basic_stringIcNS_11char_traitsIcEENS_9allocatorIcEEEENS4_IS6_EEE8max_sizeEv
FNA:5,0,_ZNKSt3__16vectorIPN7testing11EnvironmentENS_9allocatorIS3_EEE8max_sizeEv
FNA:5,1,_ZNKSt3__16vectorIPN7testing17TestEventListenerENS_9allocatorIS3_EEE8max_sizeEv
FNA:5,10,_ZNKSt3__16vectorIPN7testing8TestInfoENS_9allocatorIS3_EEE8max_sizeEv
FNA:5,3,_ZNKSt3__16vectorIPN7testing9TestSuiteENS_9allocatorIS3_EEE8max_sizeEv
FNA:5,0,_ZNKSt3__16vectorIPcNS_9allocatorIS1_EEE8max_sizeEv
FNA:5,0,_ZNKSt3__16vectorIdNS_9allocatorIdEEE8max_sizeEv
FNA:5,13,_ZNKSt3__16vectorIiNS_9allocatorIiEEE8max_sizeEv
FNA:5,0,_ZNKSt3__16vectorImNS_9allocatorImEEE8max_sizeEv
FNL:6,1113
FNA:6,0,_ZNKSt3__16vectorIN7testing12TestPropertyENS_9allocatorIS2_EEE11__recommendB8ne190102Em
FNA:6,0,_ZNKSt3__16vectorIN7testing14TestPartResultENS_9allocatorIS2_EEE11__recommendB8ne190102Em
FNA:6,0,_ZNKSt3__16vectorIN7testing8internal13edit_distance8EditTypeENS_9allocatorIS4_EEE11__recommendB8ne190102Em
FNA:6,0,_ZNKSt3__16vectorIN7testing8internal9TraceInfoENS_9allocatorIS3_EEE11__recommendB8ne190102Em
FNA:6,15,_ZNKSt3__16vectorINS_12basic_stringIcNS_11char_traitsIcEENS_9allocatorIcEEEENS4_IS6_EEE11__recommendB8ne190102Em
FNA:6,0,_ZNKSt3__16vectorIPN7testing11EnvironmentENS_9allocatorIS3_EEE11__recommendB8ne190102Em
FNA:6,1,_ZNKSt3__16vectorIPN7testing17TestEventListenerENS_9allocatorIS3_EEE11__recommendB8ne190102Em
FNA:6,10,_ZNKSt3__16vectorIPN7testing8TestInfoENS_9allocatorIS3_EEE11__recommendB8ne190102Em
FNA:6,3,_ZNKSt3__16vectorIPN7testing9TestSuiteENS_9allocatorIS3_EEE11__recommendB8ne190102Em
FNA:6,0,_ZNKSt3__16vectorIPcNS_9allocatorIS1_EEE11__recommendB8ne190102Em
FNA:6,13,_ZNKSt3__16vectorIiNS_9allocatorIiEEE11__recommendB8ne190102Em
FNA:6,0,_ZNKSt3__16vectorImNS_9allocatorImEEE11__recommendB8ne190102Em
FNL:7,1129
FNA:7,0,_ZNSt3__16vectorIN7testing8internal13edit_distance8EditTypeENS_9allocatorIS4_EEE18__construct_at_endEm
FNA:7,0,_ZNSt3__16vectorIdNS_9allocatorIdEEE18__construct_at_endEm
FNL:8,1145
FNA:8,0,_ZNSt3__16vectorINS0_IN7testing8internal13edit_distance8EditTypeENS_9allocatorIS4_EEEENS5_IS7_EEE18__construct_at_endEmRKS7_
FNA:8,0,_ZNSt3__16vectorINS0_IdNS_9allocatorIdEEEENS1_IS3_EEE18__construct_at_endEmRKS3_
FNL:9,1156
FNA:9,0,_ZNSt3__16vectorIN7testing8internal13edit_distance8EditTypeENS_9allocatorIS4_EEE18__construct_at_endIPS4_S9_EEvT_T0_m
FNA:9,0,_ZNSt3__16vectorINS_12basic_stringIcNS_11char_traitsIcEENS_9allocatorIcEEEENS4_IS6_EEE18__construct_at_endINS_11__wrap_iterIPKS6_EESD_EEvT_T0_m
FNA:9,0,_ZNSt3__16vectorINS_12basic_stringIcNS_11char_traitsIcEENS_9allocatorIcEEEENS4_IS6_EEE18__construct_at_endIPKPKcSD_EEvT_T0_m
FNA:9,1,_ZNSt3__16vectorINS_12basic_stringIcNS_11char_traitsIcEENS_9allocatorIcEEEENS4_IS6_EEE18__construct_at_endIPS6_SA_EEvT_T0_m
FNA:9,0,_ZNSt3__16vectorIdNS_9allocatorIdEEE18__construct_at_endIPdS5_EEvT_T0_m
FNL:10,1218
FNA:10,0,_ZNSt3__16vectorINS_12basic_stringIcNS_11char_traitsIcEENS_9allocatorIcEEEENS4_IS6_EEEC1INS_11__wrap_iterIPKS6_EELi0EEET_SE_
FNA:10,0,_ZNSt3__16vectorINS_12basic_stringIcNS_11char_traitsIcEENS_9allocatorIcEEEENS4_IS6_EEEC1IPKPKcLi0EEET_SE_
FNA:10,0,_ZNSt3__16vectorINS_12basic_stringIcNS_11char_traitsIcEENS_9allocatorIcEEEENS4_IS6_EEEC2INS_11__wrap_iterIPKS6_EELi0EEET_SE_
FNA:10,0,_ZNSt3__16vectorINS_12basic_stringIcNS_11char_traitsIcEENS_9allocatorIcEEEENS4_IS6_EEEC2IPKPKcLi0EEET_SE_
FNL:11,1236
FNA:11,0,_ZNSt3__16vectorIN7testing8internal13edit_distance8EditTypeENS_9allocatorIS4_EEEC1ERKS7_
FNA:11,0,_ZNSt3__16vectorIN7testing8internal13edit_distance8EditTypeENS_9allocatorIS4_EEEC2ERKS7_
FNA:11,2,_ZNSt3__16vectorINS_12basic_stringIcNS_11char_traitsIcEENS_9allocatorIcEEEENS4_IS6_EEEC1ERKS8_
FNA:11,2,_ZNSt3__16vectorINS_12basic_stringIcNS_11char_traitsIcEENS_9allocatorIcEEEENS4_IS6_EEEC2ERKS8_
FNA:11,0,_ZNSt3__16vectorIdNS_9allocatorIdEEEC1ERKS3_
FNA:11,0,_ZNSt3__16vectorIdNS_9allocatorIdEEEC2ERKS3_
FNL:12,1308
FNA:12,2,_ZNSt3__16vectorINS_12basic_stringIcNS_11char_traitsIcEENS_9allocatorIcEEEENS4_IS6_EEEaSB8ne190102EOS8_
FNL:13,1325
FNA:13,2,_ZNSt3__16vectorINS_12basic_stringIcNS_11char_traitsIcEENS_9allocatorIcEEEENS4_IS6_EEE13__move_assignERS8_NS_17integral_constantIbLb1EEE
FNL:14,1411
FNA:14,0,_ZNSt3__16vectorIN7testing12TestPropertyENS_9allocatorIS2_EEE5beginB8ne190102Ev
FNA:14,0,_ZNSt3__16vectorIN7testing8internal13edit_distance8EditTypeENS_9allocatorIS4_EEE5beginB8ne190102Ev
FNA:14,40,_ZNSt3__16vectorINS_12basic_stringIcNS_11char_traitsIcEENS_9allocatorIcEEEENS4_IS6_EEE5beginB8ne190102Ev
FNA:14,1,_ZNSt3__16vectorIPN7testing11EnvironmentENS_9allocatorIS3_EEE5beginB8ne190102Ev
FNA:14,0,_ZNSt3__16vectorIPN7testing17TestEventListenerENS_9allocatorIS3_EEE5beginB8ne190102Ev
FNA:14,9,_ZNSt3__16vectorIPN7testing8TestInfoENS_9allocatorIS3_EEE5beginB8ne190102Ev
FNA:14,1,_ZNSt3__16vectorIPN7testing8internal30ParameterizedTestSuiteInfoBaseENS_9allocatorIS4_EEE5beginB8ne190102Ev
FNA:14,1,_ZNSt3__16vectorIPN7testing9TestSuiteENS_9allocatorIS3_EEE5beginB8ne190102Ev
FNL:15,1417
FNA:15,90,_ZNKSt3__16vectorIN7testing14TestPartResultENS_9allocatorIS2_EEE5beginB8ne190102Ev
FNA:15,0,_ZNKSt3__16vectorIN7testing8internal13edit_distance8EditTypeENS_9allocatorIS4_EEE5beginB8ne190102Ev
FNA:15,54,_ZNKSt3__16vectorINS_12basic_stringIcNS_11char_traitsIcEENS_9allocatorIcEEEENS4_IS6_EEE5beginB8ne190102Ev
FNA:15,2,_ZNKSt3__16vectorIPN7testing11EnvironmentENS_9allocatorIS3_EEE5beginB8ne190102Ev
FNA:15,0,_ZNKSt3__16vectorIPN7testing17TestEventListenerENS_9allocatorIS3_EEE5beginB8ne190102Ev
FNA:15,40,_ZNKSt3__16vectorIPN7testing8TestInfoENS_9allocatorIS3_EEE5beginB8ne190102Ev
FNA:15,6,_ZNKSt3__16vectorIPN7testing9TestSuiteENS_9allocatorIS3_EEE5beginB8ne190102Ev
FNL:16,1423
FNA:16,0,_ZNSt3__16vectorIN7testing12TestPropertyENS_9allocatorIS2_EEE3endB8ne190102Ev
FNA:16,0,_ZNSt3__16vectorIN7testing8internal13edit_distance8EditTypeENS_9allocatorIS4_EEE3endB8ne190102Ev
FNA:16,14,_ZNSt3__16vectorINS_12basic_stringIcNS_11char_traitsIcEENS_9allocatorIcEEEENS4_IS6_EEE3endB8ne190102Ev
FNA:16,1,_ZNSt3__16vectorIPN7testing11EnvironmentENS_9allocatorIS3_EEE3endB8ne190102Ev
FNA:16,9,_ZNSt3__16vectorIPN7testing8TestInfoENS_9allocatorIS3_EEE3endB8ne190102Ev
FNA:16,1,_ZNSt3__16vectorIPN7testing8internal30ParameterizedTestSuiteInfoBaseENS_9allocatorIS4_EEE3endB8ne190102Ev
FNA:16,20,_ZNSt3__16vectorIPN7testing9TestSuiteENS_9allocatorIS3_EEE3endB8ne190102Ev
FNL:17,1429
FNA:17,90,_ZNKSt3__16vectorIN7testing14TestPartResultENS_9allocatorIS2_EEE3endB8ne190102Ev
FNA:17,0,_ZNKSt3__16vectorIN7testing8internal13edit_distance8EditTypeENS_9allocatorIS4_EEE3endB8ne190102Ev
FNA:17,54,_ZNKSt3__16vectorINS_12basic_stringIcNS_11char_traitsIcEENS_9allocatorIcEEEENS4_IS6_EEE3endB8ne190102Ev
FNA:17,2,_ZNKSt3__16vectorIPN7testing11EnvironmentENS_9allocatorIS3_EEE3endB8ne190102Ev
FNA:17,0,_ZNKSt3__16vectorIPN7testing17TestEventListenerENS_9allocatorIS3_EEE3endB8ne190102Ev
FNA:17,148,_ZNKSt3__16vectorIPN7testing8TestInfoENS_9allocatorIS3_EEE3endB8ne190102Ev
FNA:17,22,_ZNKSt3__16vectorIPN7testing9TestSuiteENS_9allocatorIS3_EEE3endB8ne190102Ev
FNL:18,1435
FNA:18,0,_ZNSt3__16vectorIN7testing8internal13edit_distance8EditTypeENS_9allocatorIS4_EEEixB8ne190102Em
FNA:18,0,_ZNSt3__16vectorIN7testing8internal9TraceInfoENS_9allocatorIS3_EEEixB8ne190102Em
FNA:18,0,_ZNSt3__16vectorINS0_IN7testing8internal13edit_distance8EditTypeENS_9allocatorIS4_EEEENS5_IS7_EEEixB8ne190102Em
FNA:18,0,_ZNSt3__16vectorINS0_IdNS_9allocatorIdEEEENS1_IS3_EEEixB8ne190102Em
FNA:18,0,_ZNSt3__16vectorINS_12basic_stringIcNS_11char_traitsIcEENS_9allocatorIcEEEENS4_IS6_EEEixB8ne190102Em
FNA:18,48,_ZNSt3__16vectorIPN7testing17TestEventListenerENS_9allocatorIS3_EEEixB8ne190102Em
FNA:18,12,_ZNSt3__16vectorIPN7testing8TestInfoENS_9allocatorIS3_EEEixB8ne190102Em
FNA:18,8,_ZNSt3__16vectorIPN7testing9TestSuiteENS_9allocatorIS3_EEEixB8ne190102Em
FNA:18,0,_ZNSt3__16vectorIdNS_9allocatorIdEEEixB8ne190102Em
FNA:18,16,_ZNSt3__16vectorIiNS_9allocatorIiEEEixB8ne190102Em
FNL:19,1442
FNA:19,0,_ZNKSt3__16vectorIN7testing14TestPartResultENS_9allocatorIS2_EEEixB8ne190102Em
FNA:19,0,_ZNKSt3__16vectorIN7testing8internal13edit_distance8EditTypeENS_9allocatorIS4_EEEixB8ne190102Em
FNA:19,0,_ZNKSt3__16vectorINS_12basic_stringIcNS_11char_traitsIcEENS_9allocatorIcEEEENS4_IS6_EEEixB8ne190102Em
FNA:19,12,_ZNKSt3__16vectorIPN7testing8TestInfoENS_9allocatorIS3_EEEixB8ne190102Em
FNA:19,28,_ZNKSt3__16vectorIPN7testing9TestSuiteENS_9allocatorIS3_EEEixB8ne190102Em
FNA:19,16,_ZNKSt3__16vectorIiNS_9allocatorIiEEEixB8ne190102Em
FNA:19,0,_ZNKSt3__16vectorImNS_9allocatorImEEEixB8ne190102Em
FNL:20,1456
FNA:20,0,_ZNKSt3__16vectorIN7testing12TestPropertyENS_9allocatorIS2_EEE2atEm
FNA:20,0,_ZNKSt3__16vectorIN7testing14TestPartResultENS_9allocatorIS2_EEE2atEm
FNL:21,1463
FNA:21,7,_ZNSt3__16vectorINS_12basic_stringIcNS_11char_traitsIcEENS_9allocatorIcEEEENS4_IS6_EEE7reserveEm
FNA:21,0,_ZNSt3__16vectorIPcNS_9allocatorIS1_EEE7reserveEm
FNL:22,1496
FNA:22,0,_ZNSt3__16vectorIN7testing12TestPropertyENS_9allocatorIS2_EEE21__push_back_slow_pathIRKS2_EEPS2_OT_
FNA:22,0,_ZNSt3__16vectorIN7testing14TestPartResultENS_9allocatorIS2_EEE21__push_back_slow_pathIRKS2_EEPS2_OT_
FNA:22,0,_ZNSt3__16vectorIN7testing8internal13edit_distance8EditTypeENS_9allocatorIS4_EEE21__push_back_slow_pathIRKS4_EEPS4_OT_
FNA:22,0,_ZNSt3__16vectorIN7testing8internal9TraceInfoENS_9allocatorIS3_EEE21__push_back_slow_pathIRKS3_EEPS3_OT_
FNA:22,0,_ZNSt3__16vectorINS_12basic_stringIcNS_11char_traitsIcEENS_9allocatorIcEEEENS4_IS6_EEE21__push_back_slow_pathIRKS6_EEPS6_OT_
FNA:22,15,_ZNSt3__16vectorINS_12basic_stringIcNS_11char_traitsIcEENS_9allocatorIcEEEENS4_IS6_EEE21__push_back_slow_pathIS6_EEPS6_OT_
FNA:22,0,_ZNSt3__16vectorIPN7testing11EnvironmentENS_9allocatorIS3_EEE21__push_back_slow_pathIRKS3_EEPS3_OT_
FNA:22,1,_ZNSt3__16vectorIPN7testing17TestEventListenerENS_9allocatorIS3_EEE21__push_back_slow_pathIRKS3_EEPS3_OT_
FNA:22,10,_ZNSt3__16vectorIPN7testing8TestInfoENS_9allocatorIS3_EEE21__push_back_slow_pathIRKS3_EEPS3_OT_
FNA:22,3,_ZNSt3__16vectorIPN7testing9TestSuiteENS_9allocatorIS3_EEE21__push_back_slow_pathIRKS3_EEPS3_OT_
FNA:22,0,_ZNSt3__16vectorIPcNS_9allocatorIS1_EEE21__push_back_slow_pathIS1_EEPS1_OT_
FNA:22,13,_ZNSt3__16vectorIiNS_9allocatorIiEEE21__push_back_slow_pathIiEEPiOT_
FNA:22,0,_ZNSt3__16vectorImNS_9allocatorImEEE21__push_back_slow_pathImEEPmOT_
FNL:23,1508
FNA:23,0,_ZNSt3__16vectorIN7testing12TestPropertyENS_9allocatorIS2_EEE9push_backB8ne190102ERKS2_
FNA:23,0,_ZNSt3__16vectorIN7testing14TestPartResultENS_9allocatorIS2_EEE9push_backB8ne190102ERKS2_
FNA:23,0,_ZNSt3__16vectorIN7testing8internal13edit_distance8EditTypeENS_9allocatorIS4_EEE9push_backB8ne190102ERKS4_
FNA:23,0,_ZNSt3__16vectorIN7testing8internal9TraceInfoENS_9allocatorIS3_EEE9push_backB8ne190102ERKS3_
FNA:23,0,_ZNSt3__16vectorINS_12basic_stringIcNS_11char_traitsIcEENS_9allocatorIcEEEENS4_IS6_EEE9push_backB8ne190102ERKS6_
FNA:23,0,_ZNSt3__16vectorIPN7testing11EnvironmentENS_9allocatorIS3_EEE9push_backB8ne190102ERKS3_
FNA:23,1,_ZNSt3__16vectorIPN7testing17TestEventListenerENS_9allocatorIS3_EEE9push_backB8ne190102ERKS3_
FNA:23,12,_ZNSt3__16vectorIPN7testing8TestInfoENS_9allocatorIS3_EEE9push_backB8ne190102ERKS3_
FNA:23,4,_ZNSt3__16vectorIPN7testing9TestSuiteENS_9allocatorIS3_EEE9push_backB8ne190102ERKS3_
FNL:24,1520
FNA:24,15,_ZNSt3__16vectorINS_12basic_stringIcNS_11char_traitsIcEENS_9allocatorIcEEEENS4_IS6_EEE9push_backB8ne190102EOS6_
FNA:24,0,_ZNSt3__16vectorIPcNS_9allocatorIS1_EEE9push_backB8ne190102EOS1_
FNA:24,16,_ZNSt3__16vectorIiNS_9allocatorIiEEE9push_backB8ne190102EOi
FNA:24,0,_ZNSt3__16vectorImNS_9allocatorImEEE9push_backB8ne190102EOm
FNL:25,1567
FNA:25,0,_ZNSt3__16vectorIN7testing8internal9TraceInfoENS_9allocatorIS3_EEE8pop_backEv
FNL:26,1574
FNA:26,0,_ZNSt3__16vectorIPN7testing17TestEventListenerENS_9allocatorIS3_EEE5eraseB8ne190102ENS_11__wrap_iterIPKS3_EE
FNL:27,1596
FNA:27,0,_ZNSt3__16vectorINS_12basic_stringIcNS_11char_traitsIcEENS_9allocatorIcEEEENS4_IS6_EEE12__move_rangeEPS6_S9_S9_
FNA:27,0,_ZNSt3__16vectorIPN7testing9TestSuiteENS_9allocatorIS3_EEE12__move_rangeEPS3_S7_S7_
FNL:28,1611
FNA:28,0,_ZNSt3__16vectorIPN7testing9TestSuiteENS_9allocatorIS3_EEE6insertENS_11__wrap_iterIPKS3_EERS8_
FNL:29,1634
FNA:29,12,_ZNSt3__16vectorINS_12basic_stringIcNS_11char_traitsIcEENS_9allocatorIcEEEENS4_IS6_EEE6insertENS_11__wrap_iterIPKS6_EEOS6_
FNL:30,1811
FNA:30,9,_ZNSt3__16vectorINS_12basic_stringIcNS_11char_traitsIcEENS_9allocatorIcEEEENS4_IS6_EEE4swapERS8_
FNL:31,430
FNA:31,17,_ZNSt3__16vectorIN7testing12TestPropertyENS_9allocatorIS2_EEEC1B8ne190102Ev
FNA:31,17,_ZNSt3__16vectorIN7testing12TestPropertyENS_9allocatorIS2_EEEC2B8ne190102Ev
FNA:31,17,_ZNSt3__16vectorIN7testing14TestPartResultENS_9allocatorIS2_EEEC1B8ne190102Ev
FNA:31,17,_ZNSt3__16vectorIN7testing14TestPartResultENS_9allocatorIS2_EEEC2B8ne190102Ev
FNA:31,0,_ZNSt3__16vectorIN7testing8internal13edit_distance8EditTypeENS_9allocatorIS4_EEEC1B8ne190102Ev
FNA:31,0,_ZNSt3__16vectorIN7testing8internal13edit_distance8EditTypeENS_9allocatorIS4_EEEC2B8ne190102Ev
FNA:31,0,_ZNSt3__16vectorIN7testing8internal9TraceInfoENS_9allocatorIS3_EEEC1B8ne190102Ev
FNA:31,0,_ZNSt3__16vectorIN7testing8internal9TraceInfoENS_9allocatorIS3_EEEC2B8ne190102Ev
FNA:31,30,_ZNSt3__16vectorINS_12basic_stringIcNS_11char_traitsIcEENS_9allocatorIcEEEENS4_IS6_EEEC1B8ne190102Ev
FNA:31,30,_ZNSt3__16vectorINS_12basic_stringIcNS_11char_traitsIcEENS_9allocatorIcEEEENS4_IS6_EEEC2B8ne190102Ev
FNA:31,1,_ZNSt3__16vectorIPN7testing11EnvironmentENS_9allocatorIS3_EEEC1B8ne190102Ev
FNA:31,1,_ZNSt3__16vectorIPN7testing11EnvironmentENS_9allocatorIS3_EEEC2B8ne190102Ev
FNA:31,1,_ZNSt3__16vectorIPN7testing17TestEventListenerENS_9allocatorIS3_EEEC1B8ne190102Ev
FNA:31,1,_ZNSt3__16vectorIPN7testing17TestEventListenerENS_9allocatorIS3_EEEC2B8ne190102Ev
FNA:31,4,_ZNSt3__16vectorIPN7testing8TestInfoENS_9allocatorIS3_EEEC1B8ne190102Ev
FNA:31,4,_ZNSt3__16vectorIPN7testing8TestInfoENS_9allocatorIS3_EEEC2B8ne190102Ev
FNA:31,1,_ZNSt3__16vectorIPN7testing8internal30ParameterizedTestSuiteInfoBaseENS_9allocatorIS4_EEEC1B8ne190102Ev
FNA:31,1,_ZNSt3__16vectorIPN7testing8internal30ParameterizedTestSuiteInfoBaseENS_9allocatorIS4_EEEC2B8ne190102Ev
FNA:31,1,_ZNSt3__16vectorIPN7testing9TestSuiteENS_9allocatorIS3_EEEC1B8ne190102Ev
FNA:31,1,_ZNSt3__16vectorIPN7testing9TestSuiteENS_9allocatorIS3_EEEC2B8ne190102Ev
FNA:31,0,_ZNSt3__16vectorIPcNS_9allocatorIS1_EEEC1B8ne190102Ev
FNA:31,0,_ZNSt3__16vectorIPcNS_9allocatorIS1_EEEC2B8ne190102Ev
FNA:31,5,_ZNSt3__16vectorIiNS_9allocatorIiEEEC1B8ne190102Ev
FNA:31,5,_ZNSt3__16vectorIiNS_9allocatorIiEEEC2B8ne190102Ev
FNA:31,0,_ZNSt3__16vectorImNS_9allocatorImEEEC1B8ne190102Ev
FNA:31,0,_ZNSt3__16vectorImNS_9allocatorImEEEC2B8ne190102Ev
FNL:32,441
FNA:32,0,_ZNSt3__16vectorIN7testing8internal13edit_distance8EditTypeENS_9allocatorIS4_EEEC1B8ne190102Em
FNA:32,0,_ZNSt3__16vectorIN7testing8internal13edit_distance8EditTypeENS_9allocatorIS4_EEEC2B8ne190102Em
FNA:32,0,_ZNSt3__16vectorIdNS_9allocatorIdEEEC1B8ne190102Em
FNA:32,0,_ZNSt3__16vectorIdNS_9allocatorIdEEEC2B8ne190102Em
FNL:33,462
FNA:33,0,_ZNSt3__16vectorINS0_IN7testing8internal13edit_distance8EditTypeENS_9allocatorIS4_EEEENS5_IS7_EEEC1B8ne190102EmRKS7_
FNA:33,0,_ZNSt3__16vectorINS0_IN7testing8internal13edit_distance8EditTypeENS_9allocatorIS4_EEEENS5_IS7_EEEC2B8ne190102EmRKS7_
FNA:33,0,_ZNSt3__16vectorINS0_IdNS_9allocatorIdEEEENS1_IS3_EEEC1B8ne190102EmRKS3_
FNA:33,0,_ZNSt3__16vectorINS0_IdNS_9allocatorIdEEEENS1_IS3_EEEC2B8ne190102EmRKS3_
FNL:34,526
FNA:34,0,_ZNSt3__16vectorIN7testing12TestPropertyENS_9allocatorIS2_EEE16__destroy_vectorC1B8ne190102ERS5_
FNA:34,0,_ZNSt3__16vectorIN7testing12TestPropertyENS_9allocatorIS2_EEE16__destroy_vectorC2B8ne190102ERS5_
FNA:34,0,_ZNSt3__16vectorIN7testing14TestPartResultENS_9allocatorIS2_EEE16__destroy_vectorC1B8ne190102ERS5_
FNA:34,0,_ZNSt3__16vectorIN7testing14TestPartResultENS_9allocatorIS2_EEE16__destroy_vectorC2B8ne190102ERS5_
FNA:34,0,_ZNSt3__16vectorIN7testing8internal13edit_distance8EditTypeENS_9allocatorIS4_EEE16__destroy_vectorC1B8ne190102ERS7_
FNA:34,0,_ZNSt3__16vectorIN7testing8internal13edit_distance8EditTypeENS_9allocatorIS4_EEE16__destroy_vectorC2B8ne190102ERS7_
FNA:34,0,_ZNSt3__16vectorIN7testing8internal9TraceInfoENS_9allocatorIS3_EEE16__destroy_vectorC1B8ne190102ERS6_
FNA:34,0,_ZNSt3__16vectorIN7testing8internal9TraceInfoENS_9allocatorIS3_EEE16__destroy_vectorC2B8ne190102ERS6_
FNA:34,0,_ZNSt3__16vectorINS0_IN7testing8internal13edit_distance8EditTypeENS_9allocatorIS4_EEEENS5_IS7_EEE16__destroy_vectorC1B8ne190102ERS9_
FNA:34,0,_ZNSt3__16vectorINS0_IN7testing8internal13edit_distance8EditTypeENS_9allocatorIS4_EEEENS5_IS7_EEE16__destroy_vectorC2B8ne190102ERS9_
FNA:34,0,_ZNSt3__16vectorINS0_IdNS_9allocatorIdEEEENS1_IS3_EEE16__destroy_vectorC1B8ne190102ERS5_
FNA:34,0,_ZNSt3__16vectorINS0_IdNS_9allocatorIdEEEENS1_IS3_EEE16__destroy_vectorC2B8ne190102ERS5_
FNA:34,33,_ZNSt3__16vectorINS_12basic_stringIcNS_11char_traitsIcEENS_9allocatorIcEEEENS4_IS6_EEE16__destroy_vectorC1B8ne190102ERS8_
FNA:34,33,_ZNSt3__16vectorINS_12basic_stringIcNS_11char_traitsIcEENS_9allocatorIcEEEENS4_IS6_EEE16__destroy_vectorC2B8ne190102ERS8_
FNA:34,0,_ZNSt3__16vectorIPN7testing11EnvironmentENS_9allocatorIS3_EEE16__destroy_vectorC1B8ne190102ERS6_
FNA:34,0,_ZNSt3__16vectorIPN7testing11EnvironmentENS_9allocatorIS3_EEE16__destroy_vectorC2B8ne190102ERS6_
FNA:34,0,_ZNSt3__16vectorIPN7testing17TestEventListenerENS_9allocatorIS3_EEE16__destroy_vectorC1B8ne190102ERS6_
FNA:34,0,_ZNSt3__16vectorIPN7testing17TestEventListenerENS_9allocatorIS3_EEE16__destroy_vectorC2B8ne190102ERS6_
FNA:34,0,_ZNSt3__16vectorIPN7testing8TestInfoENS_9allocatorIS3_EEE16__destroy_vectorC1B8ne190102ERS6_
FNA:34,0,_ZNSt3__16vectorIPN7testing8TestInfoENS_9allocatorIS3_EEE16__destroy_vectorC2B8ne190102ERS6_
FNA:34,0,_ZNSt3__16vectorIPN7testing8internal30ParameterizedTestSuiteInfoBaseENS_9allocatorIS4_EEE16__destroy_vectorC1B8ne190102ERS7_
FNA:34,0,_ZNSt3__16vectorIPN7testing8internal30ParameterizedTestSuiteInfoBaseENS_9allocatorIS4_EEE16__destroy_vectorC2B8ne190102ERS7_
FNA:34,0,_ZNSt3__16vectorIPN7testing9TestSuiteENS_9allocatorIS3_EEE16__destroy_vectorC1B8ne190102ERS6_
FNA:34,0,_ZNSt3__16vectorIPN7testing9TestSuiteENS_9allocatorIS3_EEE16__destroy_vectorC2B8ne190102ERS6_
FNA:34,0,_ZNSt3__16vectorIPcNS_9allocatorIS1_EEE16__destroy_vectorC1B8ne190102ERS4_
FNA:34,0,_ZNSt3__16vectorIPcNS_9allocatorIS1_EEE16__destroy_vectorC2B8ne190102ERS4_
FNA:34,0,_ZNSt3__16vectorIdNS_9allocatorIdEEE16__destroy_vectorC1B8ne190102ERS3_
FNA:34,0,_ZNSt3__16vectorIdNS_9allocatorIdEEE16__destroy_vectorC2B8ne190102ERS3_
FNA:34,0,_ZNSt3__16vectorIiNS_9allocatorIiEEE16__destroy_vectorC1B8ne190102ERS3_
FNA:34,0,_ZNSt3__16vectorIiNS_9allocatorIiEEE16__destroy_vectorC2B8ne190102ERS3_
FNA:34,0,_ZNSt3__16vectorImNS_9allocatorImEEE16__destroy_vectorC1B8ne190102ERS3_
FNA:34,0,_ZNSt3__16vectorImNS_9allocatorImEEE16__destroy_vectorC2B8ne190102ERS3_
FNL:35,528
FNA:35,0,_ZNSt3__16vectorIN7testing12TestPropertyENS_9allocatorIS2_EEE16__destroy_vectorclB8ne190102Ev
FNA:35,0,_ZNSt3__16vectorIN7testing14TestPartResultENS_9allocatorIS2_EEE16__destroy_vectorclB8ne190102Ev
FNA:35,0,_ZNSt3__16vectorIN7testing8internal13edit_distance8EditTypeENS_9allocatorIS4_EEE16__destroy_vectorclB8ne190102Ev
FNA:35,0,_ZNSt3__16vectorIN7testing8internal9TraceInfoENS_9allocatorIS3_EEE16__destroy_vectorclB8ne190102Ev
FNA:35,0,_ZNSt3__16vectorINS0_IN7testing8internal13edit_distance8EditTypeENS_9allocatorIS4_EEEENS5_IS7_EEE16__destroy_vectorclB8ne190102Ev
FNA:35,0,_ZNSt3__16vectorINS0_IdNS_9allocatorIdEEEENS1_IS3_EEE16__destroy_vectorclB8ne190102Ev
FNA:35,31,_ZNSt3__16vectorINS_12basic_stringIcNS_11char_traitsIcEENS_9allocatorIcEEEENS4_IS6_EEE16__destroy_vectorclB8ne190102Ev
FNA:35,0,_ZNSt3__16vectorIPN7testing11EnvironmentENS_9allocatorIS3_EEE16__destroy_vectorclB8ne190102Ev
FNA:35,0,_ZNSt3__16vectorIPN7testing17TestEventListenerENS_9allocatorIS3_EEE16__destroy_vectorclB8ne190102Ev
FNA:35,0,_ZNSt3__16vectorIPN7testing8TestInfoENS_9allocatorIS3_EEE16__destroy_vectorclB8ne190102Ev
FNA:35,0,_ZNSt3__16vectorIPN7testing8internal30ParameterizedTestSuiteInfoBaseENS_9allocatorIS4_EEE16__destroy_vectorclB8ne190102Ev
FNA:35,0,_ZNSt3__16vectorIPN7testing9TestSuiteENS_9allocatorIS3_EEE16__destroy_vectorclB8ne190102Ev
FNA:35,0,_ZNSt3__16vectorIPcNS_9allocatorIS1_EEE16__destroy_vectorclB8ne190102Ev
FNA:35,0,_ZNSt3__16vectorIdNS_9allocatorIdEEE16__destroy_vectorclB8ne190102Ev
FNA:35,0,_ZNSt3__16vectorIiNS_9allocatorIiEEE16__destroy_vectorclB8ne190102Ev
FNA:35,0,_ZNSt3__16vectorImNS_9allocatorImEEE16__destroy_vectorclB8ne190102Ev
FNL:36,541
FNA:36,0,_ZNSt3__16vectorIN7testing12TestPropertyENS_9allocatorIS2_EEED1B8ne190102Ev
FNA:36,0,_ZNSt3__16vectorIN7testing12TestPropertyENS_9allocatorIS2_EEED2B8ne190102Ev
FNA:36,0,_ZNSt3__16vectorIN7testing14TestPartResultENS_9allocatorIS2_EEED1B8ne190102Ev
FNA:36,0,_ZNSt3__16vectorIN7testing14TestPartResultENS_9allocatorIS2_EEED2B8ne190102Ev
FNA:36,0,_ZNSt3__16vectorIN7testing8internal13edit_distance8EditTypeENS_9allocatorIS4_EEED1B8ne190102Ev
FNA:36,0,_ZNSt3__16vectorIN7testing8internal13edit_distance8EditTypeENS_9allocatorIS4_EEED2B8ne190102Ev
FNA:36,0,_ZNSt3__16vectorIN7testing8internal9TraceInfoENS_9allocatorIS3_EEED1B8ne190102Ev
FNA:36,0,_ZNSt3__16vectorIN7testing8internal9TraceInfoENS_9allocatorIS3_EEED2B8ne190102Ev
FNA:36,0,_ZNSt3__16vectorINS0_IN7testing8internal13edit_distance8EditTypeENS_9allocatorIS4_EEEENS5_IS7_EEED1B8ne190102Ev
FNA:36,0,_ZNSt3__16vectorINS0_IN7testing8internal13edit_distance8EditTypeENS_9allocatorIS4_EEEENS5_IS7_EEED2B8ne190102Ev
FNA:36,0,_ZNSt3__16vectorINS0_IdNS_9allocatorIdEEEENS1_IS3_EEED1B8ne190102Ev
FNA:36,0,_ZNSt3__16vectorINS0_IdNS_9allocatorIdEEEENS1_IS3_EEED2B8ne190102Ev
FNA:36,31,_ZNSt3__16vectorINS_12basic_stringIcNS_11char_traitsIcEENS_9allocatorIcEEEENS4_IS6_EEED1B8ne190102Ev
FNA:36,31,_ZNSt3__16vectorINS_12basic_stringIcNS_11char_traitsIcEENS_9allocatorIcEEEENS4_IS6_EEED2B8ne190102Ev
FNA:36,0,_ZNSt3__16vectorIPN7testing11EnvironmentENS_9allocatorIS3_EEED1B8ne190102Ev
FNA:36,0,_ZNSt3__16vectorIPN7testing11EnvironmentENS_9allocatorIS3_EEED2B8ne190102Ev
FNA:36,0,_ZNSt3__16vectorIPN7testing17TestEventListenerENS_9allocatorIS3_EEED1B8ne190102Ev
FNA:36,0,_ZNSt3__16vectorIPN7testing17TestEventListenerENS_9allocatorIS3_EEED2B8ne190102Ev
FNA:36,0,_ZNSt3__16vectorIPN7testing8TestInfoENS_9allocatorIS3_EEED1B8ne190102Ev
FNA:36,0,_ZNSt3__16vectorIPN7testing8TestInfoENS_9allocatorIS3_EEED2B8ne190102Ev
FNA:36,0,_ZNSt3__16vectorIPN7testing8internal30ParameterizedTestSuiteInfoBaseENS_9allocatorIS4_EEED1B8ne190102Ev
FNA:36,0,_ZNSt3__16vectorIPN7testing8internal30ParameterizedTestSuiteInfoBaseENS_9allocatorIS4_EEED2B8ne190102Ev
FNA:36,0,_ZNSt3__16vectorIPN7testing9TestSuiteENS_9allocatorIS3_EEED1B8ne190102Ev
FNA:36,0,_ZNSt3__16vectorIPN7testing9TestSuiteENS_9allocatorIS3_EEED2B8ne190102Ev
FNA:36,0,_ZNSt3__16vectorIPcNS_9allocatorIS1_EEED1B8ne190102Ev
FNA:36,0,_ZNSt3__16vectorIPcNS_9allocatorIS1_EEED2B8ne190102Ev
FNA:36,0,_ZNSt3__16vectorIdNS_9allocatorIdEEED1B8ne190102Ev
FNA:36,0,_ZNSt3__16vectorIdNS_9allocatorIdEEED2B8ne190102Ev
FNA:36,0,_ZNSt3__16vectorIiNS_9allocatorIiEEED1B8ne190102Ev
FNA:36,0,_ZNSt3__16vectorIiNS_9allocatorIiEEED2B8ne190102Ev
FNA:36,0,_ZNSt3__16vectorImNS_9allocatorImEEED1B8ne190102Ev
FNA:36,0,_ZNSt3__16vectorImNS_9allocatorImEEED2B8ne190102Ev
FNL:37,614
FNA:37,1,_ZNSt3__16vectorIPN7testing11EnvironmentENS_9allocatorIS3_EEE6rbeginB8ne190102Ev
FNA:37,19,_ZNSt3__16vectorIPN7testing9TestSuiteENS_9allocatorIS3_EEE6rbeginB8ne190102Ev
FNL:38,620
FNA:38,1,_ZNSt3__16vectorIPN7testing11EnvironmentENS_9allocatorIS3_EEE4rendB8ne190102Ev
FNL:39,627
FNA:39,0,_ZNKSt3__16vectorIPN7testing17TestEventListenerENS_9allocatorIS3_EEE6cbeginB8ne190102Ev
FNL:40,634
FNA:40,16,_ZNKSt3__16vectorIN7testing12TestPropertyENS_9allocatorIS2_EEE4sizeB8ne190102Ev
FNA:40,155,_ZNKSt3__16vectorIN7testing14TestPartResultENS_9allocatorIS2_EEE4sizeB8ne190102Ev
FNA:40,0,_ZNKSt3__16vectorIN7testing8internal13edit_distance8EditTypeENS_9allocatorIS4_EEE4sizeB8ne190102Ev
FNA:40,0,_ZNKSt3__16vectorIN7testing8internal9TraceInfoENS_9allocatorIS3_EEE4sizeB8ne190102Ev
FNA:40,0,_ZNKSt3__16vectorINS0_IdNS_9allocatorIdEEEENS1_IS3_EEE4sizeB8ne190102Ev
FNA:40,64,_ZNKSt3__16vectorINS_12basic_stringIcNS_11char_traitsIcEENS_9allocatorIcEEEENS4_IS6_EEE4sizeB8ne190102Ev
FNA:40,1,_ZNKSt3__16vectorIPN7testing11EnvironmentENS_9allocatorIS3_EEE4sizeB8ne190102Ev
FNA:40,76,_ZNKSt3__16vectorIPN7testing17TestEventListenerENS_9allocatorIS3_EEE4sizeB8ne190102Ev
FNA:40,54,_ZNKSt3__16vectorIPN7testing8TestInfoENS_9allocatorIS3_EEE4sizeB8ne190102Ev
FNA:40,54,_ZNKSt3__16vectorIPN7testing9TestSuiteENS_9allocatorIS3_EEE4sizeB8ne190102Ev
FNA:40,0,_ZNKSt3__16vectorIPcNS_9allocatorIS1_EEE4sizeB8ne190102Ev
FNA:40,0,_ZNKSt3__16vectorIdNS_9allocatorIdEEE4sizeB8ne190102Ev
FNA:40,87,_ZNKSt3__16vectorIiNS_9allocatorIiEEE4sizeB8ne190102Ev
FNA:40,0,_ZNKSt3__16vectorImNS_9allocatorImEEE4sizeB8ne190102Ev
FNL:41,637
FNA:41,0,_ZNKSt3__16vectorIN7testing12TestPropertyENS_9allocatorIS2_EEE8capacityB8ne190102Ev
FNA:41,0,_ZNKSt3__16vectorIN7testing14TestPartResultENS_9allocatorIS2_EEE8capacityB8ne190102Ev
FNA:41,0,_ZNKSt3__16vectorIN7testing8internal13edit_distance8EditTypeENS_9allocatorIS4_EEE8capacityB8ne190102Ev
FNA:41,0,_ZNKSt3__16vectorIN7testing8internal9TraceInfoENS_9allocatorIS3_EEE8capacityB8ne190102Ev
FNA:41,0,_ZNKSt3__16vectorINS0_IN7testing8internal13edit_distance8EditTypeENS_9allocatorIS4_EEEENS5_IS7_EEE8capacityB8ne190102Ev
FNA:41,0,_ZNKSt3__16vectorINS0_IdNS_9allocatorIdEEEENS1_IS3_EEE8capacityB8ne190102Ev
FNA:41,39,_ZNKSt3__16vectorINS_12basic_stringIcNS_11char_traitsIcEENS_9allocatorIcEEEENS4_IS6_EEE8capacityB8ne190102Ev
FNA:41,0,_ZNKSt3__16vectorIPN7testing11EnvironmentENS_9allocatorIS3_EEE8capacityB8ne190102Ev
FNA:41,1,_ZNKSt3__16vectorIPN7testing17TestEventListenerENS_9allocatorIS3_EEE8capacityB8ne190102Ev
FNA:41,10,_ZNKSt3__16vectorIPN7testing8TestInfoENS_9allocatorIS3_EEE8capacityB8ne190102Ev
FNA:41,0,_ZNKSt3__16vectorIPN7testing8internal30ParameterizedTestSuiteInfoBaseENS_9allocatorIS4_EEE8capacityB8ne190102Ev
FNA:41,3,_ZNKSt3__16vectorIPN7testing9TestSuiteENS_9allocatorIS3_EEE8capacityB8ne190102Ev
FNA:41,0,_ZNKSt3__16vectorIPcNS_9allocatorIS1_EEE8capacityB8ne190102Ev
FNA:41,0,_ZNKSt3__16vectorIdNS_9allocatorIdEEE8capacityB8ne190102Ev
FNA:41,13,_ZNKSt3__16vectorIiNS_9allocatorIiEEE8capacityB8ne190102Ev
FNA:41,0,_ZNKSt3__16vectorImNS_9allocatorImEEE8capacityB8ne190102Ev
FNL:42,640
FNA:42,0,_ZNKSt3__16vectorIN7testing8internal9TraceInfoENS_9allocatorIS3_EEE5emptyB8ne190102Ev
FNA:42,2,_ZNKSt3__16vectorINS_12basic_stringIcNS_11char_traitsIcEENS_9allocatorIcEEEENS4_IS6_EEE5emptyB8ne190102Ev
FNA:42,12,_ZNKSt3__16vectorIPN7testing9TestSuiteENS_9allocatorIS3_EEE5emptyB8ne190102Ev
FNL:43,652
FNA:43,2,_ZNSt3__16vectorINS_12basic_stringIcNS_11char_traitsIcEENS_9allocatorIcEEEENS4_IS6_EEE5frontB8ne190102Ev
FNL:44,669
FNA:44,0,_ZNSt3__16vectorIPcNS_9allocatorIS1_EEE4dataB8ne190102Ev
FNL:45,747
FNA:45,16,_ZNSt3__16vectorIN7testing12TestPropertyENS_9allocatorIS2_EEE5clearB8ne190102Ev
FNA:45,16,_ZNSt3__16vectorIN7testing14TestPartResultENS_9allocatorIS2_EEE5clearB8ne190102Ev
FNA:45,1,_ZNSt3__16vectorINS_12basic_stringIcNS_11char_traitsIcEENS_9allocatorIcEEEENS4_IS6_EEE5clearB8ne190102Ev
FNA:45,1,_ZNSt3__16vectorIPN7testing11EnvironmentENS_9allocatorIS3_EEE5clearB8ne190102Ev
FNL:46,778
FNA:46,0,_ZNSt3__16vectorIN7testing8internal13edit_distance8EditTypeENS_9allocatorIS4_EEE11__vallocateB8ne190102Em
FNA:46,0,_ZNSt3__16vectorINS0_IN7testing8internal13edit_distance8EditTypeENS_9allocatorIS4_EEEENS5_IS7_EEE11__vallocateB8ne190102Em
FNA:46,0,_ZNSt3__16vectorINS0_IdNS_9allocatorIdEEEENS1_IS3_EEE11__vallocateB8ne190102Em
FNA:46,1,_ZNSt3__16vectorINS_12basic_stringIcNS_11char_traitsIcEENS_9allocatorIcEEEENS4_IS6_EEE11__vallocateB8ne190102Em
FNA:46,0,_ZNSt3__16vectorIdNS_9allocatorIdEEE11__vallocateB8ne190102Em
FNL:47,795
FNA:47,0,_ZNSt3__16vectorIN7testing8internal13edit_distance8EditTypeENS_9allocatorIS4_EEE16__init_with_sizeB8ne190102IPS4_S9_EEvT_T0_m
FNA:47,0,_ZNSt3__16vectorINS_12basic_stringIcNS_11char_traitsIcEENS_9allocatorIcEEEENS4_IS6_EEE16__init_with_sizeB8ne190102INS_11__wrap_iterIPKS6_EESD_EEvT_T0_m
FNA:47,0,_ZNSt3__16vectorINS_12basic_stringIcNS_11char_traitsIcEENS_9allocatorIcEEEENS4_IS6_EEE16__init_with_sizeB8ne190102IPKPKcSD_EEvT_T0_m
FNA:47,2,_ZNSt3__16vectorINS_12basic_stringIcNS_11char_traitsIcEENS_9allocatorIcEEEENS4_IS6_EEE16__init_with_sizeB8ne190102IPS6_SA_EEvT_T0_m
FNA:47,0,_ZNSt3__16vectorIdNS_9allocatorIdEEE16__init_with_sizeB8ne190102IPdS5_EEvT_T0_m
FNL:48,839
FNA:48,0,_ZNSt3__16vectorIN7testing12TestPropertyENS_9allocatorIS2_EEE11__make_iterB8ne190102EPS2_
FNA:48,0,_ZNSt3__16vectorIN7testing8internal13edit_distance8EditTypeENS_9allocatorIS4_EEE11__make_iterB8ne190102EPS4_
FNA:48,66,_ZNSt3__16vectorINS_12basic_stringIcNS_11char_traitsIcEENS_9allocatorIcEEEENS4_IS6_EEE11__make_iterB8ne190102EPS6_
FNA:48,2,_ZNSt3__16vectorIPN7testing11EnvironmentENS_9allocatorIS3_EEE11__make_iterB8ne190102EPS3_
FNA:48,0,_ZNSt3__16vectorIPN7testing17TestEventListenerENS_9allocatorIS3_EEE11__make_iterB8ne190102EPS3_
FNA:48,18,_ZNSt3__16vectorIPN7testing8TestInfoENS_9allocatorIS3_EEE11__make_iterB8ne190102EPS3_
FNA:48,2,_ZNSt3__16vectorIPN7testing8internal30ParameterizedTestSuiteInfoBaseENS_9allocatorIS4_EEE11__make_iterB8ne190102EPS4_
FNA:48,21,_ZNSt3__16vectorIPN7testing9TestSuiteENS_9allocatorIS3_EEE11__make_iterB8ne190102EPS3_
FNL:49,859
FNA:49,180,_ZNKSt3__16vectorIN7testing14TestPartResultENS_9allocatorIS2_EEE11__make_iterB8ne190102EPKS2_
FNA:49,0,_ZNKSt3__16vectorIN7testing8internal13edit_distance8EditTypeENS_9allocatorIS4_EEE11__make_iterB8ne190102EPKS4_
FNA:49,108,_ZNKSt3__16vectorINS_12basic_stringIcNS_11char_traitsIcEENS_9allocatorIcEEEENS4_IS6_EEE11__make_iterB8ne190102EPKS6_
FNA:49,4,_ZNKSt3__16vectorIPN7testing11EnvironmentENS_9allocatorIS3_EEE11__make_iterB8ne190102EPKS3_
FNA:49,0,_ZNKSt3__16vectorIPN7testing17TestEventListenerENS_9allocatorIS3_EEE11__make_iterB8ne190102EPKS3_
FNA:49,188,_ZNKSt3__16vectorIPN7testing8TestInfoENS_9allocatorIS3_EEE11__make_iterB8ne190102EPKS3_
FNA:49,28,_ZNKSt3__16vectorIPN7testing9TestSuiteENS_9allocatorIS3_EEE11__make_iterB8ne190102EPKS3_
FNL:50,881
FNA:50,0,_ZNSt3__16vectorIN7testing8internal9TraceInfoENS_9allocatorIS3_EEE17__destruct_at_endB8ne190102EPS3_
FNA:50,0,_ZNSt3__16vectorIPN7testing17TestEventListenerENS_9allocatorIS3_EEE17__destruct_at_endB8ne190102EPS3_
FNL:51,906
FNA:51,0,_ZNKSt3__16vectorIN7testing12TestPropertyENS_9allocatorIS2_EEE14__annotate_newB8ne190102Em
FNA:51,0,_ZNKSt3__16vectorIN7testing14TestPartResultENS_9allocatorIS2_EEE14__annotate_newB8ne190102Em
FNA:51,0,_ZNKSt3__16vectorIN7testing8internal13edit_distance8EditTypeENS_9allocatorIS4_EEE14__annotate_newB8ne190102Em
FNA:51,0,_ZNKSt3__16vectorIN7testing8internal9TraceInfoENS_9allocatorIS3_EEE14__annotate_newB8ne190102Em
FNA:51,0,_ZNKSt3__16vectorINS0_IN7testing8internal13edit_distance8EditTypeENS_9allocatorIS4_EEEENS5_IS7_EEE14__annotate_newB8ne190102Em
FNA:51,0,_ZNKSt3__16vectorINS0_IdNS_9allocatorIdEEEENS1_IS3_EEE14__annotate_newB8ne190102Em
FNA:51,23,_ZNKSt3__16vectorINS_12basic_stringIcNS_11char_traitsIcEENS_9allocatorIcEEEENS4_IS6_EEE14__annotate_newB8ne190102Em
FNA:51,0,_ZNKSt3__16vectorIPN7testing11EnvironmentENS_9allocatorIS3_EEE14__annotate_newB8ne190102Em
FNA:51,1,_ZNKSt3__16vectorIPN7testing17TestEventListenerENS_9allocatorIS3_EEE14__annotate_newB8ne190102Em
FNA:51,10,_ZNKSt3__16vectorIPN7testing8TestInfoENS_9allocatorIS3_EEE14__annotate_newB8ne190102Em
FNA:51,3,_ZNKSt3__16vectorIPN7testing9TestSuiteENS_9allocatorIS3_EEE14__annotate_newB8ne190102Em
FNA:51,0,_ZNKSt3__16vectorIPcNS_9allocatorIS1_EEE14__annotate_newB8ne190102Em
FNA:51,0,_ZNKSt3__16vectorIdNS_9allocatorIdEEE14__annotate_newB8ne190102Em
FNA:51,13,_ZNKSt3__16vectorIiNS_9allocatorIiEEE14__annotate_newB8ne190102Em
FNA:51,0,_ZNKSt3__16vectorImNS_9allocatorImEEE14__annotate_newB8ne190102Em
FNL:52,913
FNA:52,0,_ZNKSt3__16vectorIN7testing12TestPropertyENS_9allocatorIS2_EEE17__annotate_deleteB8ne190102Ev
FNA:52,0,_ZNKSt3__16vectorIN7testing14TestPartResultENS_9allocatorIS2_EEE17__annotate_deleteB8ne190102Ev
FNA:52,0,_ZNKSt3__16vectorIN7testing8internal13edit_distance8EditTypeENS_9allocatorIS4_EEE17__annotate_deleteB8ne190102Ev
FNA:52,0,_ZNKSt3__16vectorIN7testing8internal9TraceInfoENS_9allocatorIS3_EEE17__annotate_deleteB8ne190102Ev
FNA:52,0,_ZNKSt3__16vectorINS0_IN7testing8internal13edit_distance8EditTypeENS_9allocatorIS4_EEEENS5_IS7_EEE17__annotate_deleteB8ne190102Ev
FNA:52,0,_ZNKSt3__16vectorINS0_IdNS_9allocatorIdEEEENS1_IS3_EEE17__annotate_deleteB8ne190102Ev
FNA:52,39,_ZNKSt3__16vectorINS_12basic_stringIcNS_11char_traitsIcEENS_9allocatorIcEEEENS4_IS6_EEE17__annotate_deleteB8ne190102Ev
FNA:52,0,_ZNKSt3__16vectorIPN7testing11EnvironmentENS_9allocatorIS3_EEE17__annotate_deleteB8ne190102Ev
FNA:52,1,_ZNKSt3__16vectorIPN7testing17TestEventListenerENS_9allocatorIS3_EEE17__annotate_deleteB8ne190102Ev
FNA:52,10,_ZNKSt3__16vectorIPN7testing8TestInfoENS_9allocatorIS3_EEE17__annotate_deleteB8ne190102Ev
FNA:52,0,_ZNKSt3__16vectorIPN7testing8internal30ParameterizedTestSuiteInfoBaseENS_9allocatorIS4_EEE17__annotate_deleteB8ne190102Ev
FNA:52,3,_ZNKSt3__16vectorIPN7testing9TestSuiteENS_9allocatorIS3_EEE17__annotate_deleteB8ne190102Ev
FNA:52,0,_ZNKSt3__16vectorIPcNS_9allocatorIS1_EEE17__annotate_deleteB8ne190102Ev
FNA:52,0,_ZNKSt3__16vectorIdNS_9allocatorIdEEE17__annotate_deleteB8ne190102Ev
FNA:52,13,_ZNKSt3__16vectorIiNS_9allocatorIiEEE17__annotate_deleteB8ne190102Ev
FNA:52,0,_ZNKSt3__16vectorImNS_9allocatorImEEE17__annotate_deleteB8ne190102Ev
FNL:53,926
FNA:53,16,_ZNKSt3__16vectorIN7testing12TestPropertyENS_9allocatorIS2_EEE17__annotate_shrinkB8ne190102Em
FNA:53,16,_ZNKSt3__16vectorIN7testing14TestPartResultENS_9allocatorIS2_EEE17__annotate_shrinkB8ne190102Em
FNA:53,0,_ZNKSt3__16vectorIN7testing8internal9TraceInfoENS_9allocatorIS3_EEE17__annotate_shrinkB8ne190102Em
FNA:53,1,_ZNKSt3__16vectorINS_12basic_stringIcNS_11char_traitsIcEENS_9allocatorIcEEEENS4_IS6_EEE17__annotate_shrinkB8ne190102Em
FNA:53,1,_ZNKSt3__16vectorIPN7testing11EnvironmentENS_9allocatorIS3_EEE17__annotate_shrinkB8ne190102Em
FNA:53,0,_ZNKSt3__16vectorIPN7testing17TestEventListenerENS_9allocatorIS3_EEE17__annotate_shrinkB8ne190102Em
FNL:54,934
FNA:54,0,_ZNSt3__16vectorIN7testing12TestPropertyENS_9allocatorIS2_EEE21_ConstructTransactionC1B8ne190102ERS5_m
FNA:54,0,_ZNSt3__16vectorIN7testing12TestPropertyENS_9allocatorIS2_EEE21_ConstructTransactionC2B8ne190102ERS5_m
FNA:54,0,_ZNSt3__16vectorIN7testing14TestPartResultENS_9allocatorIS2_EEE21_ConstructTransactionC1B8ne190102ERS5_m
FNA:54,0,_ZNSt3__16vectorIN7testing14TestPartResultENS_9allocatorIS2_EEE21_ConstructTransactionC2B8ne190102ERS5_m
FNA:54,0,_ZNSt3__16vectorIN7testing8internal13edit_distance8EditTypeENS_9allocatorIS4_EEE21_ConstructTransactionC1B8ne190102ERS7_m
FNA:54,0,_ZNSt3__16vectorIN7testing8internal13edit_distance8EditTypeENS_9allocatorIS4_EEE21_ConstructTransactionC2B8ne190102ERS7_m
FNA:54,0,_ZNSt3__16vectorIN7testing8internal9TraceInfoENS_9allocatorIS3_EEE21_ConstructTransactionC1B8ne190102ERS6_m
FNA:54,0,_ZNSt3__16vectorIN7testing8internal9TraceInfoENS_9allocatorIS3_EEE21_ConstructTransactionC2B8ne190102ERS6_m
FNA:54,0,_ZNSt3__16vectorINS0_IN7testing8internal13edit_distance8EditTypeENS_9allocatorIS4_EEEENS5_IS7_EEE21_ConstructTransactionC1B8ne190102ERS9_m
FNA:54,0,_ZNSt3__16vectorINS0_IN7testing8internal13edit_distance8EditTypeENS_9allocatorIS4_EEEENS5_IS7_EEE21_ConstructTransactionC2B8ne190102ERS9_m
FNA:54,0,_ZNSt3__16vectorINS0_IdNS_9allocatorIdEEEENS1_IS3_EEE21_ConstructTransactionC1B8ne190102ERS5_m
FNA:54,0,_ZNSt3__16vectorINS0_IdNS_9allocatorIdEEEENS1_IS3_EEE21_ConstructTransactionC2B8ne190102ERS5_m
FNA:54,13,_ZNSt3__16vectorINS_12basic_stringIcNS_11char_traitsIcEENS_9allocatorIcEEEENS4_IS6_EEE21_ConstructTransactionC1B8ne190102ERS8_m
FNA:54,13,_ZNSt3__16vectorINS_12basic_stringIcNS_11char_traitsIcEENS_9allocatorIcEEEENS4_IS6_EEE21_ConstructTransactionC2B8ne190102ERS8_m
FNA:54,0,_ZNSt3__16vectorIPN7testing11EnvironmentENS_9allocatorIS3_EEE21_ConstructTransactionC1B8ne190102ERS6_m
FNA:54,0,_ZNSt3__16vectorIPN7testing11EnvironmentENS_9allocatorIS3_EEE21_ConstructTransactionC2B8ne190102ERS6_m
FNA:54,0,_ZNSt3__16vectorIPN7testing17TestEventListenerENS_9allocatorIS3_EEE21_ConstructTransactionC1B8ne190102ERS6_m
FNA:54,0,_ZNSt3__16vectorIPN7testing17TestEventListenerENS_9allocatorIS3_EEE21_ConstructTransactionC2B8ne190102ERS6_m
FNA:54,2,_ZNSt3__16vectorIPN7testing8TestInfoENS_9allocatorIS3_EEE21_ConstructTransactionC1B8ne190102ERS6_m
FNA:54,2,_ZNSt3__16vectorIPN7testing8TestInfoENS_9allocatorIS3_EEE21_ConstructTransactionC2B8ne190102ERS6_m
FNA:54,1,_ZNSt3__16vectorIPN7testing9TestSuiteENS_9allocatorIS3_EEE21_ConstructTransactionC1B8ne190102ERS6_m
FNA:54,1,_ZNSt3__16vectorIPN7testing9TestSuiteENS_9allocatorIS3_EEE21_ConstructTransactionC2B8ne190102ERS6_m
FNA:54,0,_ZNSt3__16vectorIPcNS_9allocatorIS1_EEE21_ConstructTransactionC1B8ne190102ERS4_m
FNA:54,0,_ZNSt3__16vectorIPcNS_9allocatorIS1_EEE21_ConstructTransactionC2B8ne190102ERS4_m
FNA:54,0,_ZNSt3__16vectorIdNS_9allocatorIdEEE21_ConstructTransactionC1B8ne190102ERS3_m
FNA:54,0,_ZNSt3__16vectorIdNS_9allocatorIdEEE21_ConstructTransactionC2B8ne190102ERS3_m
FNA:54,3,_ZNSt3__16vectorIiNS_9allocatorIiEEE21_ConstructTransactionC1B8ne190102ERS3_m
FNA:54,3,_ZNSt3__16vectorIiNS_9allocatorIiEEE21_ConstructTransactionC2B8ne190102ERS3_m
FNA:54,0,_ZNSt3__16vectorImNS_9allocatorImEEE21_ConstructTransactionC1B8ne190102ERS3_m
FNA:54,0,_ZNSt3__16vectorImNS_9allocatorImEEE21_ConstructTransactionC2B8ne190102ERS3_m
FNL:55,941
FNA:55,0,_ZNSt3__16vectorIN7testing12TestPropertyENS_9allocatorIS2_EEE21_ConstructTransactionD1B8ne190102Ev
FNA:55,0,_ZNSt3__16vectorIN7testing12TestPropertyENS_9allocatorIS2_EEE21_ConstructTransactionD2B8ne190102Ev
FNA:55,0,_ZNSt3__16vectorIN7testing14TestPartResultENS_9allocatorIS2_EEE21_ConstructTransactionD1B8ne190102Ev
FNA:55,0,_ZNSt3__16vectorIN7testing14TestPartResultENS_9allocatorIS2_EEE21_ConstructTransactionD2B8ne190102Ev
FNA:55,0,_ZNSt3__16vectorIN7testing8internal13edit_distance8EditTypeENS_9allocatorIS4_EEE21_ConstructTransactionD1B8ne190102Ev
FNA:55,0,_ZNSt3__16vectorIN7testing8internal13edit_distance8EditTypeENS_9allocatorIS4_EEE21_ConstructTransactionD2B8ne190102Ev
FNA:55,0,_ZNSt3__16vectorIN7testing8internal9TraceInfoENS_9allocatorIS3_EEE21_ConstructTransactionD1B8ne190102Ev
FNA:55,0,_ZNSt3__16vectorIN7testing8internal9TraceInfoENS_9allocatorIS3_EEE21_ConstructTransactionD2B8ne190102Ev
FNA:55,0,_ZNSt3__16vectorINS0_IN7testing8internal13edit_distance8EditTypeENS_9allocatorIS4_EEEENS5_IS7_EEE21_ConstructTransactionD1B8ne190102Ev
FNA:55,0,_ZNSt3__16vectorINS0_IN7testing8internal13edit_distance8EditTypeENS_9allocatorIS4_EEEENS5_IS7_EEE21_ConstructTransactionD2B8ne190102Ev
FNA:55,0,_ZNSt3__16vectorINS0_IdNS_9allocatorIdEEEENS1_IS3_EEE21_ConstructTransactionD1B8ne190102Ev
FNA:55,0,_ZNSt3__16vectorINS0_IdNS_9allocatorIdEEEENS1_IS3_EEE21_ConstructTransactionD2B8ne190102Ev
FNA:55,13,_ZNSt3__16vectorINS_12basic_stringIcNS_11char_traitsIcEENS_9allocatorIcEEEENS4_IS6_EEE21_ConstructTransactionD1B8ne190102Ev
FNA:55,13,_ZNSt3__16vectorINS_12basic_stringIcNS_11char_traitsIcEENS_9allocatorIcEEEENS4_IS6_EEE21_ConstructTransactionD2B8ne190102Ev
FNA:55,0,_ZNSt3__16vectorIPN7testing11EnvironmentENS_9allocatorIS3_EEE21_ConstructTransactionD1B8ne190102Ev
FNA:55,0,_ZNSt3__16vectorIPN7testing11EnvironmentENS_9allocatorIS3_EEE21_ConstructTransactionD2B8ne190102Ev
FNA:55,0,_ZNSt3__16vectorIPN7testing17TestEventListenerENS_9allocatorIS3_EEE21_ConstructTransactionD1B8ne190102Ev
FNA:55,0,_ZNSt3__16vectorIPN7testing17TestEventListenerENS_9allocatorIS3_EEE21_ConstructTransactionD2B8ne190102Ev
FNA:55,2,_ZNSt3__16vectorIPN7testing8TestInfoENS_9allocatorIS3_EEE21_ConstructTransactionD1B8ne190102Ev
FNA:55,2,_ZNSt3__16vectorIPN7testing8TestInfoENS_9allocatorIS3_EEE21_ConstructTransactionD2B8ne190102Ev
FNA:55,1,_ZNSt3__16vectorIPN7testing9TestSuiteENS_9allocatorIS3_EEE21_ConstructTransactionD1B8ne190102Ev
FNA:55,1,_ZNSt3__16vectorIPN7testing9TestSuiteENS_9allocatorIS3_EEE21_ConstructTransactionD2B8ne190102Ev
FNA:55,0,_ZNSt3__16vectorIPcNS_9allocatorIS1_EEE21_ConstructTransactionD1B8ne190102Ev
FNA:55,0,_ZNSt3__16vectorIPcNS_9allocatorIS1_EEE21_ConstructTransactionD2B8ne190102Ev
FNA:55,0,_ZNSt3__16vectorIdNS_9allocatorIdEEE21_ConstructTransactionD1B8ne190102Ev
FNA:55,0,_ZNSt3__16vectorIdNS_9allocatorIdEEE21_ConstructTransactionD2B8ne190102Ev
FNA:55,3,_ZNSt3__16vectorIiNS_9allocatorIiEEE21_ConstructTransactionD1B8ne190102Ev
FNA:55,3,_ZNSt3__16vectorIiNS_9allocatorIiEEE21_ConstructTransactionD2B8ne190102Ev
FNA:55,0,_ZNSt3__16vectorImNS_9allocatorImEEE21_ConstructTransactionD1B8ne190102Ev
FNA:55,0,_ZNSt3__16vectorImNS_9allocatorImEEE21_ConstructTransactionD2B8ne190102Ev
FNL:56,959
FNA:56,0,_ZNSt3__16vectorIN7testing12TestPropertyENS_9allocatorIS2_EEE22__construct_one_at_endB8ne190102IJRKS2_EEEvDpOT_
FNA:56,0,_ZNSt3__16vectorIN7testing14TestPartResultENS_9allocatorIS2_EEE22__construct_one_at_endB8ne190102IJRKS2_EEEvDpOT_
FNA:56,0,_ZNSt3__16vectorIN7testing8internal13edit_distance8EditTypeENS_9allocatorIS4_EEE22__construct_one_at_endB8ne190102IJRKS4_EEEvDpOT_
FNA:56,0,_ZNSt3__16vectorIN7testing8internal9TraceInfoENS_9allocatorIS3_EEE22__construct_one_at_endB8ne190102IJRKS3_EEEvDpOT_
FNA:56,0,_ZNSt3__16vectorINS_12basic_stringIcNS_11char_traitsIcEENS_9allocatorIcEEEENS4_IS6_EEE22__construct_one_at_endB8ne190102IJRKS6_EEEvDpOT_
FNA:56,12,_ZNSt3__16vectorINS_12basic_stringIcNS_11char_traitsIcEENS_9allocatorIcEEEENS4_IS6_EEE22__construct_one_at_endB8ne190102IJS6_EEEvDpOT_
FNA:56,0,_ZNSt3__16vectorIPN7testing11EnvironmentENS_9allocatorIS3_EEE22__construct_one_at_endB8ne190102IJRKS3_EEEvDpOT_
FNA:56,0,_ZNSt3__16vectorIPN7testing17TestEventListenerENS_9allocatorIS3_EEE22__construct_one_at_endB8ne190102IJRKS3_EEEvDpOT_
FNA:56,2,_ZNSt3__16vectorIPN7testing8TestInfoENS_9allocatorIS3_EEE22__construct_one_at_endB8ne190102IJRKS3_EEEvDpOT_
FNA:56,1,_ZNSt3__16vectorIPN7testing9TestSuiteENS_9allocatorIS3_EEE22__construct_one_at_endB8ne190102IJRKS3_EEEvDpOT_
FNA:56,0,_ZNSt3__16vectorIPcNS_9allocatorIS1_EEE22__construct_one_at_endB8ne190102IJS1_EEEvDpOT_
FNA:56,3,_ZNSt3__16vectorIiNS_9allocatorIiEEE22__construct_one_at_endB8ne190102IJiEEEvDpOT_
FNA:56,0,_ZNSt3__16vectorImNS_9allocatorImEEE22__construct_one_at_endB8ne190102IJmEEEvDpOT_
FNL:57,965
FNA:57,0,_ZNSt3__16vectorIN7testing12TestPropertyENS_9allocatorIS2_EEE7__allocB8ne190102Ev
FNA:57,0,_ZNSt3__16vectorIN7testing14TestPartResultENS_9allocatorIS2_EEE7__allocB8ne190102Ev
FNA:57,0,_ZNSt3__16vectorIN7testing8internal13edit_distance8EditTypeENS_9allocatorIS4_EEE7__allocB8ne190102Ev
FNA:57,0,_ZNSt3__16vectorIN7testing8internal9TraceInfoENS_9allocatorIS3_EEE7__allocB8ne190102Ev
FNA:57,0,_ZNSt3__16vectorINS0_IN7testing8internal13edit_distance8EditTypeENS_9allocatorIS4_EEEENS5_IS7_EEE7__allocB8ne190102Ev
FNA:57,0,_ZNSt3__16vectorINS0_IdNS_9allocatorIdEEEENS1_IS3_EEE7__allocB8ne190102Ev
FNA:57,124,_ZNSt3__16vectorINS_12basic_stringIcNS_11char_traitsIcEENS_9allocatorIcEEEENS4_IS6_EEE7__allocB8ne190102Ev
FNA:57,0,_ZNSt3__16vectorIPN7testing11EnvironmentENS_9allocatorIS3_EEE7__allocB8ne190102Ev
FNA:57,2,_ZNSt3__16vectorIPN7testing17TestEventListenerENS_9allocatorIS3_EEE7__allocB8ne190102Ev
FNA:57,22,_ZNSt3__16vectorIPN7testing8TestInfoENS_9allocatorIS3_EEE7__allocB8ne190102Ev
FNA:57,0,_ZNSt3__16vectorIPN7testing8internal30ParameterizedTestSuiteInfoBaseENS_9allocatorIS4_EEE7__allocB8ne190102Ev
FNA:57,7,_ZNSt3__16vectorIPN7testing9TestSuiteENS_9allocatorIS3_EEE7__allocB8ne190102Ev
FNA:57,0,_ZNSt3__16vectorIPcNS_9allocatorIS1_EEE7__allocB8ne190102Ev
FNA:57,0,_ZNSt3__16vectorIdNS_9allocatorIdEEE7__allocB8ne190102Ev
FNA:57,29,_ZNSt3__16vectorIiNS_9allocatorIiEEE7__allocB8ne190102Ev
FNA:57,0,_ZNSt3__16vectorImNS_9allocatorImEEE7__allocB8ne190102Ev
FNL:58,968
FNA:58,0,_ZNKSt3__16vectorIN7testing12TestPropertyENS_9allocatorIS2_EEE7__allocB8ne190102Ev
FNA:58,0,_ZNKSt3__16vectorIN7testing14TestPartResultENS_9allocatorIS2_EEE7__allocB8ne190102Ev
FNA:58,0,_ZNKSt3__16vectorIN7testing8internal13edit_distance8EditTypeENS_9allocatorIS4_EEE7__allocB8ne190102Ev
FNA:58,0,_ZNKSt3__16vectorIN7testing8internal9TraceInfoENS_9allocatorIS3_EEE7__allocB8ne190102Ev
FNA:58,0,_ZNKSt3__16vectorINS0_IN7testing8internal13edit_distance8EditTypeENS_9allocatorIS4_EEEENS5_IS7_EEE7__allocB8ne190102Ev
FNA:58,0,_ZNKSt3__16vectorINS0_IdNS_9allocatorIdEEEENS1_IS3_EEE7__allocB8ne190102Ev
FNA:58,25,_ZNKSt3__16vectorINS_12basic_stringIcNS_11char_traitsIcEENS_9allocatorIcEEEENS4_IS6_EEE7__allocB8ne190102Ev
FNA:58,0,_ZNKSt3__16vectorIPN7testing11EnvironmentENS_9allocatorIS3_EEE7__allocB8ne190102Ev
FNA:58,1,_ZNKSt3__16vectorIPN7testing17TestEventListenerENS_9allocatorIS3_EEE7__allocB8ne190102Ev
FNA:58,10,_ZNKSt3__16vectorIPN7testing8TestInfoENS_9allocatorIS3_EEE7__allocB8ne190102Ev
FNA:58,3,_ZNKSt3__16vectorIPN7testing9TestSuiteENS_9allocatorIS3_EEE7__allocB8ne190102Ev
FNA:58,0,_ZNKSt3__16vectorIPcNS_9allocatorIS1_EEE7__allocB8ne190102Ev
FNA:58,0,_ZNKSt3__16vectorIdNS_9allocatorIdEEE7__allocB8ne190102Ev
FNA:58,13,_ZNKSt3__16vectorIiNS_9allocatorIiEEE7__allocB8ne190102Ev
FNA:58,0,_ZNKSt3__16vectorImNS_9allocatorImEEE7__allocB8ne190102Ev
FNL:59,971
FNA:59,0,_ZNSt3__16vectorIN7testing12TestPropertyENS_9allocatorIS2_EEE9__end_capB8ne190102Ev
FNA:59,0,_ZNSt3__16vectorIN7testing14TestPartResultENS_9allocatorIS2_EEE9__end_capB8ne190102Ev
FNA:59,0,_ZNSt3__16vectorIN7testing8internal13edit_distance8EditTypeENS_9allocatorIS4_EEE9__end_capB8ne190102Ev
FNA:59,0,_ZNSt3__16vectorIN7testing8internal9TraceInfoENS_9allocatorIS3_EEE9__end_capB8ne190102Ev
FNA:59,0,_ZNSt3__16vectorINS0_IN7testing8internal13edit_distance8EditTypeENS_9allocatorIS4_EEEENS5_IS7_EEE9__end_capB8ne190102Ev
FNA:59,0,_ZNSt3__16vectorINS0_IdNS_9allocatorIdEEEENS1_IS3_EEE9__end_capB8ne190102Ev
FNA:59,74,_ZNSt3__16vectorINS_12basic_stringIcNS_11char_traitsIcEENS_9allocatorIcEEEENS4_IS6_EEE9__end_capB8ne190102Ev
FNA:59,0,_ZNSt3__16vectorIPN7testing11EnvironmentENS_9allocatorIS3_EEE9__end_capB8ne190102Ev
FNA:59,2,_ZNSt3__16vectorIPN7testing17TestEventListenerENS_9allocatorIS3_EEE9__end_capB8ne190102Ev
FNA:59,22,_ZNSt3__16vectorIPN7testing8TestInfoENS_9allocatorIS3_EEE9__end_capB8ne190102Ev
FNA:59,7,_ZNSt3__16vectorIPN7testing9TestSuiteENS_9allocatorIS3_EEE9__end_capB8ne190102Ev
FNA:59,0,_ZNSt3__16vectorIPcNS_9allocatorIS1_EEE9__end_capB8ne190102Ev
FNA:59,0,_ZNSt3__16vectorIdNS_9allocatorIdEEE9__end_capB8ne190102Ev
FNA:59,29,_ZNSt3__16vectorIiNS_9allocatorIiEEE9__end_capB8ne190102Ev
FNA:59,0,_ZNSt3__16vectorImNS_9allocatorImEEE9__end_capB8ne190102Ev
FNL:60,974
FNA:60,0,_ZNKSt3__16vectorIN7testing12TestPropertyENS_9allocatorIS2_EEE9__end_capB8ne190102Ev
FNA:60,0,_ZNKSt3__16vectorIN7testing14TestPartResultENS_9allocatorIS2_EEE9__end_capB8ne190102Ev
FNA:60,0,_ZNKSt3__16vectorIN7testing8internal13edit_distance8EditTypeENS_9allocatorIS4_EEE9__end_capB8ne190102Ev
FNA:60,0,_ZNKSt3__16vectorIN7testing8internal9TraceInfoENS_9allocatorIS3_EEE9__end_capB8ne190102Ev
FNA:60,0,_ZNKSt3__16vectorINS0_IN7testing8internal13edit_distance8EditTypeENS_9allocatorIS4_EEEENS5_IS7_EEE9__end_capB8ne190102Ev
FNA:60,0,_ZNKSt3__16vectorINS0_IdNS_9allocatorIdEEEENS1_IS3_EEE9__end_capB8ne190102Ev
FNA:60,39,_ZNKSt3__16vectorINS_12basic_stringIcNS_11char_traitsIcEENS_9allocatorIcEEEENS4_IS6_EEE9__end_capB8ne190102Ev
FNA:60,0,_ZNKSt3__16vectorIPN7testing11EnvironmentENS_9allocatorIS3_EEE9__end_capB8ne190102Ev
FNA:60,1,_ZNKSt3__16vectorIPN7testing17TestEventListenerENS_9allocatorIS3_EEE9__end_capB8ne190102Ev
FNA:60,10,_ZNKSt3__16vectorIPN7testing8TestInfoENS_9allocatorIS3_EEE9__end_capB8ne190102Ev
FNA:60,0,_ZNKSt3__16vectorIPN7testing8internal30ParameterizedTestSuiteInfoBaseENS_9allocatorIS4_EEE9__end_capB8ne190102Ev
FNA:60,3,_ZNKSt3__16vectorIPN7testing9TestSuiteENS_9allocatorIS3_EEE9__end_capB8ne190102Ev
FNA:60,0,_ZNKSt3__16vectorIPcNS_9allocatorIS1_EEE9__end_capB8ne190102Ev
FNA:60,0,_ZNKSt3__16vectorIdNS_9allocatorIdEEE9__end_capB8ne190102Ev
FNA:60,13,_ZNKSt3__16vectorIiNS_9allocatorIiEEE9__end_capB8ne190102Ev
FNA:60,0,_ZNKSt3__16vectorImNS_9allocatorImEEE9__end_capB8ne190102Ev
FNL:61,978
FNA:61,16,_ZNSt3__16vectorIN7testing12TestPropertyENS_9allocatorIS2_EEE7__clearB8ne190102Ev
FNA:61,16,_ZNSt3__16vectorIN7testing14TestPartResultENS_9allocatorIS2_EEE7__clearB8ne190102Ev
FNA:61,0,_ZNSt3__16vectorIN7testing8internal13edit_distance8EditTypeENS_9allocatorIS4_EEE7__clearB8ne190102Ev
FNA:61,0,_ZNSt3__16vectorIN7testing8internal9TraceInfoENS_9allocatorIS3_EEE7__clearB8ne190102Ev
FNA:61,0,_ZNSt3__16vectorINS0_IN7testing8internal13edit_distance8EditTypeENS_9allocatorIS4_EEEENS5_IS7_EEE7__clearB8ne190102Ev
FNA:61,0,_ZNSt3__16vectorINS0_IdNS_9allocatorIdEEEENS1_IS3_EEE7__clearB8ne190102Ev
FNA:61,18,_ZNSt3__16vectorINS_12basic_stringIcNS_11char_traitsIcEENS_9allocatorIcEEEENS4_IS6_EEE7__clearB8ne190102Ev
FNA:61,1,_ZNSt3__16vectorIPN7testing11EnvironmentENS_9allocatorIS3_EEE7__clearB8ne190102Ev
FNA:61,0,_ZNSt3__16vectorIPN7testing17TestEventListenerENS_9allocatorIS3_EEE7__clearB8ne190102Ev
FNA:61,0,_ZNSt3__16vectorIPN7testing8TestInfoENS_9allocatorIS3_EEE7__clearB8ne190102Ev
FNA:61,0,_ZNSt3__16vectorIPN7testing8internal30ParameterizedTestSuiteInfoBaseENS_9allocatorIS4_EEE7__clearB8ne190102Ev
FNA:61,0,_ZNSt3__16vectorIPN7testing9TestSuiteENS_9allocatorIS3_EEE7__clearB8ne190102Ev
FNA:61,0,_ZNSt3__16vectorIPcNS_9allocatorIS1_EEE7__clearB8ne190102Ev
FNA:61,0,_ZNSt3__16vectorIdNS_9allocatorIdEEE7__clearB8ne190102Ev
FNA:61,0,_ZNSt3__16vectorIiNS_9allocatorIiEEE7__clearB8ne190102Ev
FNA:61,0,_ZNSt3__16vectorImNS_9allocatorImEEE7__clearB8ne190102Ev
FNL:62,982
FNA:62,16,_ZNSt3__16vectorIN7testing12TestPropertyENS_9allocatorIS2_EEE22__base_destruct_at_endB8ne190102EPS2_
FNA:62,16,_ZNSt3__16vectorIN7testing14TestPartResultENS_9allocatorIS2_EEE22__base_destruct_at_endB8ne190102EPS2_
FNA:62,0,_ZNSt3__16vectorIN7testing8internal13edit_distance8EditTypeENS_9allocatorIS4_EEE22__base_destruct_at_endB8ne190102EPS4_
FNA:62,0,_ZNSt3__16vectorIN7testing8internal9TraceInfoENS_9allocatorIS3_EEE22__base_destruct_at_endB8ne190102EPS3_
FNA:62,0,_ZNSt3__16vectorINS0_IN7testing8internal13edit_distance8EditTypeENS_9allocatorIS4_EEEENS5_IS7_EEE22__base_destruct_at_endB8ne190102EPS7_
FNA:62,0,_ZNSt3__16vectorINS0_IdNS_9allocatorIdEEEENS1_IS3_EEE22__base_destruct_at_endB8ne190102EPS3_
FNA:62,18,_ZNSt3__16vectorINS_12basic_stringIcNS_11char_traitsIcEENS_9allocatorIcEEEENS4_IS6_EEE22__base_destruct_at_endB8ne190102EPS6_
FNA:62,1,_ZNSt3__16vectorIPN7testing11EnvironmentENS_9allocatorIS3_EEE22__base_destruct_at_endB8ne190102EPS3_
FNA:62,0,_ZNSt3__16vectorIPN7testing17TestEventListenerENS_9allocatorIS3_EEE22__base_destruct_at_endB8ne190102EPS3_
FNA:62,0,_ZNSt3__16vectorIPN7testing8TestInfoENS_9allocatorIS3_EEE22__base_destruct_at_endB8ne190102EPS3_
FNA:62,0,_ZNSt3__16vectorIPN7testing8internal30ParameterizedTestSuiteInfoBaseENS_9allocatorIS4_EEE22__base_destruct_at_endB8ne190102EPS4_
FNA:62,0,_ZNSt3__16vectorIPN7testing9TestSuiteENS_9allocatorIS3_EEE22__base_destruct_at_endB8ne190102EPS3_
FNA:62,0,_ZNSt3__16vectorIPcNS_9allocatorIS1_EEE22__base_destruct_at_endB8ne190102EPS1_
FNA:62,0,_ZNSt3__16vectorIdNS_9allocatorIdEEE22__base_destruct_at_endB8ne190102EPd
FNA:62,0,_ZNSt3__16vectorIiNS_9allocatorIiEEE22__base_destruct_at_endB8ne190102EPi
FNA:62,0,_ZNSt3__16vectorImNS_9allocatorImEEE22__base_destruct_at_endB8ne190102EPm
FNL:63,993
FNA:63,2,_ZNSt3__16vectorINS_12basic_stringIcNS_11char_traitsIcEENS_9allocatorIcEEEENS4_IS6_EEE19__move_assign_allocB8ne190102ERS8_
FNL:64,999
FNA:64,0,_ZNKSt3__16vectorIN7testing12TestPropertyENS_9allocatorIS2_EEE20__throw_length_errorB8ne190102Ev
FNA:64,0,_ZNKSt3__16vectorIN7testing14TestPartResultENS_9allocatorIS2_EEE20__throw_length_errorB8ne190102Ev
FNA:64,0,_ZNKSt3__16vectorIN7testing8internal13edit_distance8EditTypeENS_9allocatorIS4_EEE20__throw_length_errorB8ne190102Ev
FNA:64,0,_ZNKSt3__16vectorIN7testing8internal9TraceInfoENS_9allocatorIS3_EEE20__throw_length_errorB8ne190102Ev
FNA:64,0,_ZNKSt3__16vectorINS0_IN7testing8internal13edit_distance8EditTypeENS_9allocatorIS4_EEEENS5_IS7_EEE20__throw_length_errorB8ne190102Ev
FNA:64,0,_ZNKSt3__16vectorINS0_IdNS_9allocatorIdEEEENS1_IS3_EEE20__throw_length_errorB8ne190102Ev
FNA:64,0,_ZNKSt3__16vectorINS_12basic_stringIcNS_11char_traitsIcEENS_9allocatorIcEEEENS4_IS6_EEE20__throw_length_errorB8ne190102Ev
FNA:64,0,_ZNKSt3__16vectorIPN7testing11EnvironmentENS_9allocatorIS3_EEE20__throw_length_errorB8ne190102Ev
FNA:64,0,_ZNKSt3__16vectorIPN7testing17TestEventListenerENS_9allocatorIS3_EEE20__throw_length_errorB8ne190102Ev
FNA:64,0,_ZNKSt3__16vectorIPN7testing8TestInfoENS_9allocatorIS3_EEE20__throw_length_errorB8ne190102Ev
FNA:64,0,_ZNKSt3__16vectorIPN7testing9TestSuiteENS_9allocatorIS3_EEE20__throw_length_errorB8ne190102Ev
FNA:64,0,_ZNKSt3__16vectorIPcNS_9allocatorIS1_EEE20__throw_length_errorB8ne190102Ev
FNA:64,0,_ZNKSt3__16vectorIdNS_9allocatorIdEEE20__throw_length_errorB8ne190102Ev
FNA:64,0,_ZNKSt3__16vectorIiNS_9allocatorIiEEE20__throw_length_errorB8ne190102Ev
FNA:64,0,_ZNKSt3__16vectorImNS_9allocatorImEEE20__throw_length_errorB8ne190102Ev
FNF:65
FNH:49
DA:430,154
DA:431,154
DA:441,0
DA:442,0
DA:443,0
DA:444,0
DA:445,0
DA:446,0
DA:447,0
DA:448,0
DA:462,0
DA:463,0
DA:464,0
DA:465,0
DA:466,0
DA:467,0
DA:468,0
DA:469,0
DA:526,66
DA:528,31
DA:529,31
DA:530,17
DA:531,17
DA:532,17
DA:533,17
DA:534,31
DA:541,62
DA:614,20
DA:615,20
DA:620,1
DA:621,1
DA:627,0
DA:634,507
DA:635,507
DA:637,66
DA:638,66
DA:640,14
DA:641,14
DA:652,2
DA:654,2
DA:669,0
DA:670,0
DA:747,34
DA:748,34
DA:749,34
DA:750,34
DA:751,34
DA:766,79
DA:767,79
DA:768,77
DA:769,77
DA:778,1
DA:779,1
DA:780,0
DA:781,1
DA:782,1
DA:783,1
DA:784,1
DA:785,1
DA:786,1
DA:795,2
DA:796,2
DA:798,2
DA:799,1
DA:800,1
DA:801,1
DA:803,2
DA:804,2
DA:839,109
DA:855,109
DA:859,508
DA:867,508
DA:881,0
DA:882,0
DA:883,0
DA:884,0
DA:885,0
DA:906,50
DA:911,50
DA:913,66
DA:917,66
DA:926,34
DA:931,34
DA:934,38
DA:935,38
DA:939,38
DA:941,38
DA:942,19
DA:948,38
DA:959,18
DA:960,18
DA:961,18
DA:962,18
DA:963,18
DA:965,184
DA:966,184
DA:968,52
DA:969,52
DA:971,134
DA:972,134
DA:974,66
DA:975,66
DA:978,51
DA:979,51
DA:980,51
DA:982,51
DA:983,51
DA:984,78
DA:985,27
DA:986,51
DA:987,51
DA:993,2
DA:996,2
DA:997,2
DA:999,0
DA:1001,0
DA:1015,2
DA:1017,2
DA:1018,2
DA:1049,49
DA:1050,49
DA:1051,49
DA:1052,49
DA:1053,49
DA:1054,49
DA:1055,49
DA:1056,49
DA:1057,49
DA:1058,49
DA:1059,49
DA:1060,49
DA:1061,49
DA:1069,0
DA:1070,0
DA:1071,0
DA:1075,0
DA:1076,0
DA:1077,0
DA:1078,0
DA:1079,0
DA:1081,0
DA:1082,0
DA:1083,0
DA:1084,0
DA:1086,0
DA:1087,0
DA:1088,0
DA:1089,0
DA:1090,0
DA:1091,0
DA:1095,2
DA:1096,2
DA:1097,0
DA:1098,0
DA:1099,0
DA:1100,0
DA:1101,0
DA:1102,2
DA:1106,50
DA:1107,50
DA:1113,42
DA:1114,42
DA:1115,42
DA:1116,0
DA:1117,42
DA:1118,42
DA:1119,0
DA:1120,42
DA:1121,42
DA:1129,0
DA:1130,0
DA:1131,0
DA:1132,0
DA:1133,0
DA:1134,0
DA:1135,0
DA:1145,0
DA:1146,0
DA:1147,0
DA:1148,0
DA:1149,0
DA:1150,0
DA:1151,0
DA:1156,1
DA:1157,1
DA:1158,1
DA:1159,1
DA:1218,0
DA:1219,0
DA:1220,0
DA:1221,0
DA:1236,4
DA:1237,4
DA:1238,2
DA:1239,4
DA:1308,2
DA:1310,2
DA:1311,2
DA:1325,2
DA:1327,2
DA:1328,2
DA:1329,2
DA:1330,2
DA:1331,2
DA:1332,2
DA:1333,2
DA:1411,52
DA:1412,52
DA:1417,192
DA:1418,192
DA:1423,45
DA:1424,45
DA:1429,316
DA:1430,316
DA:1435,84
DA:1437,84
DA:1442,56
DA:1444,56
DA:1456,0
DA:1457,0
DA:1458,0
DA:1459,0
DA:1463,7
DA:1464,7
DA:1465,7
DA:1466,0
DA:1467,7
DA:1468,7
DA:1469,7
DA:1470,7
DA:1471,7
DA:1496,42
DA:1497,42
DA:1498,42
DA:1500,42
DA:1501,42
DA:1502,42
DA:1503,42
DA:1504,42
DA:1508,17
DA:1509,17
DA:1510,17
DA:1511,3
DA:1512,3
DA:1513,3
DA:1514,14
DA:1516,17
DA:1517,17
DA:1520,31
DA:1521,31
DA:1522,31
DA:1523,3
DA:1524,3
DA:1525,3
DA:1526,28
DA:1528,31
DA:1529,31
DA:1567,0
DA:1569,0
DA:1570,0
DA:1574,0
DA:1577,0
DA:1578,0
DA:1579,0
DA:1580,0
DA:1596,0
DA:1597,0
DA:1598,0
DA:1600,0
DA:1601,0
DA:1602,0
DA:1603,0
DA:1604,0
DA:1605,0
DA:1606,0
DA:1607,0
DA:1611,0
DA:1612,0
DA:1613,0
DA:1614,0
DA:1615,0
DA:1616,0
DA:1617,0
DA:1618,0
DA:1619,0
DA:1620,0
DA:1621,0
DA:1623,0
DA:1624,0
DA:1625,0
DA:1626,0
DA:1627,0
DA:1628,0
DA:1629,0
DA:1630,0
DA:1634,12
DA:1635,12
DA:1636,12
DA:1637,12
DA:1638,12
DA:1639,12
DA:1640,0
DA:1641,0
DA:1643,12
DA:1644,0
DA:1645,0
DA:1646,0
DA:1647,0
DA:1648,0
DA:1649,12
DA:1650,0
DA:1811,9
DA:1822,9
DA:1823,9
DA:1824,9
DA:1825,9
DA:1826,9
DA:1827,9
LF:318
LH:197
end_of_record
TN:
SF:/Library/Developer/CommandLineTools/SDKs/MacOSX.sdk/usr/include/c++/v1/wchar.h
FNL:0,178,179
FNA:0,0,_Z15__libcpp_wcsstrB8ne190102PKwS0_
FNL:1,182,183
FNA:1,0,_Z6wcsstrB8ne190102Ua9enable_ifIXLb1EEEPKwS0_
FNF:2
FNH:0
DA:178,0
DA:179,0
DA:182,0
DA:183,0
LF:4
LH:0
end_of_record
TN:
SF:/Users/kanecolivares/AndroidStudioProjects/MobileInventory/app/src/main/cpp/date.h
FNL:0,13,15
FNA:0,24,_ZN4DateC1ENSt3__112basic_stringIcNS0_11char_traitsIcEENS0_9allocatorIcEEEE
FNA:0,24,_ZN4DateC2ENSt3__112basic_stringIcNS0_11char_traitsIcEENS0_9allocatorIcEEEE
FNL:1,17,30
FNA:1,4,_ZN4DategtERKS_
FNL:2,32,45
FNA:2,4,_ZN4DateltERKS_
FNL:3,47,51
FNA:3,1,_ZNK4DateeqERKS_
FNL:4,54,58
FNA:4,3,_ZNK4DateneERKS_
FNL:5,62,67
FNA:5,24,_ZN4Date10parse_dateERNSt3__112basic_stringIcNS0_11char_traitsIcEENS0_9allocatorIcEEEE
FNF:6
FNH:6
DA:13,48
DA:14,24
DA:15,48
DA:17,4
DA:22,4
DA:23,1
DA:24,3
DA:25,1
DA:26,2
DA:27,1
DA:29,1
DA:30,4
DA:32,4
DA:37,4
DA:38,1
DA:39,3
DA:40,1
DA:41,2
DA:42,1
DA:44,1
DA:45,4
DA:47,1
DA:51,1
DA:54,3
DA:58,3
DA:62,24
DA:64,24
DA:65,24
DA:66,24
DA:67,24
LF:30
LH:30
end_of_record
TN:
SF:/Users/kanecolivares/AndroidStudioProjects/MobileInventory/app/src/main/cpp/googletest/googletest/include/gtest/gtest-assertion-result.h
FNL:0,140,162
FNA:0,12,_ZN7testing15AssertionResultD1Ev
FNA:0,12,_ZN7testing15AssertionResultD2Ev
FNL:1,162,168
FNA:1,12,_ZN7testing15AssertionResultC1IbEERKT_PNSt3__19enable_ifIXntsr3std14is_convertibleIS2_S0_EE5valueEvE4typeE
FNA:1,12,_ZN7testing15AssertionResultC2IbEERKT_PNSt3__19enable_ifIXntsr3std14is_convertibleIS2_S0_EE5valueEvE4typeE
FNL:2,181,181
FNA:2,12,_ZNK7testing15AssertionResultcvbEv
FNL:3,190,191
FNA:3,0,_ZNK7testing15AssertionResult7messageEv
FNL:4,194,194
FNA:4,0,_ZNK7testing15AssertionResult15failure_messageEv
FNL:5,198,201
FNA:5,0,_ZN7testing15AssertionResultlsIA100_cEERS0_RKT_
FNA:5,0,_ZN7testing15AssertionResultlsIA106_cEERS0_RKT_
FNA:5,0,_ZN7testing15AssertionResultlsIA11_cEERS0_RKT_
FNA:5,0,_ZN7testing15AssertionResultlsIA12_cEERS0_RKT_
FNA:5,0,_ZN7testing15AssertionResultlsIA13_cEERS0_RKT_
FNA:5,0,_ZN7testing15AssertionResultlsIA14_cEERS0_RKT_
FNA:5,0,_ZN7testing15AssertionResultlsIA15_cEERS0_RKT_
FNA:5,0,_ZN7testing15AssertionResultlsIA16_cEERS0_RKT_
FNA:5,0,_ZN7testing15AssertionResultlsIA17_cEERS0_RKT_
FNA:5,0,_ZN7testing15AssertionResultlsIA24_cEERS0_RKT_
FNA:5,0,_ZN7testing15AssertionResultlsIA27_cEERS0_RKT_
FNA:5,0,_ZN7testing15AssertionResultlsIA29_cEERS0_RKT_
FNA:5,0,_ZN7testing15AssertionResultlsIA2_cEERS0_RKT_
FNA:5,0,_ZN7testing15AssertionResultlsIA3_cEERS0_RKT_
FNA:5,0,_ZN7testing15AssertionResultlsIA5_cEERS0_RKT_
FNA:5,0,_ZN7testing15AssertionResultlsIA6_cEERS0_RKT_
FNA:5,0,_ZN7testing15AssertionResultlsIA7_cEERS0_RKT_
FNA:5,0,_ZN7testing15AssertionResultlsIA9_cEERS0_RKT_
FNA:5,0,_ZN7testing15AssertionResultlsINS_14TestPartResultEEERS0_RKT_
FNA:5,0,_ZN7testing15AssertionResultlsINS_7MessageEEERS0_RKT_
FNA:5,0,_ZN7testing15AssertionResultlsINSt3__112basic_stringIcNS2_11char_traitsIcEENS2_9allocatorIcEEEEEERS0_RKT_
FNA:5,0,_ZN7testing15AssertionResultlsINSt3__112basic_stringIwNS2_11char_traitsIwEENS2_9allocatorIwEEEEEERS0_RKT_
FNA:5,0,_ZN7testing15AssertionResultlsIPKcEERS0_RKT_
FNA:5,0,_ZN7testing15AssertionResultlsIPKwEERS0_RKT_
FNA:5,0,_ZN7testing15AssertionResultlsIdEERS0_RKT_
FNL:6,213,216
FNA:6,0,_ZN7testing15AssertionResult13AppendMessageERKNS_7MessageE
FNF:7
FNH:3
DA:162,36
DA:168,36
DA:181,12
DA:190,0
DA:191,0
DA:194,0
DA:198,0
DA:199,0
DA:200,0
DA:201,0
DA:213,0
DA:214,0
DA:215,0
DA:216,0
LF:14
LH:3
end_of_record
TN:
SF:/Users/kanecolivares/AndroidStudioProjects/MobileInventory/app/src/main/cpp/googletest/googletest/include/gtest/gtest-matchers.h
FNL:0,110,110
FNA:0,0,_ZN7testing19MatchResultListenerD2Ev
FNL:1,114
FNA:1,0,_ZN7testing25MatcherDescriberInterfaceC2Ev
FNL:2,116,116
FNA:2,0,_ZN7testing25MatcherDescriberInterfaceD0Ev
FNA:2,0,_ZN7testing25MatcherDescriberInterfaceD1Ev
FNA:2,0,_ZN7testing25MatcherDescriberInterfaceD2Ev
FNL:3,131,135
FNA:3,0,_ZNK7testing25MatcherDescriberInterface18DescribeNegationToEPNSt3__113basic_ostreamIcNS1_11char_traitsIcEEEE
FNL:4,183
FNA:4,0,_ZN7testing8internal24DummyMatchResultListenerD0Ev
FNA:4,0,_ZN7testing8internal24DummyMatchResultListenerD1Ev
FNA:4,0,_ZN7testing8internal24DummyMatchResultListenerD2Ev
FNL:5,185,185
FNA:5,0,_ZN7testing8internal24DummyMatchResultListenerC1Ev
FNA:5,0,_ZN7testing8internal24DummyMatchResultListenerC2Ev
FNL:6,206,207
FNA:6,0,_ZN7testing8internal17SharedPayloadBaseC2Ev
FNL:7,209,209
FNA:7,0,_ZN7testing8internal17SharedPayloadBase5UnrefEv
FNL:8,213
FNA:8,0,_ZN7testing8internal13SharedPayloadINS0_9EqMatcherINSt3__112basic_stringIcNS3_11char_traitsIcEENS3_9allocatorIcEEEEEEED1Ev
FNA:8,0,_ZN7testing8internal13SharedPayloadINS0_9EqMatcherINSt3__112basic_stringIcNS3_11char_traitsIcEENS3_9allocatorIcEEEEEEED2Ev
FNL:9,215,215
FNA:9,0,_ZN7testing8internal13SharedPayloadINS0_9EqMatcherINSt3__112basic_stringIcNS3_11char_traitsIcEENS3_9allocatorIcEEEEEEEC1EOSA_
FNA:9,0,_ZN7testing8internal13SharedPayloadINS0_9EqMatcherINSt3__112basic_stringIcNS3_11char_traitsIcEENS3_9allocatorIcEEEEEEEC2EOSA_
FNL:10,217,219
FNA:10,0,_ZN7testing8internal13SharedPayloadINS0_9EqMatcherINSt3__112basic_stringIcNS3_11char_traitsIcEENS3_9allocatorIcEEEEEEE7DestroyEPNS0_17SharedPayloadBaseE
FNL:11,232,235
FNA:11,0,_ZNK7testing8internal11MatcherBaseIRKNSt3__112basic_stringIcNS2_11char_traitsIcEENS2_9allocatorIcEEEEE15MatchAndExplainESA_PNS_19MatchResultListenerE
FNL:12,238,241
FNA:12,0,_ZNK7testing8internal11MatcherBaseIRKNSt3__112basic_stringIcNS2_11char_traitsIcEENS2_9allocatorIcEEEEE7MatchesESA_
FNL:13,244,247
FNA:13,0,_ZNK7testing8internal11MatcherBaseINSt3__112basic_stringIcNS2_11char_traitsIcEENS2_9allocatorIcEEEEE10DescribeToEPNS2_13basic_ostreamIcS5_EE
FNA:13,0,_ZNK7testing8internal11MatcherBaseINSt3__117basic_string_viewIcNS2_11char_traitsIcEEEEE10DescribeToEPNS2_13basic_ostreamIcS5_EE
FNA:13,0,_ZNK7testing8internal11MatcherBaseIRKNSt3__112basic_stringIcNS2_11char_traitsIcEENS2_9allocatorIcEEEEE10DescribeToEPNS2_13basic_ostreamIcS5_EE
FNA:13,0,_ZNK7testing8internal11MatcherBaseIRKNSt3__117basic_string_viewIcNS2_11char_traitsIcEEEEE10DescribeToEPNS2_13basic_ostreamIcS5_EE
FNL:14,250,253
FNA:14,0,_ZNK7testing8internal11MatcherBaseINSt3__112basic_stringIcNS2_11char_traitsIcEENS2_9allocatorIcEEEEE18DescribeNegationToEPNS2_13basic_ostreamIcS5_EE
FNA:14,0,_ZNK7testing8internal11MatcherBaseINSt3__117basic_string_viewIcNS2_11char_traitsIcEEEEE18DescribeNegationToEPNS2_13basic_ostreamIcS5_EE
FNA:14,0,_ZNK7testing8internal11MatcherBaseIRKNSt3__112basic_stringIcNS2_11char_traitsIcEENS2_9allocatorIcEEEEE18DescribeNegationToEPNS2_13basic_ostreamIcS5_EE
FNA:14,0,_ZNK7testing8internal11MatcherBaseIRKNSt3__117basic_string_viewIcNS2_11char_traitsIcEEEEE18DescribeNegationToEPNS2_13basic_ostreamIcS5_EE
FNL:15,270,270
FNA:15,0,_ZN7testing8internal11MatcherBaseINSt3__112basic_stringIcNS2_11char_traitsIcEENS2_9allocatorIcEEEEEC2Ev
FNA:15,0,_ZN7testing8internal11MatcherBaseINSt3__117basic_string_viewIcNS2_11char_traitsIcEEEEEC2Ev
FNA:15,0,_ZN7testing8internal11MatcherBaseIRKNSt3__112basic_stringIcNS2_11char_traitsIcEENS2_9allocatorIcEEEEEC2Ev
FNA:15,0,_ZN7testing8internal11MatcherBaseIRKNSt3__117basic_string_viewIcNS2_11char_traitsIcEEEEEC2Ev
FNL:16,281,283
FNA:16,0,_ZN7testing8internal11MatcherBaseINSt3__112basic_stringIcNS2_11char_traitsIcEENS2_9allocatorIcEEEEEC2INS0_9EqMatcherIS8_EEvEEOT_
FNA:16,0,_ZN7testing8internal11MatcherBaseINSt3__117basic_string_viewIcNS2_11char_traitsIcEEEEEC2INS0_9EqMatcherINS2_12basic_stringIcS5_NS2_9allocatorIcEEEEEEvEEOT_
FNA:16,0,_ZN7testing8internal11MatcherBaseIRKNSt3__112basic_stringIcNS2_11char_traitsIcEENS2_9allocatorIcEEEEEC2INS0_9EqMatcherIS8_EEvEEOT_
FNA:16,0,_ZN7testing8internal11MatcherBaseIRKNSt3__117basic_string_viewIcNS2_11char_traitsIcEEEEEC2INS0_9EqMatcherINS2_12basic_stringIcS5_NS2_9allocatorIcEEEEEEvEEOT_
FNL:17,299,302
FNA:17,0,_ZN7testing8internal11MatcherBaseIRKNSt3__112basic_stringIcNS2_11char_traitsIcEENS2_9allocatorIcEEEEEC2EOSB_
FNL:18,304,311
FNA:18,0,_ZN7testing8internal11MatcherBaseINSt3__112basic_stringIcNS2_11char_traitsIcEENS2_9allocatorIcEEEEEaSEOS9_
FNA:18,0,_ZN7testing8internal11MatcherBaseINSt3__117basic_string_viewIcNS2_11char_traitsIcEEEEEaSEOS7_
FNA:18,0,_ZN7testing8internal11MatcherBaseIRKNSt3__112basic_stringIcNS2_11char_traitsIcEENS2_9allocatorIcEEEEEaSEOSB_
FNA:18,0,_ZN7testing8internal11MatcherBaseIRKNSt3__117basic_string_viewIcNS2_11char_traitsIcEEEEEaSEOS9_
FNL:19,313,313
FNA:19,0,_ZN7testing8internal11MatcherBaseINSt3__112basic_stringIcNS2_11char_traitsIcEENS2_9allocatorIcEEEEED0Ev
FNA:19,0,_ZN7testing8internal11MatcherBaseINSt3__112basic_stringIcNS2_11char_traitsIcEENS2_9allocatorIcEEEEED1Ev
FNA:19,0,_ZN7testing8internal11MatcherBaseINSt3__112basic_stringIcNS2_11char_traitsIcEENS2_9allocatorIcEEEEED2Ev
FNA:19,0,_ZN7testing8internal11MatcherBaseINSt3__117basic_string_viewIcNS2_11char_traitsIcEEEEED0Ev
FNA:19,0,_ZN7testing8internal11MatcherBaseINSt3__117basic_string_viewIcNS2_11char_traitsIcEEEEED1Ev
FNA:19,0,_ZN7testing8internal11MatcherBaseINSt3__117basic_string_viewIcNS2_11char_traitsIcEEEEED2Ev
FNA:19,0,_ZN7testing8internal11MatcherBaseIRKNSt3__112basic_stringIcNS2_11char_traitsIcEENS2_9allocatorIcEEEEED0Ev
FNA:19,0,_ZN7testing8internal11MatcherBaseIRKNSt3__112basic_stringIcNS2_11char_traitsIcEENS2_9allocatorIcEEEEED1Ev
FNA:19,0,_ZN7testing8internal11MatcherBaseIRKNSt3__112basic_stringIcNS2_11char_traitsIcEENS2_9allocatorIcEEEEED2Ev
FNA:19,0,_ZN7testing8internal11MatcherBaseIRKNSt3__117basic_string_viewIcNS2_11char_traitsIcEEEEED0Ev
FNA:19,0,_ZN7testing8internal11MatcherBaseIRKNSt3__117basic_string_viewIcNS2_11char_traitsIcEEEEED1Ev
FNA:19,0,_ZN7testing8internal11MatcherBaseIRKNSt3__117basic_string_viewIcNS2_11char_traitsIcEEEEED2Ev
FNL:20,327,328
FNA:20,0,_ZNK7testing8internal11MatcherBaseINSt3__112basic_stringIcNS2_11char_traitsIcEENS2_9allocatorIcEEEEE8IsSharedEv
FNA:20,0,_ZNK7testing8internal11MatcherBaseINSt3__117basic_string_viewIcNS2_11char_traitsIcEEEEE8IsSharedEv
FNA:20,0,_ZNK7testing8internal11MatcherBaseIRKNSt3__112basic_stringIcNS2_11char_traitsIcEENS2_9allocatorIcEEEEE8IsSharedEv
FNA:20,0,_ZNK7testing8internal11MatcherBaseIRKNSt3__117basic_string_viewIcNS2_11char_traitsIcEEEEE8IsSharedEv
FNL:21,333,336
FNA:21,0,_ZN7testing8internal11MatcherBaseINSt3__112basic_stringIcNS2_11char_traitsIcEENS2_9allocatorIcEEEEE19MatchAndExplainImplINS9_11ValuePolicyINS0_9EqMatcherIS8_EELb0EEEEEDTcldtclsrT_3Getfp_E15MatchAndExplainfp0_clptfp1_6streamEEERKS9_RKS8_PNS_19MatchResultListenerE
FNA:21,0,_ZN7testing8internal11MatcherBaseINSt3__117basic_string_viewIcNS2_11char_traitsIcEEEEE19MatchAndExplainImplINS7_11ValuePolicyINS0_9EqMatcherINS2_12basic_stringIcS5_NS2_9allocatorIcEEEEEELb0EEEEEDTcldtclsrT_3Getfp_E15MatchAndExplainfp0_clptfp1_6streamEEERKS7_RKS6_PNS_19MatchResultListenerE
FNA:21,0,_ZN7testing8internal11MatcherBaseIRKNSt3__112basic_stringIcNS2_11char_traitsIcEENS2_9allocatorIcEEEEE19MatchAndExplainImplINSB_11ValuePolicyINS0_9EqMatcherIS8_EELb0EEEEEDTcldtclsrT_3Getfp_E15MatchAndExplainfp0_clptfp1_6streamEEERKSB_SA_PNS_19MatchResultListenerE
FNA:21,0,_ZN7testing8internal11MatcherBaseIRKNSt3__117basic_string_viewIcNS2_11char_traitsIcEEEEE19MatchAndExplainImplINS9_11ValuePolicyINS0_9EqMatcherINS2_12basic_stringIcS5_NS2_9allocatorIcEEEEEELb0EEEEEDTcldtclsrT_3Getfp_E15MatchAndExplainfp0_clptfp1_6streamEEERKS9_S8_PNS_19MatchResultListenerE
FNL:22,347,354
FNA:22,0,_ZN7testing8internal11MatcherBaseINSt3__112basic_stringIcNS2_11char_traitsIcEENS2_9allocatorIcEEEEE12DescribeImplINS9_11ValuePolicyINS0_9EqMatcherIS8_EELb0EEEEEvRKS9_PNS2_13basic_ostreamIcS5_EEb
FNA:22,0,_ZN7testing8internal11MatcherBaseINSt3__117basic_string_viewIcNS2_11char_traitsIcEEEEE12DescribeImplINS7_11ValuePolicyINS0_9EqMatcherINS2_12basic_stringIcS5_NS2_9allocatorIcEEEEEELb0EEEEEvRKS7_PNS2_13basic_ostreamIcS5_EEb
FNA:22,0,_ZN7testing8internal11MatcherBaseIRKNSt3__112basic_stringIcNS2_11char_traitsIcEENS2_9allocatorIcEEEEE12DescribeImplINSB_11ValuePolicyINS0_9EqMatcherIS8_EELb0EEEEEvRKSB_PNS2_13basic_ostreamIcS5_EEb
FNA:22,0,_ZN7testing8internal11MatcherBaseIRKNSt3__117basic_string_viewIcNS2_11char_traitsIcEEEEE12DescribeImplINS9_11ValuePolicyINS0_9EqMatcherINS2_12basic_stringIcS5_NS2_9allocatorIcEEEEEELb0EEEEEvRKS9_PNS2_13basic_ostreamIcS5_EEb
FNL:23,357,369
FNA:23,0,_ZN7testing8internal11MatcherBaseINSt3__112basic_stringIcNS2_11char_traitsIcEENS2_9allocatorIcEEEEE16GetDescriberImplINS9_11ValuePolicyINS0_9EqMatcherIS8_EELb0EEEEEPKNS_25MatcherDescriberInterfaceERKS9_
FNA:23,0,_ZN7testing8internal11MatcherBaseINSt3__117basic_string_viewIcNS2_11char_traitsIcEEEEE16GetDescriberImplINS7_11ValuePolicyINS0_9EqMatcherINS2_12basic_stringIcS5_NS2_9allocatorIcEEEEEELb0EEEEEPKNS_25MatcherDescriberInterfaceERKS7_
FNA:23,0,_ZN7testing8internal11MatcherBaseIRKNSt3__112basic_stringIcNS2_11char_traitsIcEENS2_9allocatorIcEEEEE16GetDescriberImplINSB_11ValuePolicyINS0_9EqMatcherIS8_EELb0EEEEEPKNS_25MatcherDescriberInterfaceERKSB_
FNA:23,0,_ZN7testing8internal11MatcherBaseIRKNSt3__117basic_string_viewIcNS2_11char_traitsIcEEEEE16GetDescriberImplINS9_11ValuePolicyINS0_9EqMatcherINS2_12basic_stringIcS5_NS2_9allocatorIcEEEEEELb0EEEEEPKNS_25MatcherDescriberInterfaceERKS9_
FNL:24,373,377
